(dp0
(S'WHITE'
p1
S'TOO'
p2
tp3
I12
s(S'WHETHER'
p4
S'PUT'
p5
tp6
I13
s(S'DEFICIT'
p7
S'BILLION'
p8
tp9
I11
s(S'LAST'
p10
S'AMERICAN'
p11
tp12
I11
s(S'CASE'
p13
S'COURT'
p14
tp15
I32
s(S'RATES'
p16
S'MARKET'
p17
tp18
I18
s(S'INCOME'
p19
S'TAX'
p20
tp21
I23
s(S'ARMED'
p22
S'ROBBERY'
p23
tp24
I12
s(S'DOLLAR'
p25
S'DOLLARS'
p26
tp27
I17
s(S'QUESTIONS'
p28
S'WHETHER'
p29
tp30
I12
s(S'SUB'
p31
S'COMMITTEE'
p32
tp33
I14
s(S'EIGHT'
p34
S'ZERO'
p35
tp36
I11
s(S'SIX'
p37
S'PERCENT'
p38
tp39
I21
s(S'SEVEN'
p40
S'OFF'
p41
tp42
I11
s(S'CARE'
p43
S'DOLLARS'
p44
tp45
I13
s(S'INTEREST'
p46
S'MARKET'
p47
tp48
I12
s(S'WEIGHT'
p49
S'PROGRAM'
p50
tp51
I14
s(S'VAT'
p52
S'TAX'
p53
tp54
I13
s(S'SENATOR'
p55
S'REPUBLICANS'
p56
tp57
I11
s(S'AMERICAN'
p58
S'UNITED'
p59
tp60
I12
s(S'SENATOR'
p61
S'COMMITTEE'
p62
tp63
I16
s(S'REPUBLICAN'
p64
S'PARTY'
p65
tp66
I13
s(S'FIFTEEN'
p67
S'TWENTY'
p68
tp69
I11
s(S'DIET'
p70
S'PUT'
p71
tp72
I12
s(S'DOLLARS'
p73
S'TRADE'
p74
tp75
I13
s(S'MILLION'
p76
S'HEALTH'
p77
tp78
I11
s(S'SEVEN'
p79
S'PERCENT'
p80
tp81
I17
s(S'CONGRESS'
p82
S'TAX'
p83
tp84
I11
s(S'COST'
p85
S'DOLLARS'
p86
tp87
I13
s(S'NICOLE'
p88
S'J.'
p89
tp90
I14
s(S'PERCENT'
p91
S'TWENTY'
p92
tp93
I17
s(S'I.'
p94
S'A.'
p95
tp96
I12
s(S'GRAND'
p97
S'JURY'
p98
tp99
I26
s(S'NEED'
p100
S'ISSUES'
p101
tp102
I17
s(S'MILLION'
p103
S'DOLLARS'
p104
tp105
I26
s(S'CASE'
p106
S'NEED'
p107
tp108
I14
s(S'PERCENT'
p109
S'VALUE'
p110
tp111
I11
s(S'THEMSELVES'
p112
S'NEED'
p113
tp114
I12
s(S'HEALTH'
p115
S'EVERY'
p116
tp117
I12
s(S'GIVE'
p118
S'PUT'
p119
tp120
I12
s(S'NEED'
p121
S'HELP'
p122
tp123
I11
s(S'WATER'
p124
S'FEET'
p125
tp126
I11
s(S'UNDER'
p127
S'CASE'
p128
tp129
I11
s(S'NATO'
p130
S'SERBS'
p131
tp132
I11
s(S"LET'S"
p133
S'CALL'
p134
tp135
I20
s(S'CITY'
p136
S'THOUSAND'
p137
tp138
I11
s(S'TROOPS'
p139
S'SOMALIA'
p140
tp141
I13
s(S'WORLD'
p142
S'UNITED'
p143
tp144
I13
s(S'A.'
p145
S'T.'
p146
tp147
I12
s(S'THOUSAND'
p148
S'TWENTY'
p149
tp150
I20
s(S'TELL'
p151
S'DAY'
p152
tp153
I11
s(S'SIX'
p154
S'THOUSAND'
p155
tp156
I16
s(S'FEEL'
p157
S'NEED'
p158
tp159
I12
s(S'GREGORY'
p160
S'PARENTS'
p161
tp162
I13
s(S'M.'
p163
S'CARE'
p164
tp165
I11
s(S'HAITI'
p166
S'UNITED'
p167
tp168
I13
s(S'LOOK'
p169
S'DAY'
p170
tp171
I12
s(S'DEFENSE'
p172
S'JURY'
p173
tp174
I26
s(S'TREASURY'
p175
S'R.'
p176
tp177
I12
s(S'WASHINGTON'
p178
S'POST'
p179
tp180
I21
s(S'O.'
p181
S'MILLION'
p182
tp183
I12
s(S"I'VE"
p184
S'LIFE'
p185
tp186
I13
s(S'GRAND'
p187
S'DEFENSE'
p188
tp189
I23
s(S'REPUBLICAN'
p190
S'WHITE'
p191
tp192
I12
s(S'PROGRAM'
p193
S'JOHNSON'
p194
tp195
I16
s(S'NEED'
p196
S'CHANGE'
p197
tp198
I17
s(S'WHETHER'
p199
S'STATES'
p200
tp201
I11
s(S'THOUSAND'
p202
S'NUMBER'
p203
tp204
I13
s(S'BILLION'
p205
S'BUDGET'
p206
tp207
I13
s(S'SUPPORT'
p208
g58
tp209
I11
s(S'CONGRESS'
p210
S'HEALTH'
p211
tp212
I11
s(S'WENT'
p213
S'TALK'
p214
tp215
I12
s(S'BILLION'
p216
S'DOLLARS'
p217
tp218
I24
s(S'AIDS'
p219
S'HEALTH'
p220
tp221
I11
s(S'NEED'
p222
S'TAX'
p223
tp224
I15
s(S'UNITED'
p225
S'STATES'
p226
tp227
I25
s(S'ITS'
p228
S'STATE'
p229
tp230
I12
s(S'QUESTION'
p231
S'ISSUE'
p232
tp233
I12
s(S'GREGORY'
p234
S'FOSTER'
p235
tp236
I12
s(g73
S'TWENTY'
p237
tp238
I15
s(S'PUT'
p239
S'MOUTH'
p240
tp241
I12
s(S'GOVERNMENT'
p242
S'PLAN'
p243
tp244
I12
s(S'CONTROL'
p245
S'PROPER'
p246
tp247
I12
s(S'COURT'
p248
S'RIGHTS'
p249
tp250
I11
s(S'CONTROL'
p251
S'BODY'
p252
tp253
I13
s(S'STILL'
p254
S'HEALTH'
p255
tp256
I11
s(S'FACT'
p257
S'CASE'
p258
tp259
I11
s(S'CHAIRMAN'
p260
S'COMMITTEE'
p261
tp262
I38
s(S'DAY'
p263
S'WHITE'
p264
tp265
I12
s(S'CHILDREN'
p266
S'PARENTS'
p267
tp268
I12
s(S'SIX'
p269
S'TWENTY'
p270
tp271
I11
s(S'FORTY'
p272
S'BUILT'
p273
tp274
I11
s(S'BILLION'
p275
S'TAX'
p276
tp277
I13
s(S'EIGHT'
p278
S'THOUSAND'
p279
tp280
I14
s(g239
g246
tp281
I14
s(S'PERCENT'
p282
S'NINE'
p283
tp284
I17
s(S'DEFENSE'
p285
S'SIMPSON'
p286
tp287
I16
s(S'CHILD'
p288
S'MOTHER'
p289
tp290
I11
s(S'T.'
p291
S'V.'
p292
tp293
I12
s(S'UNITED'
p294
S'INTERNATIONAL'
p295
tp296
I11
s(S'THOUSAND'
p297
S'UNITED'
p298
tp299
I12
s(S'PROGRAMS'
p300
S'WEIGHT'
p301
tp302
I11
s(S'AMERICAN'
p303
S'DOLLARS'
p304
tp305
I14
s(S'GOVERNMENT'
p306
g115
tp307
I12
s(S'TWENTY'
p308
g203
tp309
I16
s(S'TROOPER'
p310
S'CALLS'
p311
tp312
I12
s(S'PERCENT'
p313
S'TWELVE'
p314
tp315
I16
s(S'WHITE'
p316
S'R.'
p317
tp318
I14
s(S'MARKET'
p319
S'MONEY'
p320
tp321
I12
s(S'THING'
p322
S'WORK'
p323
tp324
I19
s(S'DEMOCRATS'
p325
S'SENATE'
p326
tp327
I12
s(S'NEED'
p328
S'PROGRAM'
p329
tp330
I12
s(S'CASE'
p331
S'GRAND'
p332
tp333
I13
s(S'T.'
p334
S'WHITE'
p335
tp336
I15
s(S'GOVERNMENT'
p337
S'VIOLENCE'
p338
tp339
I11
s(S'DEFENSE'
p340
S'PROSECUTION'
p341
tp342
I15
s(S'SENATOR'
p343
S'SENATE'
p344
tp345
I21
s(S'DEFENSE'
p346
S'O.'
p347
tp348
I11
s(S'STRATEGIC'
p349
S'PERCENT'
p350
tp351
I13
s(S'GOVERNMENT'
p352
S'COUNTRY'
p353
tp354
I11
s(S'UNDER'
p355
S'LAST'
p356
tp357
I11
s(S'ATTORNEY'
p358
S'INVESTIGATION'
p359
tp360
I11
s(S'RATE'
p361
S'PERCENT'
p362
tp363
I18
s(S'GRAND'
p364
S'TRIAL'
p365
tp366
I17
s(S'EVERY'
p367
S'KIND'
p368
tp369
I11
s(S'HEALTH'
p370
S'CARE'
p371
tp372
I27
s(S'PERCENT'
p373
S'TAX'
p374
tp375
I14
s(g149
S'ROBBERY'
p376
tp377
I13
s(S'SERBS'
p378
S'WEAPONS'
p379
tp380
I12
s(S'WHITE'
p381
S'BEFORE'
p382
tp383
I11
s(S'WHITE'
p384
S'WHETHER'
p385
tp386
I12
s(S'GIVE'
p387
S'MARKET'
p388
tp389
I13
s(S'MUTUAL'
p390
g350
tp391
I13
s(S'TREASURY'
p392
S'WHITE'
p393
tp394
I17
s(S'MOUTH'
p395
S'FOODS'
p396
tp397
I13
s(S'STATES'
p398
S'POLICY'
p399
tp400
I11
s(S'BEST'
p401
S'GIVE'
p402
tp403
I13
s(S"WE'LL"
p404
S'PHONE'
p405
tp406
I11
s(S'A.'
p407
g317
tp408
I13
s(S'JURY'
p409
S'CASE'
p410
tp411
I18
s(S'AMERICANS'
p412
S'PERCENT'
p413
tp414
I13
s(S'WAR'
p415
S'THOUSAND'
p416
tp417
I11
s(g245
S'MOUTH'
p418
tp419
I12
s(S'RISK'
p420
S'CANCER'
p421
tp422
I12
s(S'CASE'
p423
S'SAME'
p424
tp425
I15
s(S'THIRTY'
p426
S'DOLLARS'
p427
tp428
I18
s(S'THOUSAND'
p429
S'NINETY'
p430
tp431
I12
s(g245
S'FOODS'
p432
tp433
I16
s(S'TWENTY'
p434
S'BETWEEN'
p435
tp436
I11
s(S'O.'
p437
S'J.'
p438
tp439
I16
s(g58
S'STATES'
p440
tp441
I14
s(S'WENT'
p442
S'CAME'
p443
tp444
I11
s(S'SIX'
p445
S'NINE'
p446
tp447
I16
s(S'DEMOCRATS'
p448
S'REPUBLICANS'
p449
tp450
I19
s(g373
S'INCOME'
p451
tp452
I11
s(S'FUNDS'
p453
S'PERCENT'
p454
tp455
I24
s(S'LAST'
p456
S'THOUSAND'
p457
tp458
I12
s(S'UNITED'
p459
S'AIDS'
p460
tp461
I13
s(S'WHITE'
p462
S'NUSSBAUM'
p463
tp464
I11
s(S'THOUSAND'
p465
S'DOLLARS'
p466
tp467
I26
s(S"WOMEN'S"
p468
S'HEALTH'
p469
tp470
I11
s(S'TWENTY'
p471
S'THIRTY'
p472
tp473
I12
s(S'SENATE'
p474
S'BILL'
p475
tp476
I14
s(S'COUNTRY'
p477
S'UNITED'
p478
tp479
I13
s(S'CONGRESS'
p480
S'CARE'
p481
tp482
I11
s(S'AVERAGE'
p483
S'PERCENT'
p484
tp485
I12
s(S'PERCENT'
p486
S'NINETY'
p487
tp488
I25
s(S'CHILD'
p489
S'PARENTS'
p490
tp491
I16
s(S'THING'
p492
S'MADE'
p493
tp494
I11
s(g7
S'DOLLARS'
p495
tp496
I13
s(S'FALSE'
p497
S'ACCUSATIONS'
p498
tp499
I15
s(S'HEALTH'
p500
S'PROGRAM'
p501
tp502
I12
s(S'ASK'
p503
S'QUESTION'
p504
tp505
I11
s(S'PERCENT'
p506
S'FUND'
p507
tp508
I14
s(g239
S'BODY'
p509
tp510
I15
s(S'DOLLARS'
p511
S'PAY'
p512
tp513
I11
s(S'TAXES'
p514
S'VAT'
p515
tp516
I13
s(S'THROUGH'
p517
S'WHITE'
p518
tp519
I12
s(S'HEALTH'
p520
S'COST'
p521
tp522
I11
s(S'NATO'
p523
S'UNITED'
p524
tp525
I12
s(S'CARE'
p526
S'COUNTRY'
p527
tp528
I12
s(S'J.'
p529
S'BULLETS'
p530
tp531
I11
s(S'GROWING'
p532
S'PERCENT'
p533
tp534
I18
s(S'TRYING'
p535
S'TAX'
p536
tp537
I12
s(S'KIND'
p538
S'THROUGH'
p539
tp540
I11
s(S'SLASH'
p541
S'PROGRAM'
p542
tp543
I11
s(S'ITS'
p544
S'WASHINGTON'
p545
tp546
I13
s(S'A.'
p547
S'ITS'
p548
tp549
I15
s(g282
g472
tp550
I17
s(S'TEN'
p551
S'PERCENT'
p552
tp553
I19
s(S'PUT'
p554
S'CARE'
p555
tp556
I12
s(S'UNITED'
p557
S'PEACE'
p558
tp559
I13
s(S'STUDENTS'
p560
S'SCHOOL'
p561
tp562
I16
s(g432
g509
tp563
I12
s(S'FORTY'
p564
S'PERCENT'
p565
tp566
I12
s(S'LET'
p567
S'QUESTION'
p568
tp569
I18
s(S'WHITE'
p570
S'BLACK'
p571
tp572
I16
s(S'WHITE'
p573
S'WHITEWATER'
p574
tp575
I12
s(S'TAX'
p576
S'SALES'
p577
tp578
I12
s(S'TAX'
p579
S'CARE'
p580
tp581
I20
s(S'TAX'
p582
S'GOVERNMENT'
p583
tp584
I11
s(S'OLD'
p585
S'LAST'
p586
tp587
I12
s(S'WEEK'
p588
S'BILL'
p589
tp590
I12
s(S'PERCENT'
p591
S'WHITE'
p592
tp593
I12
s(S'SECRETARY'
p594
S'GENERAL'
p595
tp596
I12
s(S'NEED'
p597
S'SYSTEM'
p598
tp599
I14
s(S'MONEY'
p600
S'TAX'
p601
tp602
I12
s(S'UNITED'
p603
S'BOSNIA'
p604
tp605
I11
s(S'LAST'
p606
S'STATE'
p607
tp608
I13
s(S"WE'LL"
p609
S'NEXT'
p610
tp611
I11
s(g486
S'DOLLARS'
p612
tp613
I19
s(S'CASE'
p614
S'DEFENSE'
p615
tp616
I13
s(S'BILL'
p617
S'DOLLARS'
p618
tp619
I11
s(S'COUNTRY'
p620
S'STILL'
p621
tp622
I11
s(g483
S'SIX'
p623
tp624
I17
s(S'BILLION'
p625
S'TRADE'
p626
tp627
I12
s(S'MARKET'
p628
S'PERCENT'
p629
tp630
I14
s(S'SENATE'
p631
S'COMMITTEE'
p632
tp633
I17
s(S'INVOLVED'
p634
S'UNITED'
p635
tp636
I12
s(g88
S'O.'
p637
tp638
I14
s(S'JURY'
p639
S'WITNESSES'
p640
tp641
I11
s(S'TAXES'
p642
g576
tp643
I21
s(S'NORTH'
p644
S'BETWEEN'
p645
tp646
I12
s(S'HEALTH'
p647
g527
tp648
I12
s(S'SENIOR'
p649
S'BLITZER'
p650
tp651
I11
s(S'BETWEEN'
p652
S'WHITE'
p653
tp654
I16
s(S'SCHOOL'
p655
S'SCHOOLS'
p656
tp657
I15
s(S'NATO'
p658
S'AIR'
p659
tp660
I12
s(S'DOCTOR'
p661
S'UNDER'
p662
tp663
I11
s(S'NEED'
p664
S'CARE'
p665
tp666
I15
s(S'QUESTION'
p667
S'WHETHER'
p668
tp669
I17
s(S'UNITED'
p670
S'NATIONS'
p671
tp672
I12
s(g346
S'J.'
p673
tp674
I11
s(g404
S'CALLS'
p675
tp676
I12
s(g239
g432
tp677
I20
s(S'GREAT'
p678
S'AMERICAN'
p679
tp680
I11
s(S'PACKAGE'
p681
S'TAX'
p682
tp683
I13
s(S'B.'
p684
S'I.'
p685
tp686
I12
s(g634
S'STATES'
p687
tp688
I13
s(S'FIFTY'
p689
S'THOUSAND'
p690
tp691
I13
s(S'ACCEPT'
p692
S'WASHINGTON'
p693
tp694
I23
s(S'PROBLEM'
p695
S'FACT'
p696
tp697
I11
s(S'NATO'
p698
S'BOSNIA'
p699
tp700
I21
s(S'COUNTRY'
p701
S'LAST'
p702
tp703
I11
s(S'SYSTEM'
p704
g542
tp705
I11
s(S'STATES'
p706
g460
tp707
I12
s(S'BETWEEN'
p708
S'FORTY'
p709
tp710
I12
s(S'WOMEN'
p711
S'MEN'
p712
tp713
I24
s(S'GOVERNMENT'
p714
S'ITS'
p715
tp716
I13
s(g597
S'HEALTH'
p717
tp718
I21
s(S'HEALTH'
p719
S'SYSTEM'
p720
tp721
I11
s(S'EIGHT'
p722
S'UNDER'
p723
tp724
I13
s(S'LOOKING'
p725
S'WHETHER'
p726
tp727
I12
s(S'PHONE'
p728
S'CALLS'
p729
tp730
I16
s(S'INVESTIGATION'
p731
g98
tp732
I11
s(S'NINETY'
p733
g592
tp734
I11
s(S'SAYING'
p735
S'UNITED'
p736
tp737
I11
s(S'DOLLARS'
p738
g83
tp739
I20
s(S'NEED'
p740
S'BEFORE'
p741
tp742
I11
s(g79
S'EIGHT'
p743
tp744
I14
s(S'BEST'
p745
S'WORK'
p746
tp747
I14
s(S'AGAIN'
p748
S'NEVER'
p749
tp750
I11
s(S'BEFORE'
p751
g632
tp752
I14
s(g692
S'POST'
p753
tp754
I19
s(S'FEEL'
p755
S'DAY'
p756
tp757
I11
s(g245
S'PUT'
p758
tp759
I16
s(S'WAR'
p760
S'WORLD'
p761
tp762
I11
s(S'BIG'
p763
g58
tp764
I12
s(g175
S'T.'
p765
tp766
I11
s(S'GRAND'
p767
g640
tp768
I11
s(S'TRADE'
p769
S'T.'
p770
tp771
I13
s(S'BEST'
p772
S'PUT'
p773
tp774
I14
s(S'TRIAL'
p775
g173
tp776
I17
s(S'STILL'
p777
S'DAY'
p778
tp779
I11
s(S'HEALTH'
p780
S'TAX'
p781
tp782
I21
s(S'B.'
p783
S'A.'
p784
tp785
I12
s(S'TRIAL'
p786
S'DEFENSE'
p787
tp788
I14
s(S'MADE'
p789
S'NUMBER'
p790
tp791
I12
s(S'BOSNIA'
p792
S'PEACE'
p793
tp794
I11
s(g432
g246
tp795
I11
s(S'SIX'
p796
S'SEVEN'
p797
tp798
I25
s(S'STATE'
p799
S'SCHOOL'
p800
tp801
I11
s(g477
S'STATES'
p802
tp803
I16
s(S'FIFTY'
p804
S'DOLLARS'
p805
tp806
I11
s(S'YIELD'
p807
S'PERCENT'
p808
tp809
I11
s(S'PREDOMINANTLY'
p810
S'NEIGHBORHOODS'
p811
tp812
I14
s(S'BOSNIAN'
p813
g793
tp814
I11
s(S'BEST'
p815
S'MARKET'
p816
tp817
I12
s(g731
S'GRAND'
p818
tp819
I13
s(S'WHITE'
p820
S'INVESTIGATION'
p821
tp822
I14
s(g682
S'ALREADY'
p823
tp824
I13
s(S'T.'
p825
S'R.'
p826
tp827
I17
s.