(dp0
S'PERCENT THIRTY'
p1
I17
sS'AIR NATO'
p2
I12
sS'PERCENT TEN'
p3
I19
sS'BEFORE COMMITTEE'
p4
I14
sS'J. NICOLE'
p5
I14
sS'DEFENSE JURY'
p6
I26
sS'OFF SEVEN'
p7
I11
sS'BILLION DOLLARS'
p8
I24
sS'AIDS STATES'
p9
I12
sS'LAST THOUSAND'
p10
I12
sS'GOVERNMENT TAX'
p11
I11
sS'KIND THROUGH'
p12
I11
sS'WHITE WHITEWATER'
p13
I12
sS'HEALTH MILLION'
p14
I11
sS'THOUSAND TWENTY'
p15
I20
sS'CHILD MOTHER'
p16
I11
sS'LAST STATE'
p17
I13
sS'NATO UNITED'
p18
I12
sS'CASE GRAND'
p19
I13
sS'INCOME TAX'
p20
I23
sS'PROGRAM SLASH'
p21
I11
sS'SERBS WEAPONS'
p22
I12
sS'ITS STATE'
p23
I12
sS'BLITZER SENIOR'
p24
I11
sS'DEFICIT DOLLARS'
p25
I13
sS'PERCENT VALUE'
p26
I11
sS'BETWEEN TWENTY'
p27
I11
sS'HELP NEED'
p28
I11
sS'AMERICAN STATES'
p29
I14
sS'EIGHT SEVEN'
p30
I14
sS'J. O.'
p31
I16
sS'TOO WHITE'
p32
I12
sS'BOSNIA NATO'
p33
I21
sS'FUND PERCENT'
p34
I14
sS'REPUBLICAN WHITE'
p35
I12
sS'INVESTIGATION JURY'
p36
I11
sS'BOSNIA PEACE'
p37
I11
sS'CALLS TROOPER'
p38
I12
sS'AMERICAN LAST'
p39
I11
sS'BILLION BUDGET'
p40
I13
sS'CONGRESS TAX'
p41
I11
sS'BEST WORK'
p42
I14
sS'REPUBLICANS SENATOR'
p43
I11
sS'PROGRAMS WEIGHT'
p44
I11
sS'AMERICANS PERCENT'
p45
I13
sS'COUNTRY GOVERNMENT'
p46
I11
sS'AMERICAN SUPPORT'
p47
I11
sS'THOUSAND WAR'
p48
I11
sS'FORTY PERCENT'
p49
I12
sS'NINETY WHITE'
p50
I11
sS'GRAND TRIAL'
p51
I17
sS'EIGHT UNDER'
p52
I13
sS'DEMOCRATS REPUBLICANS'
p53
I19
sS'AMERICAN GREAT'
p54
I11
sS'ATTORNEY INVESTIGATION'
p55
I11
sS'BLACK WHITE'
p56
I16
sS'NUMBER THOUSAND'
p57
I13
sS'SAYING UNITED'
p58
I11
sS'MARKET RATES'
p59
I18
sS'CHILDREN PARENTS'
p60
I12
sS'EIGHT ZERO'
p61
I11
sS'BOSNIA UNITED'
p62
I11
sS'FEEL NEED'
p63
I12
sS"I'VE LIFE"
p64
I13
sS'AMERICAN DOLLARS'
p65
I14
sS'POLICY STATES'
p66
I11
sS'PERCENT TWELVE'
p67
I16
sS'BODY FOODS'
p68
I12
sS'NATIONS UNITED'
p69
I12
sS'PERCENT STRATEGIC'
p70
I13
sS'A. ITS'
p71
I15
sS'A. T.'
p72
I12
sS'NINE PERCENT'
p73
I17
sS'MILLION O.'
p74
I12
sS'NATO SERBS'
p75
I11
sS'DEFENSE SIMPSON'
p76
I16
sS'FEET WATER'
p77
I11
sS'T. WHITE'
p78
I15
sS'DOLLARS TRADE'
p79
I13
sS'DEFENSE TRIAL'
p80
I14
sS'CARE DOLLARS'
p81
I13
sS'DOLLAR DOLLARS'
p82
I17
sS'THING WORK'
p83
I19
sS'HEALTH STILL'
p84
I11
sS'PERCENT WHITE'
p85
I12
sS'CASE DEFENSE'
p86
I13
sS'CITY THOUSAND'
p87
I11
sS'PROGRAM WEIGHT'
p88
I14
sS'BILL DOLLARS'
p89
I11
sS'PERCENT RATE'
p90
I18
sS'MUTUAL PERCENT'
p91
I13
sS'WAR WORLD'
p92
I11
sS'DOLLARS FIFTY'
p93
I11
sS'EVERY KIND'
p94
I11
sS'LAST UNDER'
p95
I11
sS'BILLION DEFICIT'
p96
I11
sS'CASE SAME'
p97
I15
sS'GOVERNMENT ITS'
p98
I13
sS'DEFENSE J.'
p99
I11
sS'R. WHITE'
p100
I14
sS'DOLLARS PERCENT'
p101
I19
sS'GRAND WITNESSES'
p102
I11
sS"CALLS WE'LL"
p103
I12
sS'HAITI UNITED'
p104
I13
sS'JOHNSON PROGRAM'
p105
I16
sS'SIX THOUSAND'
p106
I16
sS'SALES TAX'
p107
I12
sS'R. T.'
p108
I17
sS'GOVERNMENT VIOLENCE'
p109
I11
sS'COST DOLLARS'
p110
I13
sS'JURY WITNESSES'
p111
I11
sS'COST HEALTH'
p112
I11
sS'T. TREASURY'
p113
I11
sS'A. I.'
p114
I12
sS'PERCENT YIELD'
p115
I11
sS'GENERAL SECRETARY'
p116
I12
sS'DEMOCRATS SENATE'
p117
I12
sS'AIDS HEALTH'
p118
I11
sS'FOODS PUT'
p119
I20
sS'T. TRADE'
p120
I13
sS'BILL WEEK'
p121
I12
sS'SEVEN SIX'
p122
I25
sS'BEST PUT'
p123
I14
sS'BEST MARKET'
p124
I12
sS'DEFENSE PROSECUTION'
p125
I15
sS'CARE NEED'
p126
I15
sS'T. V.'
p127
I12
sS'CONTROL FOODS'
p128
I16
sS'LET QUESTION'
p129
I18
sS'NEED TAX'
p130
I15
sS'THIRTY TWENTY'
p131
I12
sS'COMMITTEE SENATE'
p132
I17
sS'DAY STILL'
p133
I11
sS'MARKET MONEY'
p134
I12
sS'QUESTIONS WHETHER'
p135
I12
sS'ACCEPT POST'
p136
I19
sS'COUNTRY STATES'
p137
I16
sS'CONTROL MOUTH'
p138
I12
sS'DAY FEEL'
p139
I11
sS'COUNTRY STILL'
p140
I11
sS'MOUTH PUT'
p141
I12
sS'BILL SENATE'
p142
I14
sS'BEFORE WHITE'
p143
I11
sS'CONTROL PUT'
p144
I16
sS'TREASURY WHITE'
p145
I17
sS'BETWEEN FORTY'
p146
I12
sS'AVERAGE PERCENT'
p147
I12
sS'COMMITTEE SUB'
p148
I14
sS'TAX VAT'
p149
I13
sS'BULLETS J.'
p150
I11
sS'CARE HEALTH'
p151
I27
sS'COUNTRY HEALTH'
p152
I12
sS'GRAND INVESTIGATION'
p153
I13
sS'INCOME PERCENT'
p154
I11
sS'SIX TWENTY'
p155
I11
sS'DOCTOR UNDER'
p156
I11
sS'QUESTION WHETHER'
p157
I17
sS'EIGHT THOUSAND'
p158
I14
sS'DOLLARS TAX'
p159
I20
sS'CAME WENT'
p160
I11
sS'INVOLVED UNITED'
p161
I12
sS'GOVERNMENT PLAN'
p162
I12
sS'CARE TAX'
p163
I20
sS'DIET PUT'
p164
I12
sS'PERCENT TAX'
p165
I14
sS'ARMED ROBBERY'
p166
I12
sS'MADE THING'
p167
I11
sS'ASK QUESTION'
p168
I11
sS'FOODS PROPER'
p169
I11
sS'BILLION TRADE'
p170
I12
sS'SCHOOL STATE'
p171
I11
sS'AMERICAN UNITED'
p172
I12
sS'PERCENT SIX'
p173
I21
sS"CALL LET'S"
p174
I20
sS'EVERY HEALTH'
p175
I12
sS'FOSTER GREGORY'
p176
I12
sS'AIDS UNITED'
p177
I13
sS'DOLLARS PAY'
p178
I11
sS'CONTROL PROPER'
p179
I12
sS'SENATE SENATOR'
p180
I21
sS'POST WASHINGTON'
p181
I21
sS'COUNTRY LAST'
p182
I11
sS'BETWEEN WHITE'
p183
I16
sS'DEFENSE GRAND'
p184
I23
sS'PACKAGE TAX'
p185
I13
sS'STATES UNITED'
p186
I25
sS'NINETY PERCENT'
p187
I25
sS'NEED SYSTEM'
p188
I14
sS'WHETHER WHITE'
p189
I12
sS'BILLION TAX'
p190
I13
sS'BODY CONTROL'
p191
I13
sS"HEALTH WOMEN'S"
p192
I11
sS'MADE NUMBER'
p193
I12
sS'NEED THEMSELVES'
p194
I12
sS'COURT RIGHTS'
p195
I11
sS'INVOLVED STATES'
p196
I13
sS'FOODS MOUTH'
p197
I13
sS'BEST GIVE'
p198
I13
sS'NEED PROGRAM'
p199
I12
sS'FUNDS PERCENT'
p200
I24
sS'SOMALIA TROOPS'
p201
I13
sS'BOSNIAN PEACE'
p202
I11
sS'GIVE MARKET'
p203
I13
sS'ACCEPT WASHINGTON'
p204
I23
sS'CHAIRMAN COMMITTEE'
p205
I38
sS'THROUGH WHITE'
p206
I12
sS'ROBBERY TWENTY'
p207
I13
sS'HEALTH TAX'
p208
I21
sS'B. I.'
p209
I12
sS'AGAIN NEVER'
p210
I11
sS'TAX TRYING'
p211
I12
sS'GROWING PERCENT'
p212
I18
sS'FACT PROBLEM'
p213
I11
sS'CARE COUNTRY'
p214
I12
sS'FIFTEEN TWENTY'
p215
I11
sS'CASE COURT'
p216
I32
sS'BEFORE NEED'
p217
I11
sS'DAY LOOK'
p218
I12
sS'JURY TRIAL'
p219
I17
sS'NICOLE O.'
p220
I14
sS'DAY TELL'
p221
I11
sS'UNITED WORLD'
p222
I13
sS'PARTY REPUBLICAN'
p223
I13
sS'GREGORY PARENTS'
p224
I13
sS'NEIGHBORHOODS PREDOMINANTLY'
p225
I14
sS'THOUSAND UNITED'
p226
I12
sS'CONGRESS HEALTH'
p227
I11
sS'GRAND JURY'
p228
I26
sS'NUSSBAUM WHITE'
p229
I11
sS'NINE SIX'
p230
I16
sS'AMERICAN BIG'
p231
I12
sS'DOLLARS MILLION'
p232
I26
sS'GOVERNMENT HEALTH'
p233
I12
sS'TALK WENT'
p234
I12
sS'CALLS PHONE'
p235
I16
sS'PEACE UNITED'
p236
I13
sS'R. TREASURY'
p237
I12
sS'BUILT FORTY'
p238
I11
sS'A. R.'
p239
I13
sS'ISSUES NEED'
p240
I17
sS'ALREADY TAX'
p241
I13
sS'DAY WHITE'
p242
I12
sS'STATES WHETHER'
p243
I11
sS'CHILD PARENTS'
p244
I16
sS'AVERAGE SIX'
p245
I17
sS'NUMBER TWENTY'
p246
I16
sS"PHONE WE'LL"
p247
I11
sS'CANCER RISK'
p248
I12
sS'COUNTRY UNITED'
p249
I13
sS'CARE M.'
p250
I11
sS'ITS WASHINGTON'
p251
I13
sS'DOLLARS THOUSAND'
p252
I26
sS'CASE JURY'
p253
I18
sS'NINETY THOUSAND'
p254
I12
sS'CASE FACT'
p255
I11
sS'PROGRAM SYSTEM'
p256
I11
sS'SCHOOL SCHOOLS'
p257
I15
sS'CASE UNDER'
p258
I11
sS'CARE PUT'
p259
I12
sS'INVESTIGATION WHITE'
p260
I14
sS'COMMITTEE SENATOR'
p261
I16
sS'INTERNATIONAL UNITED'
p262
I11
sS'A. B.'
p263
I12
sS'CASE NEED'
p264
I14
sS'SCHOOL STUDENTS'
p265
I16
sS'HEALTH SYSTEM'
p266
I11
sS'DEFENSE O.'
p267
I11
sS'LOOKING WHETHER'
p268
I12
sS'PERCENT SEVEN'
p269
I17
sS'MEN WOMEN'
p270
I24
sS'BETWEEN NORTH'
p271
I12
sS'ISSUE QUESTION'
p272
I12
sS"NEXT WE'LL"
p273
I11
sS'GIVE PUT'
p274
I12
sS'PERCENT TWENTY'
p275
I17
sS'TAX TAXES'
p276
I21
sS'DOLLARS TWENTY'
p277
I15
sS'TAXES VAT'
p278
I13
sS'DOLLARS THIRTY'
p279
I18
sS'MONEY TAX'
p280
I12
sS'BODY PUT'
p281
I15
sS'HEALTH NEED'
p282
I21
sS'CARE CONGRESS'
p283
I11
sS'LAST OLD'
p284
I12
sS'CHANGE NEED'
p285
I17
sS'PROPER PUT'
p286
I14
sS'INTEREST MARKET'
p287
I12
sS'HEALTH PROGRAM'
p288
I12
sS'ACCUSATIONS FALSE'
p289
I15
sS'FIFTY THOUSAND'
p290
I13
sS'PUT WHETHER'
p291
I13
sS'MARKET PERCENT'
p292
I14
s.