(lp0
F0.0
aF0.005847953216374269
aF0.0
aF0.005390835579514825
aF0.010714285714285714
aF0.001869158878504673
aF0.0
aF0.0013020833333333333
aF0.0
aF0.0036231884057971015
aF0.012589928057553957
aF0.004914004914004914
aF0.001348314606741573
aF0.005817711700064641
aF0.0
aF0.005215123859191656
aF0.0
aF0.003286770747740345
aF0.004637358560563903
aF0.003538928210313448
aF0.0061162079510703364
aF0.010723860589812333
aF0.0015568240788790867
aF0.00675422138836773
aF0.0
aF0.0023273855702094647
aF0.00875
aF0.0022026431718061676
aF0.004347826086956522
aF0.0
aF0.011904761904761904
aF0.0
aF0.047619047619047616
aF0.006845052893590542
aF0.004640371229698376
aF0.010714285714285714
aF0.0189328743545611
aF0.013574660633484163
aF0.015254237288135594
aF0.005983048030580023
aF0.0
aF0.002857596443879981
aF0.003210048848569435
aF0.0032976092333058533
aF0.0019047619047619048
aF0.00816326530612245
aF0.006083650190114068
aF0.0
aF0.006259780907668232
aF0.0026455026455026454
aF0.0
aF0.0
aF0.007005899705014749
aF0.01092896174863388
aF0.004347826086956522
aF0.014903403863845446
aF0.013781223083548665
aF0.005994005994005994
aF0.0021152829190904283
aF0.015671325709445152
aF0.0020174848688634837
aF0.002793296089385475
aF0.003992015968063872
aF0.0
aF0.008147745790331342
aF0.0
aF0.012690355329949238
aF0.006115107913669065
aF0.0
aF0.003854625550660793
aF0.0
aF0.0063532401524777635
aF0.015228426395939087
aF0.0077544426494345715
aF0.004176157934700076
aI0
aF0.018363939899833055
aF0.0030013642564802184
aF0.0
aF0.0
aF0.005775401069518717
aF0.005013270421704512
aF0.016166281755196306
aF0.006245662734212352
aF0.007847720821506095
aF0.0
aF0.010603588907014683
aF0.004608294930875576
aF0.0013812154696132596
aF0.0
aF0.0069124423963133645
aF0.0041293874741913286
aF0.0
aF0.00847457627118644
aF0.003436426116838488
aF0.008333333333333333
aF0.0
aF0.01958762886597938
aF0.007741935483870968
aF0.004
aF0.013157894736842105
aF0.006309148264984227
aF0.010086455331412104
aF0.003303964757709251
aF0.0
aF0.0
aF0.0028620492272467086
aF0.00927357032457496
aF0.014251781472684086
aF0.0
aF0.0
aF0.0
aF0.0
aF0.004217185028993147
aF0.018162393162393164
aF0.005357142857142857
aF0.0
aF0.0045662100456621
aF0.0
aF0.00808080808080808
aF0.007220216606498195
aF0.005681818181818182
aF0.008111239860950173
aF0.0
aF0.0
aF0.007263922518159807
aF0.005509641873278237
aF0.002221235006663705
aF0.0029411764705882353
aF0.0033519553072625698
aF0.002704791344667697
aF0.0
aF0.0031007751937984496
aF0.0024650780608052587
aF0.0
aF0.014056224899598393
aF0.011733333333333333
aF0.004038364462392731
aF0.047619047619047616
aF0.0034299968818210166
aF0.0
aF0.003246753246753247
aF0.006930407161420733
aF0.0029651593773165306
aF0.0036855036855036856
aF0.004427577482605946
aF0.0
aF0.0033085194375516956
aF0.005235602094240838
aF0.0
aF0.0
aF0.0
aF0.006072874493927126
aF0.0
aF0.0050335570469798654
aF0.006701771182383916
aF0.006289308176100629
aF0.0
aF0.005123825789923143
aF0.00645682001614205
aF0.004228329809725159
aF0.006818181818181818
aF0.0
aF0.006581009088060169
aF0.008403361344537815
aF0.0
aF0.03333333333333333
aF0.005405405405405406
aF0.003857280617164899
aF0.007949561403508772
aF0.002183406113537118
aF0.001112842198976185
aF0.004975124378109453
aF0.004043126684636119
aF0.009615384615384616
aF0.0
aF0.006476683937823834
aF0.0
aF0.000744047619047619
aF0.0021344717182497333
aF0.008558558558558558
aF0.008356545961002786
aF0.0
aF0.05366492146596859
aF0.009560229445506692
aF0.022364217252396165
aF0.002014098690835851
aF0.009321401938851604
aF0.0
aF0.0
aF0.004942339373970346
aF0.009105304829770388
aF0.0
aF0.005159958720330237
aF0.015306122448979591
aF0.004160887656033287
aF0.0
aF0.004218040233614536
aF0.008532423208191127
aF0.0024449877750611247
aF0.0036275695284159614
aF0.0016051364365971107
aF0.0018315018315018315
aF0.007964161274265804
aF0.0023752969121140144
aF0.014492753623188406
aF0.007556675062972292
aF0.0
aF0.0
aF0.009368836291913214
aF0.0
aF0.0034129692832764505
aF0.0038729666924864447
aF0.007978723404255319
aF0.011198208286674132
aF0.0024783147459727386
aF0.0
aF0.019417475728155338
aF0.0007092198581560284
aF0.0
aF0.0
aF0.004553215708594195
aF0.018272425249169437
aF0.010551948051948052
aF0.0028169014084507044
aF0.004149377593360996
aF0.003938946331856229
aF0.0037735849056603774
aF0.0
aF0.0
aF0.0
aF0.006760019314340898
aF0.00792283844299001
aF0.006861682918020947
aI0
aF0.0027447392497712718
aF0.007380073800738007
aF0.008333333333333333
aF0.005594405594405594
aF0.004788507581803671
aF0.0036496350364963502
aF0.00202020202020202
aF0.00410958904109589
aF0.0038022813688212928
aI0
aF0.0027247956403269754
aF0.005118362124120281
aF0.0
aF0.00725689404934688
aF0.005681818181818182
aF0.0
aF0.0
aF0.014532243415077202
aF0.011764705882352941
aF0.017651296829971182
aF0.01221001221001221
aF0.007692307692307693
aF0.00823529411764706
aF0.003162333099086437
aF0.00375234521575985
aF0.003543307086614173
aF0.0
aF0.0034403669724770644
aI0
aF0.014270032930845226
aF0.0
aF0.0
aF0.010318142734307825
aF0.0
aF0.01171875
aF0.0
aF0.0
aF0.0
aF0.0020639834881320948
aF0.0007163323782234957
aF0.0
aF0.0
aF0.0025884383088869713
aF0.002386634844868735
aF0.0
aF0.0
aF0.0
aF0.0
aF0.008383233532934131
aF0.008960573476702509
aF0.0
aF0.00784313725490196
aF0.0
aF0.006998444790046656
aF0.005772005772005772
aF0.005333333333333333
aF0.001990049751243781
aF0.0
aF0.0
aF0.001937984496124031
aF0.003795066413662239
aF0.011684518013631937
aF0.009083402146985962
aF0.00547645125958379
aF0.007381258023106547
aF0.020833333333333332
aF0.01282051282051282
aF0.0056808688387635755
aF0.0038314176245210726
aI0
aF0.006172839506172839
aF0.0
aF0.0049504950495049506
aF0.0030508474576271187
aF0.002770083102493075
aF0.0
aF0.0
aF0.0029154518950437317
aF0.0
aF0.0
aF0.0
aF0.0029940119760479044
aF0.01
aF0.0
aF0.004784688995215311
aF0.006956521739130435
aF0.0
aF0.006338371526084837
aF0.0
aF0.0
aF0.006211180124223602
aF0.0020855057351407717
aF0.003155680224403927
aF0.006750241080038573
aF0.0
aF0.01606425702811245
aF0.0
aF0.0
aF0.005410279531109108
aF0.00676818950930626
aF0.0
aF0.0
aF0.0
aF0.006644518272425249
aF0.013398294762484775
aF0.0
aF0.0
aF0.0019071837253655435
aF0.006800793425899688
aF0.0110803324099723
aF0.002789400278940028
aF0.003805899143672693
aF0.005897617362585515
aF0.0
aF0.0
aF0.0
aF0.0049800796812749
aF0.003372681281618887
aF0.004940304652120214
aF0.0
aF0.0
aF0.004440497335701598
aF0.0067857142857142855
aF0.0014265335235378032
aF0.0
aF0.0196078431372549
aF0.0054811205846528625
aF0.012547051442910916
aI0
aF0.00697350069735007
aF0.00891089108910891
aF0.01569506726457399
aF0.005952380952380952
aF0.00267379679144385
aF0.015258215962441314
aF0.00792910447761194
aF0.003938946331856229
aF0.01768172888015717
aF0.01098901098901099
aF0.017543859649122806
aF0.015657620041753653
aF0.025
aF0.006591337099811676
aF0.004434589800443459
aF0.0
aF0.002785515320334262
aF0.0
aF0.0
aF0.003965107057890563
aF0.003513394817742644
aF0.015560165975103735
aF0.008948545861297539
aF0.003869969040247678
aF0.0
aF0.004629629629629629
aF0.0029473684210526317
aF0.005897219882055603
aF0.0036496350364963502
aF0.0025789813023855577
aF0.009318837364100288
aF0.0058772311710927295
aF0.0024875621890547263
aF0.03571428571428571
aF0.03633217993079585
aF0.009449694274596998
aF0.001968503937007874
aF0.0
aF0.005574912891986063
aF0.0
aF0.0
aF0.0030303030303030303
aF0.0
aF0.0
aF0.0
aF0.007832898172323759
aF0.012363636363636363
aF0.014201183431952662
aF0.005479452054794521
aF0.011752136752136752
aF0.007457121551081283
aF0.0030816640986132513
aF0.0012285012285012285
aF0.016474464579901153
aF0.0
aF0.0
aF0.0
aF0.0
aF0.0016433853738701725
aF0.006504621704895584
aF0.003972758229284903
aF0.0083986562150056
aF0.0
aF0.002717391304347826
aF0.0034527406128614588
aF0.0
aF0.0
aF0.0075046904315197
aF0.023076923076923078
aF0.013445378151260505
aF0.03571428571428571
aF0.009394964299135663
aF0.0
aF0.002967359050445104
aF0.006029285099052541
aF0.04
aF0.022488755622188907
aF0.017867435158501442
aF0.009523809523809525
aF0.006493506493506494
aF0.005952380952380952
aF0.009009009009009009
aF0.0029702970297029703
aF0.002027027027027027
aF0.013445378151260505
aF0.0013477088948787063
aF0.013000520020800831
aF0.004523026315789474
aF0.0027563395810363835
aF0.0
aF0.008564087924636025
aF0.0
aF0.0
aF0.0
aF0.007032348804500703
aF0.007142857142857143
aF0.003076923076923077
aF0.0
aF0.02034587995930824
aF0.024716786817713696
aF0.015341701534170154
aF0.013138686131386862
aF0.0
aF0.0
aF0.0021231422505307855
aF0.0
aF0.009297520661157025
aF0.006153846153846154
aF0.0
aF0.0
aF0.010842368640533779
aF0.007643884892086331
aF0.0
aF0.0
aI0
aF0.006748709805478364
aF0.0055658627087198514
aF0.0028694404591104736
aF0.012237762237762238
aF0.007518796992481203
aF0.011474713132171696
aF0.006362672322375398
aF0.006661732050333087
aF0.0007763975155279503
aF0.0033112582781456954
aF0.011029411764705883
aF0.005010737294201861
aF0.0011904761904761906
aF0.008849557522123894
aF0.0
aF0.004106009705113848
aF0.002313030069390902
aF0.009950248756218905
aF0.0
aF0.000578368999421631
aF0.008356545961002786
aF0.0024937655860349127
aF0.0077777777777777776
aF0.0024479804161566705
aF0.0
aF0.006875214850464077
aF0.010012515644555695
aF0.003367003367003367
aF0.005914243469689502
aF0.006543723973825104
aF0.007205950720595072
aF0.003816793893129771
aF0.0039447731755424065
aF0.006010252784161216
aF0.0055248618784530384
aF0.0045351473922902496
aF0.00847457627118644
aF0.0
aF0.006968641114982578
aF0.0
aF0.004332755632582322
aF0.0
aF0.008177570093457943
aF0.005835764902042517
aF0.022058823529411766
aF0.0
aF0.0
aF0.005263157894736842
aF0.0
aF0.008333333333333333
aF0.008472100496640374
aF0.006076388888888889
aF0.01694915254237288
aF0.006114130434782609
aF0.010086027884900622
aF0.0
aF0.007352941176470588
aF0.01125
aF0.0
aF0.006377288623739971
aF0.0019138755980861245
aF0.003913894324853229
aF0.00484027105517909
aF0.0
aF0.0
aF0.0
aF0.0
aF0.0
aF0.006554307116104869
aF0.005706134094151213
aF0.0017605633802816902
aF0.0
aF0.0076103500761035
aF0.010819165378670788
aF0.0
aF0.005000893016610109
aF0.01092896174863388
aF0.0038498556304138597
aF0.0
aF0.009425728748472683
aF0.0017761989342806395
aF0.0
aF0.0
aF0.004662004662004662
aF0.012096774193548387
aF0.008547008547008548
aF0.0
aF0.0009861932938856016
aF0.0
aF0.00730554361839278
aF0.0037220843672456576
aF0.00501964207769533
aF0.013245033112582781
aF0.005528043303005874
aF0.0009285051067780873
aF0.03125
aF0.0037593984962406013
aF0.006578947368421052
aF0.0
aF0.0055248618784530384
aF0.0
aF0.0
aF0.0098159509202454
aF0.016225448334756618
aF0.0029781601588352085
aF0.00046446818392940084
aF0.01932367149758454
aF0.0
aF0.0014749262536873156
aF0.0
aF0.0
aF0.002544529262086514
aF0.006128702757916241
aF0.0
aF0.006514657980456026
aF0.02486678507992895
aF0.014300050175614651
aF0.0037174721189591076
aF0.006968641114982578
aF0.0038893690579083835
aF0.002127659574468085
aF0.0070052539404553416
aF0.0045223289994347085
aF0.007861635220125786
aF0.004761904761904762
aF0.0008285004142502071
aF0.0006793478260869565
aF0.0008064516129032258
aF0.002336448598130841
aF0.0016750418760469012
aF0.004826254826254826
aF0.0055658627087198514
aF0.0
aF0.00727768933363657
aF0.002290950744558992
aF0.00883912787271656
aF0.00586132952108649
aF0.0027472527472527475
aF0.011695906432748537
aF0.008613264427217916
aF0.006853582554517134
aF0.0
aF0.020713463751438434
aF0.011844331641285956
aF0.010615711252653927
aF0.002554278416347382
aF0.0037735849056603774
aF0.005893909626719057
aF0.0024096385542168677
aF0.0
aF0.0
aF0.00390625
aF0.0
aF0.0
aF0.0
aF0.005240373661426293
aF0.0050200803212851405
aF0.0
aF0.0018867924528301887
aF0.010983263598326359
aF0.03333333333333333
aF0.004789599726308587
aF0.006289308176100629
aF0.0
aF0.0
aF0.0
aF0.0
aF0.0
aF0.0
aF0.0
aF0.014227642276422764
aF0.0
aF0.0037285607755406414
aF0.011721611721611722
aF0.0
aF0.012610340479192938
aF0.011235955056179775
aF0.0041274936941068565
aF0.0022522522522522522
aF0.009387078961899503
aF0.005208333333333333
aF0.0032025620496397116
aF0.006184586108468126
aF0.00314070351758794
aF0.013783597518952447
aF0.0
aF0.008027522935779817
aF0.0
aF0.0
aF0.003428927680798005
aF0.0024691358024691358
aF0.01273639521420301
aF0.0024330900243309003
aF0.002173913043478261
aF0.0
aF0.0
aF0.0
aF0.0
aF0.0
aF0.002740977615349475
aF0.003009027081243731
aF0.006578947368421052
aF0.00749063670411985
aF0.0
aF0.004830917874396135
aF0.00455005055611729
aF0.002972651605231867
aF0.0
aF0.0
aF0.0
aF0.0045045045045045045
aF0.00477516912057302
aF0.010334137099552188
aF0.0
aF0.013392857142857142
aF0.005785491766800178
aF0.0
aF0.015957446808510637
aF0.0070202808112324495
aF0.004889975550122249
aF0.00850546780072904
aF0.0
aF0.015184381778741865
aF0.003316749585406302
aF0.002680965147453083
aF0.006153846153846154
aF0.0
aF0.005847953216374269
aF0.0
aF0.0
aF0.010050251256281407
aF0.006701414743112435
aF0.016
aF0.01011804384485666
aF0.009602194787379973
aF0.01800327332242226
aF0.014492753623188406
aF0.017326732673267328
aF0.004250797024442083
aF0.0
aF0.0
aF0.006535947712418301
aF0.0
aF0.014198782961460446
aF0.0
aF0.007698887938408896
aF0.01951951951951952
aF0.01282051282051282
aF0.009569377990430622
aF0.001692047377326565
aF0.0030581039755351682
aF0.0
aF0.0
aF0.007371007371007371
aF0.0
aF0.0
aF0.007892659826361484
aF0.013245033112582781
aF0.013505578391074574
aF0.0017301038062283738
aF0.0
aF0.0
aF0.0
aF0.0
aF0.0033003300330033004
aF0.0
aF0.004911591355599214
aF0.0
aF0.013846153846153847
aF0.01610305958132045
aF0.0
aF0.01624815361890694
aF0.0038338658146964857
aF0.007590132827324478
aF0.00872093023255814
aF0.0037593984962406013
aF0.016643550624133148
aF0.0039100684261974585
aF0.008849557522123894
aF0.007564296520423601
aF0.013546202225447508
aF0.026726057906458798
aF0.0
aF0.0
aF0.004755434782608696
aF0.002688172043010753
aF0.0
aF0.0
aF0.0
aF0.009823182711198428
aF0.005830009205277692
aF0.008908685968819599
aF0.0
aF0.0
aF0.0
aF0.008356545961002786
aF0.0070921985815602835
aF0.0
aF0.0059931506849315065
aF0.0
aF0.0
aF0.005260081823495032
aF0.0026845637583892616
aF0.0
aF0.006026516673362796
aF0.0031380753138075313
aF0.003756574004507889
aF0.0040551500405515
aF0.0028129395218002813
aF0.0015822784810126582
aF0.007782101167315175
aF0.015625
aF0.008928571428571428
aF0.0
aI0
aF0.008143322475570033
aF0.00425531914893617
aF0.006493506493506494
aF0.0
aF0.004496908375491849
aF0.0
aI0
aF0.0062473071951744934
aF0.0
aF0.004311774461028192
aF0.005952380952380952
aF0.015105740181268883
aF0.011185682326621925
aF0.019613759806879905
aF0.009146341463414634
aF0.0035502958579881655
aF0.011111111111111112
aF0.019543973941368076
aF0.004357298474945534
aF0.005291005291005291
aF0.01282051282051282
aF0.005984316962443252
aF0.0
aI0
aF0.007518796992481203
aF0.004189944134078212
aF0.0
aF0.0
aF0.007255936675461741
aF0.0
aF0.006589785831960461
aF0.0
aF0.0
aF0.003676470588235294
aF0.0
aF0.0007451564828614009
aF0.015957446808510637
aF0.0
aF0.0030120481927710845
aF0.003485424588086185
aF0.00980392156862745
aF0.006443694384780607
aF0.005564387917329093
aF0.007751937984496124
aF0.02038295243977764
aF0.008894536213468869
aI0
aF0.0
aF0.0
aF0.0
aF0.003047851264858275
aF0.00946969696969697
aF0.004672897196261682
aF0.0
aF0.0027068832173240526
aF0.006050129645635264
aF0.0015372790161414297
aF0.005794701986754967
aF0.0
aF0.01762114537444934
aF0.0
aF0.0
aF0.0
aF0.005
aF0.012440191387559809
aF0.010717230008244023
aF0.0
aF0.007129455909943715
aF0.0
aF0.0079155672823219
aF0.004801920768307323
aF0.005260081823495032
aF0.012195121951219513
aF0.0
aF0.001454998960715028
aF0.024745269286754003
aF0.011527377521613832
aF0.0
aF0.0033806626098715348
aF0.0011655011655011655
aF0.002336448598130841
aF0.0023752969121140144
aF0.011260053619302948
aF0.011650485436893204
aF0.0
aF0.0025906735751295338
aF0.00228310502283105
aF0.009509875640087784
aF0.0
aF0.00646551724137931
aF0.0
aF0.005235602094240838
aF0.001422475106685633
aF0.0
aF0.012992455993294216
aF0.005672609400324149
aF0.0019267822736030828
aF0.0
aF0.007149666348903718
aF0.019230769230769232
aF0.001841620626151013
aF0.010897110998479472
aF0.007311827956989247
aF0.00041152263374485596
aF0.0031007751937984496
aF0.02564102564102564
aF0.0
aF0.01282051282051282
aF0.0
aF0.010217681030653044
aF0.006734006734006734
aF0.0
aF0.0010095911155981827
aF0.0
aF0.004625346901017576
aF0.007611798287345386
aF0.006666666666666667
aF0.0
aF0.0
aF0.0
aF0.006925550333910463
aF0.006993006993006993
aF0.0
aF0.0
aF0.007125890736342043
aF0.003703703703703704
aF0.011065006915629323
aF0.0
aF0.0
aF0.0
aF0.008111239860950173
aF0.0036231884057971015
aF0.0
aF0.006622516556291391
aF0.0
aF0.0
aF0.003676470588235294
aF0.004672897196261682
aF0.004796163069544364
aF0.00186219739292365
aF0.005014625992478061
aF0.0009541984732824427
aF0.0035413899955732625
aF0.0
aF0.009630818619582664
aF0.0
aF0.0
aF0.0
aF0.0
aF0.007741935483870968
aF0.008733624454148471
aF0.007744733581164808
aF0.0021199273167777106
aF0.0
aF0.008528784648187633
aF0.02506265664160401
aF0.007518796992481203
aF0.006313131313131313
aF0.0
aF0.0
aF0.005946481665014866
aF0.010291090855630698
aF0.010895883777239709
aF0.005714285714285714
aF0.01818181818181818
aF0.004206730769230769
aF0.0
aF0.0
aF0.001597444089456869
aF0.0
aF0.0
aF0.014414414414414415
aF0.008695652173913044
aF0.0011632415664986429
aF0.0019120458891013384
aF0.006779661016949152
aF0.005
aF0.0
aF0.0
aF0.0053533190578158455
aF0.009572431397574984
aF0.008112493239588967
aF0.0
aI0
aF0.0
aF0.0012787723785166241
aF0.0
aF0.007017543859649123
aF0.0012791813239526704
aF0.0023094688221709007
aF0.0
aF0.002854006586169045
aF0.0
aF0.0
aF0.005069187559939718
aF0.005045045045045045
aF0.008908685968819599
aF0.0
aF0.008957654723127036
aF0.009938837920489297
aF0.0022371364653243847
aF0.005747126436781609
aF0.0
aF0.0
aF0.0
aF0.006201375577855451
aF0.004672897196261682
aF0.0
aF0.0
aF0.002898550724637681
aF0.0
aF0.016885553470919325
aF0.008333333333333333
aF0.007866273352999017
aF0.0
aF0.0
aF0.0
aF0.0
aF0.0
aF0.005809128630705394
aF0.007713498622589532
aF0.0
aF0.0125
aF0.010194268128486247
aF0.005208333333333333
aF0.004845322400298174
aF0.0016625103906899418
aF0.0
aF0.009382623381497467
aF0.002018842530282638
aF0.0
aF0.0
aF0.0035211267605633804
aF0.0
aF0.0031645569620253164
aF0.007109995817649519
aF0.0
aF0.0015748031496062992
aF0.0
aF0.0
aF0.0
aF0.0
aF0.0014807502467917078
aF0.009505703422053232
aF0.004410143329658214
aF0.004761904761904762
aF0.0
aF0.006365159128978224
aF0.004123711340206186
aF0.0
aF0.009615384615384616
aF0.0076824583866837385
aF0.0020755500207555004
aF0.00819672131147541
aF0.0
aF0.0050335570469798654
aF0.0046282011724776305
aF0.0053475935828877
aF0.0
aF0.0
aF0.0
aF0.002244668911335578
aF0.004372267332916927
aF0.001358695652173913
aF0.00535077288941736
aF0.004795814561836942
aF0.00353045013239188
aF0.0009569377990430622
aF0.01098901098901099
aF0.0
aF0.0014245014245014246
aF0.00539568345323741
aF0.00949367088607595
aF0.007784625364904314
aF0.0
aI0
aF0.001367053998632946
aF0.004013133892739876
aF0.0
aF0.0
aF0.003257328990228013
aF0.011764705882352941
aF0.027777777777777776
aF0.007449856733524355
aF0.002028397565922921
aF0.004437869822485207
aF0.011199421965317919
aF0.0
aF0.0011402508551881414
aF0.0
aF0.0
aF0.0024271844660194173
aF0.0024752475247524753
aF0.0
aF0.008620689655172414
aF0.006439742410303588
aF0.0
aF0.002688172043010753
aF0.0
aF0.0031242489786109107
aF0.0016501650165016502
aF0.007601935038009675
aF0.0
aF0.00228310502283105
aF0.0036529680365296802
aF0.003568242640499554
aF0.0023937761819269898
aF0.0
aF0.0036101083032490976
aF0.00572475383558507
aF0.005342237061769616
aF0.0015037593984962407
aF0.0
aF0.0
aF0.00446677833612507
aF0.005110732538330494
aF0.00836489898989899
aF0.004662004662004662
aF0.0024509803921568627
aF0.015315315315315315
aF0.003455557688615857
aF0.009814612868047983
aF0.0031645569620253164
aF0.0
aF0.0
aF0.0016989466530750934
aF0.0033432392273402673
aF0.00720515737580584
aI0
aF0.007049345417925478
aF0.0023245002324500234
aF0.0060708263069139965
aF0.0
aF0.010501750291715286
aF0.003453038674033149
aF0.006622516556291391
aF0.006097560975609756
aF0.001838235294117647
aF0.003745318352059925
aF0.005789909015715467
aF0.0
aF0.00684931506849315
aF0.020833333333333332
aF0.01282051282051282
aF0.007180912670836229
aF0.005747126436781609
aF0.012987012987012988
aF0.008527427771414025
aF0.00390625
aF0.0015360983102918587
aF0.0
aF0.006741573033707865
aF0.004784688995215311
aF0.0064516129032258064
aF0.009825327510917031
aF0.010575793184488837
aF0.009523809523809525
aF0.009887005649717515
aF0.004699248120300752
aF0.009635974304068522
aF0.0035087719298245615
aF0.0
aF0.007738607050730868
aF0.00477326968973747
aF0.006793478260869565
aF0.0032258064516129032
aF0.0009970089730807576
aF0.0
aF0.0048814504881450485
aF0.001440922190201729
aF0.005738132498695879
aF0.0061162079510703364
aF0.007465568284206462
aF0.006751054852320675
aF0.0
aF0.006476879048049405
aF0.0
aF0.0
aF0.0
aF0.0058823529411764705
aF0.0
aF0.0
aF0.0
aF0.0
aF0.005256773150020219
aF0.005213924244747738
aF0.0
aF0.0
aF0.0
aF0.0
aF0.0
aF0.0046430644225188625
aF0.0
aF0.0
aF0.002336448598130841
aF0.0
aF0.0
aF0.003066857493355142
aF0.015151515151515152
aF0.002216592780240659
aF0.004858299595141701
aF0.0037283621837549932
aF0.0
aF0.0
aF0.011111111111111112
aF0.004658385093167702
aF0.0024875621890547263
aF0.007275132275132275
aF0.0074503311258278145
aF0.004347826086956522
aF0.0
aF0.0016806722689075631
aF0.0
aF0.0
aF0.011002444987775062
aF0.007457121551081283
aF0.0
aF0.0
aF0.009174311926605505
aF0.004688721021099245
aF0.002171552660152009
aF0.006437768240343348
aF0.0026455026455026454
aF0.0076824583866837385
aF0.008177570093457943
aF0.0
aF0.0
aF0.0
aF0.0
aI0
aF0.017582417582417582
aF0.0
aF0.004545454545454545
aF0.013824884792626729
aF0.007473841554559043
aF0.0
aF0.0033351862145636463
aF0.002585649644473174
aF0.02422145328719723
aF0.0
aF0.0022471910112359553
aF0.004257332071901609
aF0.004889975550122249
aF0.008443908323281062
aF0.004366812227074236
aF0.0
aF0.004405286343612335
aF0.00444609114486847
aF0.0
aF0.0
aF0.0
aF0.005420054200542005
aF0.008425145819831496
aF0.003703703703703704
aF0.007342143906020558
aF0.0036798528058877645
aF0.007252215954875101
aF0.0
aF0.0057306590257879654
aF0.0
aF0.0
aF0.0
aF0.004651162790697674
aF0.005266773528738264
aF0.019441069258809233
aF0.018421052631578946
aI0
aF0.0037174721189591076
aF0.006006006006006006
aF0.01088139281828074
aF0.002857142857142857
aF0.03125
aF0.0
aF0.004285714285714286
aF0.0064516129032258064
aF0.03571428571428571
aF0.0017667844522968198
aF0.0066518847006651885
aF0.0
aF0.001658374792703151
aF0.0
aF0.0
aF0.0074487895716946
aF0.0
aF0.0
aF0.0008896797153024911
aF0.005012531328320802
aF0.006172839506172839
aF0.006397952655150352
aF0.01005656819610308
aF0.00851900393184797
aF0.0031847133757961785
aF0.008670520231213872
aF0.006024096385542169
aF0.006774361646690985
aF0.016359918200409
aF0.0
aF0.011983471074380166
aF0.0
aF0.0073937153419593345
aF0.0
aF0.025
aF0.0
aF0.0
aF0.0
aF0.004366812227074236
aF0.0
aF0.004618937644341801
aF0.006578947368421052
aF0.0078125
aF0.0023054755043227667
aF0.016412661195779603
aF0.0
aF0.0
aF0.002126151665485471
aF0.0
aF0.014236410698878344
aF0.018648018648018648
aF0.0012330456226880395
aF0.0
aF0.0
aF0.007052600646488392
aF0.0
aF0.007374631268436578
aF0.009747979077508321
aF0.002828854314002829
aF0.005263157894736842
aF0.00864885642898328
aF0.008681925808997633
aF0.002717391304347826
aF0.008771929824561403
aF0.003579952267303103
aF0.0
aF0.005341002465078061
aF0.008925506350841057
aF0.0
aF0.004830917874396135
aF0.004366812227074236
aF0.0008438818565400844
aF0.013628620102214651
aF0.0
aF0.0
aF0.015625
aF0.011382658185470372
aF0.004914004914004914
aF0.0012126111560226355
aF0.0
aF0.005284015852047556
aF0.011695906432748537
aF0.018914473684210526
aF0.0
aF0.006224826071036251
aF0.0024353120243531205
aF0.0009569377990430622
aF0.0
aF0.023060796645702306
aF0.008416220351951033
aF0.0
aF0.0031364349189754314
aF0.011725293132328308
aF0.00196078431372549
aF0.0046627292508548334
aF0.0026985350809560524
aF0.0
aF0.001692047377326565
aF0.021032504780114723
aF0.0015873015873015873
aF0.005780346820809248
aF0.007569386038687973
aF0.018315018315018316
aF0.008547008547008548
aF0.005923000987166831
aF0.0
aF0.0033222591362126247
aF0.0071154898741105635
aF0.011310084825636193
aF0.0
aF0.008648648648648649
aF0.0
aF0.005427408412483039
aF0.0
aF0.0036779730281977932
aF0.0020920502092050207
aF0.0
aF0.0
aF0.0013717421124828531
aF0.00461361014994233
aF0.007795582503248159
aF0.004920049200492005
aF0.0017331022530329288
aF0.00281214848143982
aF0.001996007984031936
aF0.0027624309392265192
aF0.01818181818181818
aF0.004287756074321105
aF0.007482394366197183
aF0.0032537960954446853
aF0.010486018641810918
aF0.007692307692307693
aF0.005319148936170213
aF0.000931098696461825
aF0.01678183613030602
aF0.0
aF0.01390728476821192
aF0.008281573498964804
aF0.0
aF0.004273504273504274
aF0.003552397868561279
aF0.012121212121212121
aF0.0
aF0.0
aF0.006687647521636507
aF0.0
aF0.010514018691588784
aF0.008754863813229572
aF0.004151674508718516
aF0.003816793893129771
aF0.013456090651558074
aF0.003522367030644593
aF0.005671641791044776
aF0.010256410256410256
aF0.0
aF0.0050933786078098476
aF0.001
aF0.0
aF0.0028653295128939827
aF0.008327994875080076
aF0.0
aF0.0
aF0.0013245033112582781
aF0.007042253521126761
aF0.0
aF0.004291845493562232
aF0.0
aF0.0
aF0.00452147701582517
aF0.0
aF0.002894356005788712
aF0.0
aF0.0021645021645021645
aF0.005240590757503573
aF0.005896805896805897
aF0.12244897959183673
aF0.0
aF0.028089887640449437
aF0.0
aF0.0
aF0.004267425320056899
aF0.007246376811594203
aF0.0
aF0.0022271714922048997
aF0.010251630941286114
aF0.0019569471624266144
aF0.004629629629629629
aF0.001606425702811245
aF0.012472487160674981
aF0.0
aF0.004219409282700422
aF0.00847457627118644
aF0.003044719314938154
aF0.0039001560062402497
aF0.012244897959183673
aF0.003372681281618887
aF0.005940594059405941
aF0.007040187738339689
aF0.0013711151736745886
aF0.0
aF0.0026367831245880024
aF0.008911274699728787
aF0.0036798528058877645
aF0.0
aF0.004293381037567084
aF0.0
aF0.006688963210702341
aF0.004120879120879121
aF0.0049515608180839615
aF0.007920792079207921
aF0.0036576444769568397
aF0.0
aF0.0
aF0.0019646365422396855
aF0.0
aF0.0
aF0.0041841004184100415
aF0.006647502694933525
aF0.0
aF0.0
aF0.004191773644223212
aF0.005813953488372093
aF0.005681818181818182
aF0.012295081967213115
aF0.004702194357366771
aF0.0
aF0.0
aF0.0
aF0.0016835016835016834
aF0.014191106906338695
aF0.0
aF0.0
aF0.0
aF0.007692307692307693
aF0.012730465320456541
aF0.0011337868480725624
aF0.007870572802798426
aF0.004790419161676647
aF0.011031797534068787
aF0.004694835680751174
aF0.01644736842105263
aF0.0070921985815602835
aF0.0013003901170351106
aF0.029334730225248823
aF0.0
aF0.002777777777777778
aF0.01272264631043257
aF0.0019815059445178335
aF0.002656748140276302
aF0.006975789905621666
aF0.011359333585762969
aF0.010214007782101167
aF0.0031109574835810577
aF0.005685856432125089
aF0.0031446540880503146
aF0.0026616564897447943
aF0.009708737864077669
aF0.003234501347708895
aF0.005324298160696999
aF0.01606805293005671
aF0.0
aF0.0068846815834767644
aF0.00510204081632653
aF0.003931847968545216
aF0.004298764105319721
aF0.0005367686527106817
aF0.0
aF0.006711409395973154
aI0
aF0.005084745762711864
aF0.0
aF0.0
aF0.005980861244019139
aF0.0011106997408367272
aF0.0010570824524312897
aF0.0
aF0.005185825410544511
aF0.009268292682926829
aF0.004311506332524926
aF0.0015515903801396431
aF0.0061643835616438354
aF0.0
aF0.010275732145915397
aF0.0
aF0.003833253473885961
aF0.0
aF0.0021438316117715845
aF0.004329004329004329
aF0.0
aF0.00897308075772682
aF0.007633587786259542
aF0.007702523240371846
aF0.0026929982046678637
aF0.0053475935828877
aF0.0
aF0.006640625
aF0.005780346820809248
aF0.006749156355455568
aF0.004076086956521739
aF0.0
aF0.003857280617164899
aF0.0
aF0.013333333333333334
aF0.012339331619537276
aF0.0171473109898675
aF0.006392045454545455
aF0.02159827213822894
aF0.0
aF0.0031446540880503146
aF0.011834319526627219
aF0.014198782961460446
aF0.006230529595015576
aF0.0011025358324145535
aF0.007318123116659492
aF0.0074673304293715
aF0.018518518518518517
aF0.006056018168054504
aF0.0
aF0.0
aF0.007285974499089253
aF0.004143426294820717
aF0.006971340046475601
aF0.0
aF0.005817782656421515
aF0.006394884092725819
aF0.0
aF0.0
aF0.0
aF0.0071301247771836
aF0.005970724191063174
aF0.0056625141562853904
aF0.0009569377990430622
aF0.0024752475247524753
aF0.001440922190201729
aF0.01002227171492205
aF0.0018796992481203006
aF0.0
aF0.0
aF0.008771929824561403
aF0.004204625087596356
aF0.0
aF0.0011862396204033216
aF0.0
aF0.007423117709437964
aF0.004330045706038008
aF0.004093198992443325
aF0.0015060240963855422
aF0.013824884792626729
aF0.0035335689045936395
aF0.009478672985781991
aF0.006091370558375634
aF0.0018679950186799503
aF0.0
aF0.008618681574656418
aF0.004267425320056899
aF0.0025020850708924102
aF0.005559968228752979
aF0.0
aF0.0033222591362126247
aF0.0038902538902538903
aF0.0
aF0.0035587188612099642
aF0.0033351862145636463
aF0.002508780732563974
aF0.0015174506828528073
aF0.004247286455875413
aF0.008228195282501372
aF0.005208333333333333
aF0.0036429872495446266
aF0.0059594755661501785
aF0.005836575875486381
aF0.0032119914346895075
aF0.0
aF0.014302741358760428
aF0.008097165991902834
aF0.002103049421661409
aF0.0
aF0.0
aF0.0031397174254317113
aF0.0003572704537334762
aF0.0
aF0.002043703820154064
aF0.0
aF0.003946329913180742
aF0.005128205128205128
aF0.0
aF0.0
aF0.012269938650306749
aF0.0
aF0.0076128330614464385
aF0.0
aF0.010416666666666666
aF0.007898894154818325
aF0.0
aF0.007033997655334115
aF0.0015432098765432098
aF0.0
aF0.001722158438576349
aF0.0054249547920434
aF0.005758157389635317
aF0.0
aF0.0074487895716946
aF0.010220125786163521
aF0.017391304347826087
aF0.0
aF0.009019426456984274
aF0.001366120218579235
aF0.005714285714285714
aF0.005535055350553505
aF0.0
aF0.003337704136369055
aF0.02027027027027027
aF0.019305019305019305
aF0.005692031156381066
aF0.0
aF0.001221001221001221
aF0.002197802197802198
aF0.0
aF0.005249343832020997
aF0.0
aF0.0
aF0.0
aF0.0
aI0
aF0.0
aF0.006868131868131868
aF0.008026440037771483
aF0.00967741935483871
aF0.007827788649706457
aF0.004980434009249377
aF0.0
aF0.005
aF0.005847953216374269
aF0.004060089321965083
aF0.008684034736138945
aF0.0009276437847866419
aF0.007113821138211382
aF0.0
aF0.006462035541195477
aF0.004197271773347324
aF0.011358024691358024
aF0.004454342984409799
aF0.0
aF0.0027502750275027505
aF0.006966434452184927
aF0.016091954022988506
aF0.011627906976744186
aF0.011661807580174927
aF0.004172461752433936
aF0.0
aF0.0
aF0.0031023784901758012
aF0.001658374792703151
aF0.020330368487928845
aF0.006878104700038212
aF0.001389854065323141
aF0.0
aF0.0
aF0.0
aF0.0
aF0.00819672131147541
aF0.0029411764705882353
aF0.00456968773800457
aF0.002380952380952381
aF0.004574042309891366
aF0.010948905109489052
aF0.0
aF0.0
aF0.0078125
aF0.0
aF0.0026827632461435278
aF0.002840909090909091
aF0.016025641025641024
aF0.0033333333333333335
aF0.004233148811462064
aF0.010638297872340425
aF0.0
aF0.0
aF0.007819287576020852
aF0.008655126498002663
aF0.005051922537187763
aF0.005165289256198347
aF0.006147540983606557
aF0.0
aF0.0
aF0.008205128205128205
aF0.006792452830188679
aF0.0
aF0.004581901489117984
aF0.004651162790697674
aF0.003973509933774834
aF0.0
aF0.0
aF0.0
aF0.0
aF0.0
aF0.0
aF0.0050230221850146506
aF0.0
aF0.0
aF0.0
aF0.018619934282584884
aF0.0
aF0.0027522935779816515
aF0.0
aF0.005703422053231939
aF0.0046570702794242165
aF0.010676156583629894
aF0.0
aF0.0
aF0.0
aF0.0
aF0.0
aF0.0
aF0.005190311418685121
aF0.0
aF0.002697841726618705
aF0.006186006825938567
aF0.002284527518172378
aF0.008362369337979094
aF0.0
aF0.008178438661710037
aF0.004098360655737705
aF0.007294679914476167
aF0.004262574595055414
aF0.007189829022358615
aF0.005657708628005658
aF0.0
aF0.0028517110266159697
aF0.006114961271911945
aF0.015350877192982455
aF0.019736842105263157
aF0.0
aF0.004764425622022234
aF0.0
aF0.013686911890504704
aF0.004166666666666667
aF0.0
aF0.0
aF0.0
aF0.0
aF0.0
aF0.0
aF0.0
aF0.014139827179890024
aF0.013157894736842105
aF0.012244897959183673
aI0
aF0.0019801980198019802
aF0.007009345794392523
aF0.0039147455415398
aF0.007564296520423601
aF0.0027624309392265192
aF0.005319148936170213
aF0.0011933174224343676
aI0
aF0.012856344326439352
aF0.0
aF0.006644518272425249
aF0.010159651669085631
aF0.0
aF0.004944375772558714
aF0.005416384563303994
aF0.0
aF0.00273224043715847
aF0.0
aF0.0
aF0.008653846153846154
aF0.0068945705257110025
aF0.0
aF0.0
aF0.004806248122559327
aF0.0
aF0.0
aF0.0
aF0.004632693580410324
aF0.00788701393983859
aF0.0
aF0.006200177147918512
aF0.010638297872340425
aF0.01735357917570499
aF0.0
aF0.00397456279809221
aF0.00423728813559322
aF0.005076142131979695
aF0.005173688100517369
aF0.010416666666666666
aF0.007624633431085044
aF0.005773672055427252
aF0.0
aF0.0118137595552467
aF0.004543487667676331
aF0.0
aF0.0
aF0.0
aF0.0136986301369863
aF0.004422604422604423
aF0.01765650080256822
aF0.004384591293454432
aF0.0
aF0.006761482863138261
aF0.0
aF0.012121212121212121
aF0.0011337868480725624
aF0.0
aF0.006968641114982578
aF0.002830188679245283
aF0.004005340453938585
aF0.0
aF0.00974025974025974
aF0.003236245954692557
aF0.0037735849056603774
aF0.0064516129032258064
aF0.006570302233902759
aF0.02027027027027027
aF0.0
aF0.0070921985815602835
aF0.0
aF0.0017921146953405018
aF0.005208333333333333
aF0.00385871178391214
aF0.0106951871657754
aF0.0055617352614015575
aF0.0
aF0.0006265664160401002
aF0.0018334206390780514
aF0.0029940119760479044
aF0.0020161290322580645
aF0.0
aF0.0
aF0.0
aF0.004477611940298508
aF0.008925383791503035
aF0.0032085561497326204
aF0.011411665257819104
aF0.0020325203252032522
aF0.007936507936507936
aF0.007334963325183374
aF0.0
aF0.006138555977784273
aF0.013750954927425516
aF0.008113590263691683
aF0.00517207081758504
aF0.022598870056497175
aF0.0012172854534388314
aF0.0
aF0.004947433518862091
aF0.0025870178739416747
aF0.009849663037843442
aF0.009438567941415786
aF0.0026246719160104987
aF0.0
aF0.014705882352941176
aF0.010318142734307825
aF0.011560693641618497
aF0.007392197125256674
aF0.008610792192881744
aF0.00604970568999346
aF0.0
aF0.0022988505747126436
aF0.0
aF0.005747126436781609
aF0.01177336276674025
aF0.006433823529411764
aF0.009523809523809525
aF0.0
aF0.005644402634054563
aF0.00823045267489712
aF0.004615384615384616
aF0.0
aF0.0
aF0.0
aF0.0037567504108945763
aF0.004556752278376139
aF0.004176610978520286
aF0.0
aF0.002154011847065159
aF0.0
aF0.005960568546538285
aF0.0
aF0.002510460251046025
aF0.007749535027898326
aF0.006109979633401222
aF0.0018050541516245488
aF0.005420054200542005
aF0.0
aF0.0014771048744460858
aF0.003458318165271205
aF0.005634437683119224
aF0.002061855670103093
aF0.012048192771084338
aF0.0020761245674740486
aF0.0015764582238570678
aF0.002680965147453083
aF0.007672940894377173
aF0.010523475445223961
aF0.001927246446639364
aF0.011834319526627219
aF0.0049504950495049506
aF0.005291005291005291
aF0.0072992700729927005
aF0.0
aF0.005342237061769616
aF0.022222222222222223
aF0.008919722497522299
aF0.001716001716001716
aF0.0028694404591104736
aF0.01376597836774828
aF0.009467455621301775
aF0.008637236084452975
aF0.0066316662061342915
aF0.002197802197802198
aF0.0014925373134328358
aF0.004910714285714286
aF0.0
aF0.0
aF0.0020222446916076846
aF0.007194244604316547
aF0.0
aF0.012195121951219513
aF0.0
aF0.0
aF0.008112493239588967
aF0.003264417845484222
aF0.0
aF0.0025906735751295338
aF0.0012594458438287153
aF0.0
aF0.0
aF0.0
aF0.0
aF0.012875536480686695
aF0.007159904534606206
aF0.0
aF0.0070126227208976155
aF0.004292869067493442
aF0.0
aF0.002277904328018223
aI0
aF0.0
aF0.008141112618724558
aF0.0
aF0.003861003861003861
aF0.0
aF0.0
aF0.0
aF0.007380073800738007
aF0.012468827930174564
aF0.0
aF0.004047558816089046
aF0.005758157389635317
aF0.003494378608325737
aF0.0
aF0.002912621359223301
aF0.004617968094038623
aF0.0
aF0.0011976047904191617
aF0.007518796992481203
aF0.0012776831345826234
aF0.0
aF0.004004004004004004
aF0.0
aF0.0
aF0.0
aF0.0
aF0.003000750187546887
aF0.004830917874396135
aF0.0213903743315508
aF0.017763845350052248
aF0.010186757215619695
aF0.0
aF0.005813953488372093
aF0.004814004376367615
aF0.003436426116838488
aF0.01775147928994083
aF0.004704037632301058
aF0.002232142857142857
aF0.008415147265077139
aF0.007253886010362694
aF0.006668889629876626
aF0.002813379180994061
aF0.0033632286995515697
aF0.0007616146230007616
aF0.004899559039686428
aF0.004163775156141568
aF0.0
aF0.0039946737683089215
aF0.0
aF0.0
aF0.0
aF0.005420054200542005
aF0.0
aF0.0024288688410825814
aF0.004239284032030146
aF0.0
aF0.007729468599033816
aF0.0
aF0.008875739644970414
aF0.0073145245559038665
aF0.006885305308932777
aF0.0070140280561122245
aF0.0
aF0.005025125628140704
aF0.0035698348951361
aF0.017222820236813777
aF0.001597444089456869
aF0.0
aF0.004127115146512587
aF0.0
aF0.002770083102493075
aF0.019230769230769232
aF0.01680672268907563
aF0.0
aF0.009823182711198428
aF0.010917030567685589
aF0.0028735632183908046
aF0.0
aF0.0084985835694051
aF0.0
aF0.0
aF0.003676470588235294
aF0.001142857142857143
aF0.01021059349074665
aF0.004788125448886761
aF0.005306799336650083
aF0.0038119440914866584
aF0.0
aF0.0
aF0.0
aF0.0013025073266037122
aF0.0
aF0.0
aF0.008888888888888889
aF0.0
aF0.0
aF0.01034386357282639
aF0.006269592476489028
aF0.002
aF0.05102040816326531
aF0.0
aF0.007373271889400922
aF0.015087507543753771
aF0.0
aF0.002904865649963689
aF0.011235955056179775
aF0.005912786400591279
aF0.012461059190031152
aF0.0
aF0.009582809021391928
aF0.009227019498607242
aF0.003289473684210526
aF0.012903225806451613
aF0.0
aF0.0010718113612004287
aF0.0111731843575419
aF0.0
aF0.0
aF0.0
aF0.0
aF0.01123213070115725
aF0.006124721603563474
aF0.006356641017062563
aF0.008895478131949592
aF0.0
aF0.0
aF0.005025125628140704
aF0.012537917087967644
aF0.005535055350553505
aF0.00516795865633075
aF0.0
aF0.007474429583005508
aF0.012228260869565218
aF0.003655193420651843
aF0.0024752475247524753
aF0.0018975332068311196
aF0.0031847133757961785
aF0.007415858528237307
aF0.0
aF0.0
aF0.008797653958944282
aF0.015105740181268883
aF0.007407407407407408
aF0.010164738871363477
aF0.007710100231303007
aF0.00818926296633303
aF0.0
aF0.0
aF0.009009009009009009
aF0.011530398322851153
aF0.004906771344455349
aI0
aF0.0
aF0.0037267080745341614
aF0.008149010477299184
aF0.0
aF0.0
aF0.006952491309385863
aF0.008670520231213872
aF0.010167029774872912
aF0.0034100596760443308
aF0.005988023952095809
aF0.0016556291390728477
aF0.0034409306898246766
aF0.011764705882352941
aF0.007142857142857143
aF0.002548853016142736
aF0.0
aF0.0
aF0.004157684016014783
aF0.006507592190889371
aF0.0024937655860349127
aF0.0
aF0.0
aF0.007124352331606218
aF0.005055611729019211
aF0.005240590757503573
aF0.008710801393728223
aF0.0
aF0.0022818026240730175
aF0.007614213197969543
aF0.0065478355765733
aF0.002793296089385475
aF0.0
aF0.0
aF0.0032497678737233053
aF0.0021929824561403508
aF0.0023030861354214646
aF0.037037037037037035
aF0.0
aF0.003700962250185048
aF0.0012714558169103624
aF0.0033500837520938024
aF0.0
aF0.0
aF0.0
aF0.006704980842911878
aF0.01485148514851485
aF0.005789909015715467
aF0.0
aF0.0
aF0.004761904761904762
aF0.002457002457002457
aF0.010723860589812333
aF0.0
aF0.016
aF0.00644122383252818
aF0.014498432601880877
aF0.0
aF0.0033370411568409346
aF0.0
aF0.004656813120064791
aF0.023923444976076555
aF0.00444960340491391
aF0.011450381679389313
aF0.0
aF0.00933997509339975
aF0.004278882456581928
aF0.0
aF0.0076818798011748755
aF0.007126781695423856
aF0.0
aI0
aF0.007017543859649123
aF0.013157894736842105
aF0.0011750881316098707
aF0.007053291536050157
aF0.008771929824561403
aF0.0013280212483399733
aF0.010109519797809604
aF0.0017123287671232876
aF0.005291005291005291
aF0.0
aF0.0
aF0.0
aF0.001411764705882353
aF0.0070140280561122245
aF0.0028735632183908046
aF0.0
aF0.0
aF0.004878048780487805
aF0.003389830508474576
aF0.0061823802163833074
aF0.005797101449275362
aF0.0
aF0.005398920215956809
aF0.0
aF0.0010214504596527069
aF0.0
aF0.0
aF0.007521255722694572
aF0.0035714285714285713
aF0.0
aF0.0014064697609001407
aF0.0030627871362940277
aF0.0020191822311963654
aF0.0
aF0.006516072980017376
aF0.006711409395973154
aF0.0
aF0.016666666666666666
aF0.006232023010546501
aF0.01038961038961039
aF0.003539127015336217
aF0.0
aF0.003814224814897913
aF0.00921080175842579
aF0.0
aF0.003896103896103896
aF0.0
aF0.0
aF0.006392918613228424
aF0.0016294227188081937
aF0.0
aF0.005885237861696911
aF0.0030224525043177895
aF0.0
aF0.011385816525699415
aF0.007590132827324478
aF0.005708245243128964
aF0.00807899461400359
aF0.006628787878787879
aF0.0
aF0.0
aF0.0006891798759476223
aF0.0
aF0.0033134526176275677
aF0.0
aF0.0
aF0.0
aF0.045627376425855515
aF0.010587102983638113
aF0.00788863109048724
aF0.005905511811023622
aF0.004914004914004914
aF0.016260162601626018
aF0.010320478001086366
aF0.0
aF0.003875968992248062
aF0.009644364074743821
aF0.013062409288824383
aF0.0
aF0.01419698314108252
aF0.0
aF0.011889035667107
aF0.0
aF0.0
aF0.025396825396825397
aF0.0
aF0.028169014084507043
aF0.004545454545454545
aF0.006944444444444444
aF0.0024691358024691358
aF0.0
aF0.009990917347865577
aF0.0
aF0.0
aF0.004428044280442804
aF0.0029239766081871343
aF0.004514672686230248
aF0.007666098807495741
aF0.020005129520389842
aF0.030534351145038167
aF0.012627148368993335
aF0.0
aF0.0
aF0.01610305958132045
aF0.0020512820512820513
aF0.019584569732937686
aF0.0
aF0.0030706243602865915
aF0.0010559662090813093
aF0.011661807580174927
aF0.00966183574879227
aF0.00859106529209622
aF0.0
aF0.005063291139240506
aF0.008281573498964804
aF0.003968253968253968
aF0.009836065573770493
aI0
aF0.016551724137931035
aF0.007366482504604052
aF0.0027739251040221915
aF0.0
aF0.008391608391608392
aF0.015101462954223691
aF0.01098901098901099
aF0.0
aF0.0
aF0.0
aF0.007087628865979381
aF0.0034158838599487617
aF0.001040582726326743
aF0.0
aF0.0051813471502590676
aF0.0
aF0.0
aF0.0
aF0.004076086956521739
aF0.005511811023622047
aF0.005917159763313609
aF0.0
aF0.000441306266548985
aF0.0
aF0.0
aF0.0015625
aF0.0
aF0.006648936170212766
aF0.029197080291970802
aF0.010067114093959731
aF0.007042253521126761
aF0.017421602787456445
aF0.004962779156327543
aF0.009249377445748844
aF0.0
aF0.007805724197745013
aF0.009578544061302681
aF0.0078397212543554
aF0.007228915662650603
aF0.002231312755671253
aF0.0
aF0.0025998142989786446
aF0.004347826086956522
aF0.000560695262125035
aF0.006220839813374806
aF0.011642156862745098
aF0.0019569471624266144
aF0.0
aF0.0
aF0.0
aF0.02247191011235955
aF0.0
aF0.00411522633744856
aF0.0
aF0.005353955978584176
aF0.0
aF0.005141388174807198
aF0.0017825311942959
aF0.0022123893805309734
aF0.00450112528132033
aF0.0071315372424722665
aF0.007237635705669481
aF0.0
aF0.012123582323034806
aF0.0
aF0.012252042007001166
aF0.0
aF0.028662420382165606
aF0.002932551319648094
aF0.005841121495327103
aF0.0028659611992945325
aF0.008740359897172237
aF0.005885500267522739
aF0.002037252619324796
aF0.0
aF0.0
aF0.005998286203941731
aF0.004329004329004329
aF0.0
aF0.023728813559322035
aF0.0008368200836820083
aF0.007462686567164179
aF0.012216849071010435
aF0.0
aF0.004214328717639976
aF0.0
aF0.0
aF0.00466804979253112
aF0.002967359050445104
aF0.009615384615384616
aF0.0041928721174004195
aF0.004219409282700422
aF0.0
aF0.009478672985781991
aF0.0
aI0
aF0.006779661016949152
aF0.003804692454026633
aF0.0
aF0.0
aF0.005199306759098787
aF0.0
aF0.004578754578754579
aF0.010281627179257935
aF0.007120023249055507
aF0.01443298969072165
aF0.0
aF0.005759539236861051
aF0.0021141649048625794
aF0.009615384615384616
aF0.033168460867035204
aF0.0
aF0.006191950464396285
aF0.0
aF0.006172839506172839
aF0.005442176870748299
aF0.0024271844660194173
aF0.007909045971329708
aF0.005738880918220947
aF0.022058823529411766
aF0.0025974025974025974
aF0.0034746351633078527
aF0.004470938897168405
aF0.0
aF0.011647254575707155
aF0.005291005291005291
aF0.0029836683417085426
aF0.010093978419770276
aF0.0014903129657228018
aF0.0013623978201634877
aF0.0
aF0.0
aF0.0
aF0.008928571428571428
aF0.007649158592554819
aF0.0028937577511368336
aF0.0064794816414686825
aF0.0056093829678735335
aF0.0
aF0.0
aF0.0
aF0.0
aF0.013008812421317666
aF0.0036991368680641184
aF0.002031832035218422
aF0.00663716814159292
aF0.001644736842105263
aF0.0
aF0.008771929824561403
aF0.007754870436920749
aF0.001763668430335097
aF0.0
aF0.0036900369003690036
aF0.0
aF0.008713480266529985
aF0.0
aF0.0045045045045045045
aF0.0039946737683089215
aF0.0
aF0.0
aF0.007712082262210797
aF0.009569377990430622
aF0.004424778761061947
aF0.007575757575757576
aF0.007089056269384138
aF0.004946727549467275
aF0.0
aF0.010905125408942203
aF0.004016064257028112
aF0.0018315018315018315
aF0.003669724770642202
aF0.0
aF0.0017985611510791368
aF0.0
aF0.004032258064516129
aF0.0
aF0.004156923876331515
aF0.011363636363636364
aF0.007407407407407408
aF0.0
aF0.0023094688221709007
aF0.0015060240963855422
aF0.004464285714285714
aF0.03571428571428571
aF0.017497812773403325
aF0.004122011541632316
aF0.005776636713735558
aF0.004458161865569273
aF0.008693289866883998
aF0.0
aF0.0017421602787456446
aF0.009505703422053232
aF0.0016874077198903185
aF0.027522935779816515
aF0.0
aF0.004985754985754986
aF0.00869205298013245
aF0.0
aF0.0
aF0.0
aF0.0
aF0.0006365372374283895
aF0.0031928480204342275
aF0.0
aF0.0
aF0.0044896030245746696
aF0.001584786053882726
aF0.011991164405175133
aF0.006711409395973154
aF0.0015082956259426848
aF0.003227107704719645
aF0.0
aF0.004190198578976134
aF0.008333333333333333
aF0.0
aF0.006310096153846154
aF0.009548611111111112
aF0.00933786078098472
aF0.0
aF0.0
aF0.0
aF0.0
aF0.0
aF0.006396588486140725
aF0.0032102728731942215
aF0.0
aF0.004622496147919877
aF0.0011049723756906078
aF0.0
aF0.0023094688221709007
aF0.0008718395815170009
aF0.0
aF0.006283068783068783
aF0.0
aF0.0
aF0.007377805102981863
aF0.005442176870748299
aF0.0
aF0.006091537701679289
aF0.0
aF0.006980802792321117
aF0.0
aF0.0
aF0.0
aF0.0
aF0.0025031289111389237
aF0.005934718100890208
aF0.018410041841004185
aF0.0056065239551478085
aI0
aF0.0
aF0.007155635062611807
aF0.0023830427693465445
aF0.0
aF0.009925558312655087
aF0.00251207729468599
aF0.0
aF0.0017167381974248926
aF0.0017301038062283738
aF0.004516129032258065
aF0.008955223880597015
aF0.0
aF0.00199203187250996
aF0.0049261083743842365
aF0.009835315645013724
aF0.0
aF0.0018714909544603868
aF0.0049833887043189366
aF0.010882708585247884
aF0.0
aF0.006218905472636816
aF0.004700352526439483
aF0.0065656565656565654
aI0
aF0.0024148108398175474
aF0.005184331797235023
aF0.0035033086804203972
aF0.0023730422401518746
aF0.004744283138817725
aF0.0
aF0.0
aF0.018907563025210083
aF0.0
aF0.0196078431372549
aF0.0
aF0.028
aF0.01912568306010929
aF0.009111617312072893
aF0.009433962264150943
aF0.0
aF0.012987012987012988
aF0.006872852233676976
aF0.00862392200974878
aF0.0
aF0.0036496350364963502
aF0.0
aF0.020374898125509373
aF0.02010869565217391
aF0.0
aF0.005422993492407809
aF0.0141287284144427
aF0.0125
aF0.013157894736842105
aF0.0
aF0.008902691511387164
aF0.0
aF0.02557544757033248
aF0.02144310533729848
aF0.0
aF0.0
aF0.013862633900441084
aF0.02026431718061674
aF0.011337868480725623
aF0.008030112923462986
aF0.006147540983606557
aF0.024489795918367346
aF0.0
aF0.012468277612269667
aF0.0
aF0.00796812749003984
aF0.0016286644951140066
aF0.007226738934056007
aF0.0
aF0.008845084660096033
aF0.0038860103626943004
aF0.0
aF0.0
aF0.005305039787798408
aF0.0
aF0.023809523809523808
aF0.006980802792321117
aF0.017341040462427744
aF0.023255813953488372
aF0.00797622771348139
aF0.0
aF0.0006963788300835655
aF0.0024762690879075525
aF0.006024096385542169
aF0.0
aF0.007928517493078279
aF0.0032562683165092803
aF0.004291845493562232
aF0.012552301255230125
aF0.009096612296110414
aF0.0
aF0.006828528072837633
aF0.007866273352999017
aF0.004347826086956522
aF0.007086614173228346
aF0.006147540983606557
aF0.0
aF0.004651162790697674
aI0
aF0.0076
aF0.0
aF0.0
aF0.007352941176470588
aF0.0
aF0.0015290519877675841
aF0.0016348773841961854
aF0.0041928721174004195
aF0.005382131324004306
aF0.0
aF0.007122507122507123
aF0.004415011037527594
aI0
aF0.0025497195308516064
aF0.015267175572519083
aF0.0
aF0.010067114093959731
aF0.008595988538681949
aF0.006459948320413436
aF0.018223234624145785
aF0.011256494131229556
aF0.040229885057471264
aF0.0
aF0.002570694087403599
aF0.004784688995215311
aF0.0022271714922048997
aF0.01090909090909091
aF0.006819590824550527
aF0.0
aF0.005479452054794521
aF0.005235602094240838
aF0.006659656501927795
aF0.026490066225165563
aF0.003527336860670194
aF0.004750593824228029
aF0.0
aF0.0031645569620253164
aF0.03076923076923077
aF0.0049301561216105174
aF0.0
aF0.004066418163334463
aF0.0
aF0.0
aF0.007772020725388601
aF0.005805515239477504
aF0.0
aF0.0
aF0.0015600624024961
aF0.004337671004337671
aF0.0016501650165016502
aF0.0021645021645021645
aF0.0060790273556231
aF0.0035460992907801418
aF0.0
aF0.00681635926222935
aF0.0
aF0.001579778830963665
aF0.0014204545454545455
aF0.0032549728752260397
aF0.004799040191961607
aF0.011111111111111112
aF0.0
aF0.0
aF0.004830917874396135
aF0.002178649237472767
aF0.0018115942028985507
aF0.0
aF0.0
aF0.043429844097995544
aF0.0
aF0.019442644199611146
aF0.017332691381800675
aF0.0
aF0.006600660066006601
aF0.0
aF0.0
aF0.002331002331002331
aF0.002434570906877663
aF0.0
aF0.0094440867138871
aF0.015680684248039915
aF0.0
aF0.03345724907063197
aF0.01928374655647383
aF0.014598540145985401
aF0.0
aF0.004830917874396135
aF0.0
aF0.005032907471931862
aF0.0035386486785358843
aF0.00830367734282325
aF0.008264462809917356
aF0.011857707509881422
aF0.0
aF0.005865102639296188
aF0.0015455950540958269
aF0.004048582995951417
aF0.0019157088122605363
aF0.0
aF0.010948905109489052
aF0.01601423487544484
aF0.0
aF0.0
aF0.0
aF0.01020408163265306
aF0.005226480836236934
aF0.004830917874396135
aF0.002325581395348837
aF0.0
aF0.0
aF0.0
aF0.0
aF0.006369426751592357
aF0.007957559681697613
aF0.005307386112339673
aF0.0047789725209080045
aF0.0060551404277248136
aF0.006183745583038869
aF0.012488849241748439
aF0.005655042412818096
aF0.004579517069109076
aF0.003134796238244514
aF0.002386634844868735
aF0.0025974025974025974
aF0.028294260307194827
aF0.01773049645390071
aF0.0
aF0.0
aF0.003409090909090909
aF0.00546448087431694
aF0.0
aF0.010619469026548672
aF0.0034916201117318434
aF0.008029647930821495
aF0.001976284584980237
aF0.022332506203473945
aF0.0
aF0.0
aF0.0
aF0.0
aF0.005504587155963303
aF0.0
aF0.002404809619238477
aF0.0
aF0.0
aF0.004246284501061571
aF0.002268602540834846
aF0.002631578947368421
aF0.0013559322033898306
aF0.003682272488164124
aF0.003125
aF0.003246753246753247
aF0.0006618133686300463
aF0.0
aF0.0
aF0.0
aF0.006025957972805933
aF0.03278688524590164
aF0.002702702702702703
aF0.005015673981191223
aF0.0
aF0.010700389105058366
aF0.004092769440654843
aF0.0022123893805309734
aF0.001612531674729325
aF0.0029688273132112814
aF0.002325581395348837
aF0.0012195121951219512
aF0.0038674033149171273
aF0.00129366106080207
aF0.002572898799313894
aF0.0017226528854435831
aF0.008445297504798464
aF0.018867924528301886
aF0.0059121621621621625
aF0.0
aF0.008534850640113799
aF0.0196078431372549
aF0.009933774834437087
aF0.0
aF0.0
aF0.0007575757575757576
aF0.0
aF0.004424778761061947
aF0.003092783505154639
aF0.0020161290322580645
aF0.007412898443291327
aF0.0
aF0.0
aF0.004318008636017272
aF0.010309278350515464
aF0.0014771048744460858
aF0.010570824524312896
aF0.0
aF0.017094017094017096
aF0.0075625363583478765
aF0.0
aF0.005235602094240838
aF0.0
aF0.002696871628910464
aF0.0
aF0.0
aF0.00586756077116513
aF0.025839793281653745
aF0.0
aF0.0
aF0.0024630541871921183
aF0.007494646680942184
aF0.0
aF0.01216786689843556
aF0.006016042780748663
aF0.035398230088495575
aF0.003338391502276176
aF0.014492753623188406
aF0.0
aF0.0029784065524944155
aI0
aF0.0
aF0.002652519893899204
aF0.007414983380209665
aF0.0
aF0.0
aF0.007851305880467873
aF0.015625
aF0.0
aF0.004066142586066685
aF0.004784688995215311
aF0.0032289312237649337
aF0.009530292716133424
aF0.004760161113145368
aF0.0
aF0.009189640768588136
aF0.005208333333333333
aF0.005420054200542005
aF0.002403846153846154
aF0.0032371189641219314
aF0.0
aF0.0
aF0.0
aF0.0005675368898978433
aF0.0
aF0.002577319587628866
aF0.003683241252302026
aF0.0
aF0.008064516129032258
aF0.0
aF0.0
aF0.007611798287345386
aF0.0
aF0.0035790980672870437
aF0.0019193857965451055
aF0.007488087134104833
aF0.0
aF0.016216216216216217
aF0.0
aF0.0
aI0
aF0.0
aF0.0015026296018031556
aF0.0
aF0.00979381443298969
aF0.005343783398646241
aF0.015561015561015561
aF0.014884979702300407
aF0.0036281179138321997
aF0.0028228652081863093
aF0.001148105625717566
aF0.0040290088638195
aF0.011342155009451797
aF0.003278688524590164
aF0.005518763796909493
aF0.0
aF0.006501950585175552
aF0.016505840528186898
aF0.004491017964071856
aF0.0
aF0.007407407407407408
aF0.0049597024178549285
aF0.0
aF0.005208333333333333
aF0.006734006734006734
aF0.0010548523206751054
aF0.0
aF0.0
aF0.00904977375565611
aF0.0
aF0.007457627118644068
aF0.00846740050804403
aF0.009840515778758059
aF0.006417602567041027
aF0.0
aF0.0038314176245210726
aF0.0
aF0.0026613439787092482
aF0.0
aF0.0
aF0.0
aF0.0
aF0.009708737864077669
aF0.0
aF0.0
aF0.0040650406504065045
aF0.0
aF0.0
aF0.0
aF0.0
aF0.007054673721340388
aF0.001890359168241966
aF0.0027247956403269754
aF0.0
aF0.003992015968063872
aF0.0
aF0.008
aF0.0035587188612099642
aF0.02127659574468085
aF0.005949851253718657
aF0.005952380952380952
aF0.005567928730512249
aF0.003048780487804878
aF0.006042296072507553
aI0
aF0.0
aF0.003663003663003663
aF0.009702457956015523
aF0.001256281407035176
aF0.012962962962962963
aF0.001953125
aF0.010259505129752565
aF0.006147540983606557
aF0.0035149384885764497
aF0.004142300194931774
aF0.006188118811881188
aF0.003108003108003108
aF0.001026694045174538
aF0.010703363914373088
aF0.0
aF0.003367003367003367
aF0.008928571428571428
aF0.011111111111111112
aF0.0
aF0.0028735632183908046
aF0.0016129032258064516
aF0.011247188202949263
aF0.0038910505836575876
aF0.023890784982935155
aF0.0
aF0.002152852529601722
aF0.0
aF0.0027223230490018148
aF0.00931098696461825
aF0.0033003300330033004
aF0.0
aF0.0032164683177870698
aF0.0070921985815602835
aF0.0
aF0.0026702269692923898
aF0.0049261083743842365
aF0.007778220981252493
aF0.010064043915827997
aF0.014414414414414415
aF0.002004008016032064
aF0.010471204188481676
aF0.006211180124223602
aF0.0
aF0.0
aF0.0
aF0.0
aF0.0
aF0.006575152843465221
aF0.00816326530612245
aF0.011834319526627219
aF0.0
aF0.005235602094240838
aF0.0015003750937734434
aF0.011111111111111112
aF0.0
aF0.004201680672268907
aF0.0026089225150013043
aF0.0
aF0.001962708537782139
aF0.0
aF0.011235955056179775
aF0.006289308176100629
aF0.0023458445040214475
aF0.0
aF0.010588235294117647
aF0.0
aF0.005249343832020997
aF0.01665741254858412
aF0.006493506493506494
aF0.005227781926811053
aF0.0
aF0.006012024048096192
aF0.0
aF0.0034812880765883376
aF0.004484304932735426
aF0.019969278033794162
aF0.0
aF0.005050505050505051
aF0.0
aF0.01818181818181818
aF0.0
aF0.021447721179624665
aF0.013380909901873328
aF0.02631578947368421
aF0.023214285714285715
aF0.0
aF0.001697792869269949
aF0.007332722273143905
aF0.003595828838547285
aF0.01818181818181818
aF0.0
aF0.008988764044943821
aF0.0
aF0.004095873786407767
aF0.009704251386321626
aF0.004885993485342019
aF0.007119126720455624
aF0.005256241787122208
aF0.00497642744892614
aF0.007352941176470588
aF0.0
aF0.010165864098448368
aF0.005151843817787419
aF0.00782414307004471
aF0.0
aF0.010514018691588784
aF0.009188361408882083
aF0.006311360448807854
aF0.011235955056179775
aF0.0006561679790026247
aF0.012802926383173296
aF0.00695322376738306
aF0.005878806150135665
aF0.0
aF0.0
aF0.010686675761709868
aF0.0
aF0.0025305778152678194
aF0.001466275659824047
aF0.0
aF0.006051437216338881
aF0.019693654266958426
aF0.008018327605956471
aF0.007909604519774011
aF0.0061614294516327784
aF0.001837109614206981
aF0.0
aF0.005165603160133698
aF0.0
aF0.0020242914979757085
aF0.0
aF0.003353828954723309
aF0.002564102564102564
aF0.005610098176718092
aF0.01195049082373026
aF0.0
aF0.0
aF0.006825938566552901
aF0.0
aF0.006498470948012232
aF0.004602510460251046
aF0.0
aF0.0
aF0.005856515373352855
aF0.0035026269702276708
aF0.008547008547008548
aF0.0036275695284159614
aF0.007951070336391437
aF0.005256241787122208
aF0.0035622402533148625
aF0.009068425391591096
aF0.00563063063063063
aF0.0009578544061302681
aF0.018209408194233688
aF0.0
aF0.01058601134215501
aF0.0
aF0.0
aF0.004882017900732303
aF0.0006480881399870382
aF0.007547169811320755
aF0.011527377521613832
aF0.003125
aF0.007352941176470588
aF0.003472222222222222
aF0.0068632435180477885
aF0.0021872265966754157
aF0.0
aF0.004467609828741623
aF0.007936507936507936
aF0.0
aF0.008986520219670495
aF0.005458887751620608
aF0.002777777777777778
aF0.0035778175313059034
aF0.0
aF0.0
aF0.01834590915815949
aF0.008771929824561403
aF0.013420089467263115
aF0.022988505747126436
aF0.0
aF0.0017142857142857142
aF0.0013297872340425532
aF0.0030193236714975845
aF0.0
aF0.0
aF0.007407407407407408
aF0.0
aF0.011011301072153
aF0.003041825095057034
aF0.0
aF0.010178117048346057
aF0.0078125
aF0.014814814814814815
aF0.005703422053231939
aF0.01652892561983471
aF0.0
aF0.013318534961154272
aF0.009564801530368245
aF0.005244755244755245
aF0.003667481662591687
aF0.00202020202020202
aF0.007874015748031496
aF0.006016847172081829
aF0.00749185667752443
aF0.0
aF0.0
aF0.0
aF0.0011668611435239206
aF0.0
aF0.0048367593712212815
aF0.005929919137466307
aF0.0
aF0.0070921985815602835
aF0.004668534080298786
aF0.0010121457489878543
aF0.0013386880856760374
aF0.0
aF0.0
aF0.0057251908396946565
aF0.0
aF0.027777777777777776
aF0.010311694398875087
aF0.0
aF0.0
aF0.007246376811594203
aF0.005766553986876119
aF0.0023767082590612004
aF0.005848930481283422
aF0.0023894862604540022
aF0.0
aF0.0
aF0.004066543438077634
aF0.0072832572832572835
aF0.0045684058667949026
aF0.004817987152034261
aF0.0
aF0.0031019775106630476
aF0.0
aF0.004081632653061225
aF0.0036363636363636364
aF0.012701100762066046
aF0.0
aF0.0
aF0.002165674066053059
aF0.00267379679144385
aF0.0
aF0.0
aF0.00909090909090909
aF0.003575685339690107
aF0.004061738424045491
aF0.0
aF0.027777777777777776
aF0.0017006802721088435
aF0.004830917874396135
aF0.02238209432454037
aF0.005188516084399862
aF0.02631578947368421
aF0.0030876109610189118
aF0.007104795737122558
aF0.008227848101265823
aF0.007629947544110634
aF0.0
aF0.0
aF0.015329125338142471
aF0.0010706638115631692
aF0.0015698587127158557
aF0.008504058755315036
aF0.010526315789473684
aF0.0018429782528566164
aF0.002188183807439825
aF0.005200208008320333
aF0.007462686567164179
aF0.008199210446401458
aF0.0
aF0.0
aF0.0
aF0.002812374447569305
aF0.010752688172043012
aF0.010365853658536586
aF0.0075528700906344415
aF0.0
aF0.0
aF0.00496031746031746
aF0.0
aF0.004893964110929853
aF0.0018957345971563982
aF0.0032419687592101384
aF0.0028392958546280523
aF0.0
aF0.0035654860946042312
aF0.0020491803278688526
aF0.0
aF0.0026136957658128594
aF0.0
aF0.0
aF0.004857411469758696
aF0.0
aF0.01236603462489695
aF0.0
aF0.0
aF0.0
aF0.0
aF0.004189944134078212
aF0.005238649592549476
aF0.0
aF0.00422727837871441
aF0.0015426147319706903
aF0.0017006802721088435
aF0.0
aF0.0
aF0.0
aF0.0
aF0.002918855808523059
aF0.006555423122765197
aF0.002188662727073758
aF0.007270323859881031
aF0.004056795131845842
aF0.0026619343389529724
aF0.0029424127784783522
aF0.005033979360684621
aF0.0030404378230465185
aF0.0
aF0.004008016032064128
aF0.005044843049327354
aF0.0
aF0.0
aF0.0031173458027165444
aF0.0
aF0.004916136495083863
aF0.0
aF0.0024975024975024975
aF0.0039126181936746
aF0.0039040713887339654
aF0.0018674136321195146
aF0.0
aF0.0
aF0.001397624039133473
aF0.0
aF0.004459308807134894
aF0.003236245954692557
aF0.0
aF0.0
aF0.004189944134078212
aF0.0
aF0.00548780487804878
aF0.009247027741083224
aF0.0022148394241417496
aF0.0
aF0.0
aF0.016194331983805668
aF0.0
aF0.003386960203217612
aF0.008716323296354992
aF0.0009652509652509653
aF0.011229646266142616
aF0.021505376344086023
aF0.003470213996529786
aF0.0195822454308094
aF0.0
aF0.004514672686230248
aF0.0
aF0.002849002849002849
aF0.006688963210702341
aF0.0
aF0.009523809523809525
aF0.015418502202643172
aF0.008226516166060838
aF0.004874651810584958
aF0.0
aF0.0
aF0.0087917042380523
aF0.01098901098901099
aF0.007771654655927653
aF0.004856614246068455
aF0.005751848808545604
aF0.0034698126301179735
aF0.016238159675236806
aF0.008012274122059324
aF0.006300315015750788
aF0.004471544715447155
aF0.0
aF0.005852231163130944
aF0.007746933505487412
aF0.0
aF0.0
aF0.015151515151515152
aF0.003145817912657291
aF0.0
aF0.011267605633802818
aF0.022727272727272728
aF0.007566204287515763
aF0.0
aF0.0064995357474466105
aF0.0012048192771084338
aF0.0
aF0.01694915254237288
aF0.0035587188612099642
aF0.0
aF0.012195121951219513
aF0.005931198102016607
aF0.0010857763300760044
aF0.0048543689320388345
aF0.007855911094079326
aF0.0
aF0.008871701546860783
aF0.006839945280437756
aF0.006387921022067364
aF0.003283302063789869
aF0.009259259259259259
aF0.002664083313150884
aF0.005208333333333333
aF0.0
aF0.0049813200498132005
aF0.003069367710251688
aF0.0
aF0.0
aF0.007477906186267845
aF0.01282051282051282
aF0.0
aF0.0015444015444015444
aF0.008071748878923767
aF0.007518796992481203
aF0.0009372071227741331
aF0.0
aF0.0
aF0.0
aF0.004694835680751174
aF0.022508038585209004
aF0.0
aF0.0
aF0.00955509107196178
aF0.003192106790481718
aF0.006265664160401002
aF0.0
aF0.001184834123222749
aF0.011116725618999495
aF0.0
aF0.0
aF0.0025974025974025974
aF0.003234750462107209
aF0.0
aF0.000984251968503937
aF0.006177606177606178
aF0.0
aF0.0025
aF0.0
aF0.0
aF0.0
aF0.01639344262295082
aF0.008353221957040573
aF0.0027752081406105457
aF0.013232514177693762
aF0.0
aF0.004594180704441042
aF0.02346805736636245
aF0.0
aF0.0
aF0.014219694276573054
aF0.000942507068803016
aF0.0
aF0.0
aF0.00788863109048724
aF0.016666666666666666
aF0.0
aF0.00702576112412178
aF0.0
aF0.005261027923917442
aF0.0
aF0.00950734658599827
aF0.001682085786375105
aI0
aF0.0
aF0.008424599831508003
aF0.008755760368663594
aF0.0
aF0.0
aF0.001635322976287817
aF0.0049800796812749
aF0.004969879518072289
aF0.0
aF0.006825938566552901
aF0.005305039787798408
aF0.0
aF0.005886200130804447
aF0.0
aF0.0
aF0.0
aF0.0
aF0.0
aF0.004524886877828055
aF0.0
aF0.015151515151515152
aF0.0
aF0.0
aF0.010460251046025104
aF0.0
aF0.00404040404040404
aF0.012448132780082987
aF0.002306805074971165
aF0.001282051282051282
aF0.0
aF0.01282051282051282
aF0.01818181818181818
aF0.0
aF0.0
aF0.003436426116838488
aF0.004545454545454545
aF0.02702702702702703
aF0.0
aF0.0024316109422492403
aF0.0
aF0.012104283054003724
aF0.01
aF0.01682557487380819
aF0.013934426229508197
aF0.0
aF0.02040816326530612
aF0.002849002849002849
aF0.003929273084479371
aF0.0
aF0.014363885088919288
aF0.01056338028169014
aF0.0047169811320754715
aF0.004764065335753176
aF0.0
aF0.012048192771084338
aF0.001584786053882726
aF0.0052056220718375845
aF0.004892367906066536
aF0.0
aF0.0045662100456621
aF0.0
aF0.003089598352214212
aF0.005063291139240506
aF0.0
aF0.0
aF0.00538998097653773
aF0.0
aF0.003247456159341849
aF0.0
aF0.005213424568263278
aF0.0045662100456621
aF0.007803790412486065
aF0.0
aF0.004482477587612062
aF0.0078125
aI0
aF0.0
aF0.0
aF0.014705882352941176
aF0.006578947368421052
aF0.008118081180811807
aF0.007310808140683659
aF0.0
aF0.0033112582781456954
aF0.011220196353436185
aF0.0
aF0.01870503597122302
aF0.0022450288646568314
aF0.0
aF0.0
aF0.02127659574468085
aF0.01775625504439064
aF0.004984423676012461
aF0.014430785676109033
aF0.0
aF0.0
aF0.0
aF0.003814367450731087
aF0.004
aF0.008009153318077803
aF0.011299435028248588
aF0.0
aF0.005319148936170213
aF0.0
aF0.0
aF0.0
aF0.011152416356877323
aF0.007816862088218872
aF0.01171875
aF0.004424778761061947
aF0.0
aF0.0
aF0.006060606060606061
aF0.004735595895816891
aF0.005659309564233163
aF0.006578947368421052
aF0.02830188679245283
aF0.012307692307692308
aF0.0
aF0.0037537537537537537
aF0.006462035541195477
aF0.0
aF0.0036291266682275812
aF0.0
aF0.0010111223458038423
aF0.006818716200329179
aF0.0
aF0.004149377593360996
aF0.013245033112582781
aF0.008418657565415245
aF0.011019283746556474
aF0.0
aF0.004227053140096618
aF0.0026666666666666666
aF0.0015885623510722795
aF0.0
aF0.001477832512315271
aF0.0
aF0.007518796992481203
aF0.0019184652278177458
aF0.0
aF0.0
aF0.010554089709762533
aF0.006611570247933884
aF0.005659309564233163
aF0.0
aF0.006541291905151268
aF0.0082276311278711
aF0.0
aF0.0
aF0.0
aF0.0025624599615631004
aF0.0
aF0.005025125628140704
aF0.0
aF0.005847953216374269
aF0.008342022940563087
aF0.00641025641025641
aF0.0
aF0.0
aF0.006003430531732418
aF0.010351966873706004
aI0
aF0.0036781609195402297
aF0.004987531172069825
aF0.027633851468048358
aF0.017123287671232876
aF0.009389671361502348
aF0.0
aF0.005470174524615785
aF0.023371104815864022
aF0.004728132387706856
aF0.0034734282737061478
aF0.0025983667409057165
aF0.0032626427406199023
aF0.005110732538330494
aF0.0
aF0.004899959167006942
aF0.0
aF0.006122448979591836
aF0.0
aF0.00909090909090909
aF0.00798175598631699
aF0.004061738424045491
aF0.0020865936358894104
aF0.007412636780797741
aF0.005494505494505495
aF0.0
aF0.01
aF0.01098901098901099
aF0.007063112326270221
aF0.012244897959183673
aF0.0061823802163833074
aF0.0
aF0.007465618860510805
aF0.0
aF0.0051387461459403904
aF0.0033967391304347825
aF0.003105590062111801
aF0.0047069371287683515
aF0.006552262090483619
aF0.0
aF0.0
aF0.018518518518518517
aF0.0
aF0.003215434083601286
aF0.004112808460634548
aF0.0018975332068311196
aF0.0
aF0.0
aF0.0009199632014719411
aF0.0
aF0.0
aF0.002861230329041488
aF0.009708737864077669
aF0.0
aF0.010964912280701754
aF0.0016874789065136687
aF0.004010695187165776
aF0.005901639344262295
aF0.007905138339920948
aF0.006284367635506678
aF0.0
aF0.0011406844106463879
aF0.005997001499250375
aF0.003105590062111801
aF0.01054629824931449
aF0.0
aF0.0
aF0.006104540251812286
aF0.0
aF0.0019723865877712033
aF0.0036855036855036856
aF0.003552397868561279
aF0.004739336492890996
aF0.0
aF0.003105590062111801
aF0.0010857763300760044
aF0.004451038575667656
aF0.0
aF0.005649717514124294
aF0.00954653937947494
aF0.009615384615384616
aF0.004322200392927309
aF0.005017921146953405
aF0.007537688442211055
aF0.001851851851851852
aF0.0
aF0.0
aF0.03132832080200501
aF0.01488833746898263
aF0.02056555269922879
aF0.0
aF0.0017513134851138354
aF0.007374631268436578
aF0.005474452554744526
aF0.0
aF0.003389830508474576
aF0.0
aF0.005023796932839768
aF0.004962779156327543
aF0.005019120458891013
aF0.0
aF0.005478087649402391
aF0.005205868433506862
aF0.002061855670103093
aF0.0024793388429752068
aF0.035398230088495575
aF0.0
aF0.014774494556765163
aF0.0056179775280898875
aF0.0050644567219152855
aF0.005319148936170213
aF0.0
aF0.005494505494505495
aF0.0
aF0.0017086715079026058
aF0.004054054054054054
aF0.0037004788855028296
aF0.0
aF0.0
aF0.008563273073263558
aF0.00072992700729927
aF0.0085995085995086
aF0.0
aF0.0
aF0.0033444816053511705
aF0.007665505226480836
aF0.006693440428380187
aF0.0030864197530864196
aF0.0
aF0.003257328990228013
aF0.01818181818181818
aF0.0
aF0.005498533724340176
aF0.004261363636363636
aF0.0017494751574527643
aF0.006501950585175552
aF0.0051325919589392645
aF0.0
aF0.0
aF0.008634920634920634
aF0.0
aF0.004280821917808219
aF0.0
aF0.005526468877254218
aF0.006029285099052541
aF0.0
aF0.0061744275791098535
aF0.0024509803921568627
aF0.005620470344623576
aF0.001784121320249777
aF0.005949966193373901
aF0.005847953216374269
aF0.0
aF0.0009718172983479105
aF0.0
aF0.005047672462142457
aF0.0
aF0.0
aF0.0019801980198019802
aF0.004706734250543085
aF0.00202020202020202
aF0.0
aF0.0030959752321981426
aF0.0
aF0.004900868790376476
aF0.003838771593090211
aF0.012323140118667275
aF0.0016051364365971107
aF0.0036452004860267314
aF0.0071633237822349575
aF0.008141112618724558
aF0.0
aF0.004305396096440872
aF0.0030372057706909645
aF0.0017667844522968198
aF0.003484320557491289
aF0.0007057163020465773
aF0.0
aF0.01167883211678832
aF0.011494252873563218
aF0.0
aF0.005376344086021506
aF0.0
aF0.00946372239747634
aF0.009873060648801129
aF0.0
aF0.008714596949891068
aF0.0013123359580052493
aF0.0
aF0.0
aF0.0
aF0.0009823182711198428
aF0.010438413361169102
aF0.0031914893617021275
aF0.0
aF0.005394066526820497
aF0.0
aF0.0
aF0.009551374819102749
aF0.0
aF0.011111111111111112
aF0.0054160512063023145
aF0.009615384615384616
aF0.003372681281618887
aF0.0024509803921568627
aF0.0
aF0.004739336492890996
aF0.0008123476848090983
aF0.0
aF0.0
aF0.0
aF0.0
aF0.04411764705882353
aF0.0
aF0.011428571428571429
aF0.0024752475247524753
aF0.0
aF0.0
aF0.0036982248520710057
aF0.006542526421741319
aF0.011856243052982586
aF0.008281573498964804
aF0.0024330900243309003
aF0.015082956259426848
aF0.0035688793718772305
aF0.004457652303120356
aF0.0
aF0.0020876826722338203
aF0.018838304552590265
aF0.010775862068965518
aF0.010132501948558068
aF0.0
aF0.05555555555555555
aF0.0057110222729868645
aF0.0
aF0.0
aF0.0029455081001472753
aF0.0
aF0.0
aF0.005027068832173241
aF0.006472491909385114
aF0.0
aF0.0013717421124828531
aF0.0027447392497712718
aF0.008285862247540134
aF0.013084112149532711
aF0.003372681281618887
aF0.0024125452352231603
aF0.016666666666666666
aF0.0
aF0.003497182824946571
aF0.0
aF0.0013902681231380337
aF0.0
aF0.0033783783783783786
aF0.006269592476489028
aF0.0
aF0.0
aF0.004629629629629629
aF0.005420054200542005
aF0.0
aF0.0
aF0.0
aF0.0113314447592068
aF0.0
aF0.0
aF0.005486466715435259
aF0.0
aF0.006008583690987125
aF0.007680491551459293
aF0.003931055337163592
aF0.01006036217303823
aF0.0058823529411764705
aF0.0
aF0.0
aF0.0015331544653123803
aF0.005763688760806916
aF0.024553571428571428
aF0.00554016620498615
aF0.0
aF0.003658536585365854
aF0.0
aF0.0
aF0.005445881552076242
aF0.005135887010485769
aF0.005178365937859608
aF0.0015923566878980893
aI0
aF0.0
aF0.0
aF0.010230179028132993
aF0.0025041736227045075
aF0.0
aF0.0
aF0.0
aF0.008106543138390272
aF0.005385996409335727
aF0.004477611940298508
aF0.006488766323302782
aF0.003223726627981947
aF0.0009099181073703367
aF0.006583760058522311
aF0.0
aF0.004110393423370522
aF0.0042601533655211585
aF0.0
aF0.0
aF0.013395847287340924
aF0.00473186119873817
aF0.0
aF0.005321979776476849
aF0.0
aF0.00646627053477805
aF0.0
aF0.001564945226917058
aF0.0
aF0.0
aF0.0044444444444444444
aF0.010141987829614604
aF0.0038910505836575876
aF0.008547008547008548
aI0
aF0.0
aF0.002512562814070352
aF0.0
aF0.004531722054380665
aF0.004792332268370607
aF0.005622489959839358
aF0.0061795710650672485
aF0.008609271523178808
aF0.004975124378109453
aF0.005856515373352855
aF0.007892293407613741
aF0.0
aF0.007284079084287201
aF0.0
aF0.0026857654431512983
aF0.034482758620689655
aF0.01141352063213345
aF0.00321285140562249
aF0.0
aF0.009433962264150943
aF0.0
aF0.0
aF0.0
aF0.002390438247011952
aF0.003048780487804878
aF0.00439146800501882
aF0.009619406106231703
aF0.006146281499692686
aF0.004
aF0.0
aF0.0
aF0.010183299389002037
aF0.004120879120879121
aF0.00432338953739732
aF0.0
aF0.00437636761487965
aF0.002461841457410143
aF0.0
aF0.0023296447291788003
aF0.009523809523809525
aF0.005256773150020219
aF0.0
aF0.0
aF0.00210896309314587
aF0.006369426751592357
aF0.002591419522027066
aF0.006528835690968444
aF0.0017123287671232876
aF0.002631578947368421
aF0.0
aF0.0
aF0.006666666666666667
aF0.0
aF0.0011655011655011655
aF0.006610841780520053
aF0.003838771593090211
aF0.0041841004184100415
aF0.01486697965571205
aF0.0047024049442429125
aF0.00248062015503876
aF0.005474452554744526
aF0.018575851393188854
aF0.0022222222222222222
aF0.013904982618771726
aF0.0
aF0.005092143549951503
aF0.010130246020260492
aF0.0
aF0.012056493282810886
aF0.0
aF0.004838709677419355
aF0.005252671617460605
aF0.007498660953401178
aF0.0
aF0.005
aF0.0
aF0.003430531732418525
aF0.0076520338300443014
aF0.003676470588235294
aF0.008363201911589008
aF0.0
aF0.008033323415650105
aF0.005827757392618174
aF0.008771929824561403
aF0.01516245487364621
aF0.0033492822966507177
aF0.02564102564102564
aF0.03333333333333333
aF0.020447284345047924
aF0.012048192771084338
aF0.011347517730496455
aF0.012185215272136474
aF0.012746234067207415
aF0.0
aF0.02197802197802198
aF0.0048250904704463205
aF0.01289170963903213
aF0.00554089709762533
aF0.004172461752433936
aF0.006097560975609756
aF0.00641025641025641
aF0.006119951040391677
aF0.002798507462686567
aF0.01767478397486253
aF0.0
aF0.0
aF0.0
aF0.0
aF0.006802721088435374
aF0.009365244536940686
aF0.0027146250424160165
aF0.0
aF0.006535947712418301
aF0.005333333333333333
aF0.0
aF0.006711409395973154
aF0.0
aF0.00338409475465313
aF0.0625
aF0.0026455026455026454
aF0.015037593984962405
aF0.0036115569823434992
aF0.0047805302042590175
aF0.0
aF0.006088721368512612
aF0.011046511627906977
aF0.0104675505931612
aF0.002803083391730904
aF0.0
aF0.0028109627547434997
aF0.0033407572383073497
aF0.005059797608095676
aF0.0
aF0.0
aF0.0
aF0.0
aF0.0
aF0.0
aF0.004136175628380528
aF0.019736842105263157
aF0.006928406466512702
aF0.0011947431302270011
aF0.009502923976608187
aF0.0056433408577878106
aF0.017374517374517374
aF0.006787330316742082
aF0.0022271714922048997
aF0.009497086121303691
aF0.0036363636363636364
aF0.024922118380062305
aF0.006230529595015576
aF0.002976190476190476
aF0.0030721966205837174
aF0.0016339869281045752
aF0.004338394793926247
aF0.0014814814814814814
aF0.0011061946902654867
aF0.006012950971322849
aF0.004369197160021846
aF0.009573958831977022
aF0.0
aF0.0
aF0.012953367875647668
aF0.0
aF0.0
aF0.0
aF0.0
aF0.002277904328018223
aF0.004746835443037975
aF0.03571428571428571
aF0.006211180124223602
aF0.01588628762541806
aF0.01764705882352941
aF0.012785388127853882
aF0.0029498525073746312
aF0.006030701754385965
aF0.005287508261731659
aF0.0028653295128939827
aF0.0066815144766146995
aF0.004231908590774439
aF0.007518796992481203
aF0.0
aF0.0
aF0.0
aF0.008288928359976317
aF0.0
aF0.0
aF0.012199630314232901
aF0.002583979328165375
aF0.01576182136602452
aF0.01188707280832095
aF0.005809731299927378
aF0.00709622480840193
aF0.008695652173913044
aF0.007267441860465116
aF0.0026298487836949377
aF0.0
aF0.0
aF0.002139495079161318
aF0.0061633281972265025
aF0.0231023102310231
aF0.009615384615384616
aF0.0040192926045016075
aF0.0
aF0.0
aF0.0
aF0.0
aF0.0
aF0.003952569169960474
aF0.005509641873278237
aF0.002890173410404624
aF0.0
aF0.0
aF0.0
aF0.006071118820468344
aF0.0
aF0.0
aF0.010830324909747292
aF0.007625826131164209
aF0.0
aF0.0
aF0.0
aF0.0
aF0.0
aF0.0050526315789473685
aF0.0
aF0.01058601134215501
aF0.005376344086021506
aF0.0
aF0.0034782608695652175
aF0.004035512510088781
aF0.014457831325301205
aF0.008044692737430168
aF0.004935834155972359
aF0.020522388059701493
aF0.0064808813998703824
aF0.011456628477905073
aF0.003464203233256351
aF0.009120521172638436
aF0.0
aF0.0032
aF0.004143646408839779
aF0.0
aF0.007212558336868901
aF0.0031525851197982345
aF0.0
aF0.0
aF0.004759386567953464
aF0.0
aF0.003861003861003861
aF0.002857142857142857
aF0.0182648401826484
aF0.017241379310344827
aF0.002356020942408377
aF0.0
aF0.0
aF0.0058331713007972
aF0.0
aF0.0
aF0.0
aF0.0
aF0.0
aF0.00641025641025641
aF0.002178649237472767
aF0.007142857142857143
aF0.00400200100050025
aF0.006153846153846154
aF0.0036101083032490976
aF0.006153846153846154
aF0.010784313725490196
aF0.0
aF0.0
aF0.0
aF0.0
aF0.0
aF0.002716336825766395
aF0.006404593639575972
aF0.006864988558352402
aF0.0006020469596628537
aF0.0
aF0.0011331444759206798
aF0.004032258064516129
aF0.0038639876352395673
aF0.012693156732891833
aF0.0014619883040935672
aI0
aF0.0
aF0.0037862852334875894
aF0.00398406374501992
aF0.008787346221441126
aF0.0019455252918287938
aF0.01206140350877193
aF0.0044166920499543105
aF0.0
aF0.001990049751243781
aF0.0037965072133637054
aF0.004
aF0.012401818933443571
aF0.0
aF0.0
aF0.001932367149758454
aF0.0
aF0.006911718504555451
aF0.002849002849002849
aF0.0
aF0.0
aF0.040345821325648415
aF0.0019723865877712033
aF0.0
aF0.00645682001614205
aF0.03225806451612903
aF0.0
aF0.0
aF0.0016129032258064516
aF0.00576036866359447
aF0.007368877329865626
aF0.0
aI0
aF0.0
aF0.0
aF0.0
aF0.007223942208462332
aF0.005192425167990226
aF0.0023894862604540022
aF0.00502092050209205
aF0.0
aF0.0
aF0.007401315789473684
aF0.0017191977077363897
aF0.008547008547008548
aF0.0
aF0.0
aF0.0
aF0.0018744142455482662
aF0.0
aF0.0
aF0.0
aF0.0
aF0.0
aF0.0
aF0.0642570281124498
aF0.0
aF0.0
aF0.012518054886856042
aF0.003289473684210526
aF0.0
aF0.004347826086956522
aF0.005409060175794456
aF0.015371716042481833
aF0.0
aF0.005366726296958855
aF0.0034655371582595304
aF0.0
aF0.0
aF0.007444168734491315
aF0.007207207207207207
aF0.012917933130699088
aF0.00417910447761194
aF0.0050200803212851405
aF0.0
aF0.0
aF0.005584192439862543
aF0.0
aF0.0
aF0.011684125705076551
aF0.002680965147453083
aF0.001951219512195122
aF0.0
aF0.0
aF0.012471131639722863
aF0.004793289394847214
aF0.007407407407407408
aF0.005605381165919282
aI0
aF0.0
aF0.00792910447761194
aF0.0
aF0.010889292196007259
aF0.0
aF0.011603375527426161
aF0.0030120481927710845
aF0.0031902552204176333
aF0.0
aF0.007396970764353646
aF0.004975124378109453
aF0.0
aF0.009122006841505131
aF0.012074643249176729
aF0.0067291516462388845
aF0.007261410788381743
aF0.0
aF0.0
aF0.00390625
aF0.0
aF0.0
aF0.0066815144766146995
aF0.03591160220994475
aF0.002631578947368421
aF0.005237430167597765
aF0.0037697052775873888
aF0.005434782608695652
aF0.0
aF0.0
aF0.0021953896816684962
aF0.006705783738474434
aF0.0
aF0.007612966601178782
aF0.00980392156862745
aF0.00885478158205431
aF0.0
aF0.0
aF0.003713527851458886
aF0.005847953216374269
aF0.0059976009596161535
aF0.008733624454148471
aF0.0
aF0.0
aF0.0
aF0.0
aF0.0006117455138662316
aF0.0033848106621535857
aF0.001943634596695821
aF0.0
aF0.0030534351145038168
aF0.00823045267489712
aF0.0
aF0.010368066355624676
aF0.0018832391713747645
aF0.0
aF0.009800718719372754
aF0.0
aF0.00655933214072749
aF0.004560260586319218
aF0.0
aF0.009886411442995372
aF0.001201923076923077
aF0.006639004149377593
aF0.0
aF0.0
aF0.00340522133938706
aF0.0031404217137729925
aF0.008370763576970192
aF0.006289308176100629
aF0.02936630602782071
aF0.004464285714285714
aF0.0
aF0.0
aF0.0
aF0.0
aF0.004653868528214078
aF0.002997601918465228
aF0.0
aF0.0
aF0.002364066193853428
aF0.004705882352941176
aF0.002472187886279357
aF0.0
aF0.0
aF0.015228426395939087
aF0.0
aF0.0
aF0.0
aF0.0
aF0.004316546762589928
aF0.005477308294209703
aF0.0050933786078098476
aF0.005670311867152693
aF0.0
aF0.0
aF0.005449591280653951
aF0.0
aF0.010970927043335162
aF0.0
aF0.015873015873015872
aF0.0
aF0.0028328611898017
aF0.0035629453681710215
aF0.006864988558352402
aF0.017424242424242425
aF0.0021164021164021165
aF0.00366188587122368
aF0.007168458781362007
aF0.006003001500750375
aF0.00408997955010225
aF0.0024734982332155478
aF0.002912621359223301
aF0.015815085158150853
aF0.0
aF0.001953125
aF0.0
aF0.0
aF0.0
aF0.009782001117942985
aF0.008521266436494528
aF0.006263048016701462
aF0.010256410256410256
aF0.0
aF0.00691699604743083
aF0.004345027357579659
aF0.004217568353694008
aF0.007860090391039498
aF0.008691873098652759
aF0.012218045112781954
aF0.0
aF0.005515719801434087
aF0.0056925996204933585
aF0.002953874119518291
aF0.004403131115459882
aF0.004235044997353097
aF0.0
aF0.016129032258064516
aF0.0
aF0.0103862382343395
aI0
aF0.0
aF0.008547008547008548
aF0.009708737864077669
aF0.005294740557712672
aF0.005255613951266125
aF0.0
aF0.005942555298778475
aF0.00728476821192053
aF0.0
aF0.0
aF0.0017094017094017094
aF0.0
aF0.005111821086261981
aF0.008346374543557642
aF0.0
aF0.00510204081632653
aF0.004138045187453447
aF0.0
aF0.0
aF0.002008032128514056
aF0.007633587786259542
aF0.003115264797507788
aF0.0036496350364963502
aF0.006329113924050633
aF0.0
aF0.011264720942140297
aF0.005263157894736842
aF0.006825938566552901
aF0.011034482758620689
aF0.009041591320072333
aF0.0
aF0.0
aF0.005292278085157566
aF0.0
aF0.009234111895708854
aF0.030303030303030304
aF0.0033068783068783067
aF0.009702850212249849
aF0.14925373134328357
aF0.0052659294365455505
aF0.004134129536058797
aF0.0
aF0.006602336211274758
aF0.0019230769230769232
aF0.009058468295360967
aF0.0
aF0.00328484279680901
aF0.0
aF0.003284072249589491
aF0.0
aF0.0
aF0.0225
aF0.0
aF0.005382131324004306
aF0.010986203372508942
aF0.0
aF0.0
aF0.0
aF0.0024067388688327317
aF0.004424778761061947
aF0.0054753608760577405
aF0.004395604395604396
aF0.0
aF0.013888888888888888
aF0.004640371229698376
aF0.002932551319648094
aF0.0
aF0.0009276437847866419
aF0.002574002574002574
aF0.0
aF0.00572041473006793
aF0.00743801652892562
aF0.002797202797202797
aF0.0
aF0.0068308838749741255
aF0.0
aF0.0
aF0.0
aF0.0
aF0.0
aF0.0
aF0.009511228533685601
aF0.0019723865877712033
aF0.0
aF0.0
aF0.007361963190184049
aI0
aF0.037037037037037035
aF0.0038639876352395673
aF0.005817711700064641
aF0.001932367149758454
aF0.0053085600530856005
aF0.0055248618784530384
aF0.004640371229698376
aF0.0
aF0.0020304568527918783
aF0.0
aF0.0020800832033281333
aF0.0003920031360250882
aF0.0
aF0.01134089392928619
aF0.0
aF0.05952380952380952
aF0.012211668928086838
aF0.013122529644268775
aF0.00948116934421912
aF0.0
aF0.000980392156862745
aF0.018691588785046728
aF0.006535947712418301
aF0.011286681715575621
aF0.0
aF0.010619469026548672
aF0.014285714285714285
aF0.004555808656036446
aF0.0
aF0.008736559139784945
aF0.0
aF0.0031285551763367463
aF0.004532577903682719
aI0
aF0.0033444816053511705
aF0.002162162162162162
aF0.0
aF0.004570682337577538
aF0.0017452006980802793
aF0.0071301247771836
aF0.00319693094629156
aF0.0
aF0.011165387299371946
aF0.006080114449213162
aF0.005747126436781609
aF0.0
aF0.0030146425495262705
aF0.0177153329260843
aF0.002694207453973956
aF0.0
aF0.004034582132564841
aF0.005551996583386718
aF0.0
aF0.004784688995215311
aF0.0016722408026755853
aF0.0
aF0.004366812227074236
aF0.006993006993006993
aF0.005291005291005291
aF0.008236101578586136
aF0.0
aF0.0
aF0.01694915254237288
aF0.01246623727404945
aF0.0082930200414651
aF0.005376344086021506
aF0.0023715415019762848
aF0.0016806722689075631
aF0.004518072289156626
aF0.006589785831960461
aF0.0038585209003215433
aF0.0
aF0.004199475065616798
aF0.0
aF0.0
aF0.0
aF0.0
aF0.0
aF0.006868131868131868
aF0.011764705882352941
aF0.00234192037470726
aF0.0
aF0.001639344262295082
aF0.0
aF0.005029337803855826
aF0.0023148148148148147
aF0.006617360840794083
aF0.006332524925895985
aF0.005270349404645715
aF0.007326007326007326
aF0.0
aF0.0
aF0.004375951293759513
aF0.010875787063537493
aF0.002551020408163265
aF0.005714285714285714
aF0.0
aF0.008835758835758836
aF0.001147842056932966
aF0.0
aF0.0
aF0.012738853503184714
aF0.02857142857142857
aF0.006329113924050633
aF0.0
aF0.009383924928600572
aF0.006535947712418301
aF0.003995157384987893
aF0.0
aF0.0021994134897360706
aF0.0
aF0.0
aF0.0
aF0.0
aF0.007023075820553246
aF0.0012987012987012987
aF0.0013192612137203166
aF0.0
aF0.003947368421052632
aF0.0
aF0.00572987721691678
aF0.0091324200913242
aF0.0018226002430133657
aF0.0024509803921568627
aF0.012345679012345678
aF0.007751937984496124
aF0.001564945226917058
aF0.0
aF0.01639344262295082
aF0.0024509803921568627
aF0.0019880715705765406
aF0.0
aF0.004
aF0.00373387644263408
aF0.0
aF0.0
aF0.0025
aF0.008465608465608466
aF0.0
aF0.004149377593360996
aF0.0
aF0.0
aF0.0
aF0.0
aF0.0
aF0.004314063848144953
aF0.004181600955794504
aF0.0
aF0.0
aF0.004205838693715982
aF0.0
aF0.004
aF0.006919528446950282
aF0.0
aF0.0
aF0.0
aF0.0
aF0.008331163759437647
aF0.0
aF0.006134969325153374
aF0.0012376237623762376
aF0.002136752136752137
aF0.0
aF0.007029876977152899
aF0.013937282229965157
aF0.004878048780487805
aF0.004468560485157995
aF0.0008247422680412372
aF0.0
aF0.0021008403361344537
aF0.0
aF0.0028735632183908046
aF0.0035211267605633804
aF0.0011827321111768185
aF0.004405286343612335
aF0.0
aF0.0
aF0.0005515719801434088
aF0.0
aF0.01282051282051282
aF0.0
aF0.004923076923076923
aF0.010481435423698704
aF0.004448398576512456
aF0.006430102405334604
aF0.002304147465437788
aF0.0008097165991902834
aF0.0020325203252032522
aF0.006227758007117438
aF0.0019455252918287938
aF0.005820721769499418
aF0.010035122930255895
aF0.0041946308724832215
aF0.01735357917570499
aF0.01107011070110701
aF0.005758807588075881
aF0.002572898799313894
aF0.0
aF0.0015479876160990713
aF0.014749262536873156
aF0.0
aF0.0
aF0.0
aF0.002617801047120419
aF0.0078125
aF0.0
aF0.002680965147453083
aF0.0
aF0.006838905775075988
aF0.002531645569620253
aF0.0
aF0.007535795026375283
aF0.006711409395973154
aF0.0005367686527106817
aF0.0035460992907801418
aF0.004907306434023991
aF0.003048780487804878
aF0.0019267822736030828
aF0.0044444444444444444
aF0.005917159763313609
aF0.0
aF0.0
aF0.0
aF0.0
aF0.004347826086956522
aF0.004247411733474914
aF0.00205620287868403
aF0.009416195856873822
aF0.005442176870748299
aF0.0028255238992229807
aF0.0071482317531978935
aF0.0066518847006651885
aF0.002880184331797235
aF0.0
aF0.005616316878510198
aI0
aF0.003403289846851957
aF0.0
aF0.002997601918465228
aF0.002315886984715146
aF0.0
aF0.013937282229965157
aF0.0
aF0.0
aF0.0030303030303030303
aF0.005847953216374269
aF0.0
aF0.002347417840375587
aF0.007289293849658315
aF0.007992895204262877
aF0.0041372596738865905
aF0.006530612244897959
aF0.004132231404958678
aF0.047619047619047616
aF0.004404510218463707
aF0.0
aF0.0
aF0.009615384615384616
aF0.017770597738287562
aF0.002179242713157178
aF0.0077809798270893375
aF0.015105740181268883
aF0.004651162790697674
aF0.0
aF0.0012224938875305623
aF0.011143695014662757
aF0.0
aF0.0
aF0.0029354207436399216
aF0.0034802784222737818
aF0.011869436201780416
aF0.0
aF0.0016501650165016502
aF0.008389261744966443
aF0.0
aF0.014228799089356859
aF0.012038834951456311
aF0.0
aF0.01680672268907563
aF0.0
aF0.00644122383252818
aF0.011233885819521179
aF0.008487896887771141
aF0.003215434083601286
aF0.0
aF0.012939001848428836
aF0.001823985408116735
aF0.0
aF0.005378209576682859
aF0.012828344532681736
aF0.004233924318602805
aF0.0
aF0.0
aF0.0
aF0.016666666666666666
aF0.050496688741721855
aF0.014209591474245116
aF0.008193445243804956
aF0.004411764705882353
aF0.003562176165803109
aF0.006775832862789385
aF0.0008110300081103001
aF0.01181592039800995
aF0.0
aF0.004694835680751174
aF0.0034662045060658577
aF0.0027247956403269754
aF0.007655502392344498
aF0.007174048658764816
aF0.0
aF0.0036649214659685864
aF0.005474452554744526
aF0.008403361344537815
aF0.0
aF0.0009630818619582664
aF0.009137055837563452
aF0.0
aF0.004098360655737705
aF0.0064704654560634525
aF0.008395522388059701
aF0.0
aF0.0048674959437533805
aF0.004765146358066712
aF0.0019230769230769232
aF0.0010362694300518134
aF0.0
aF0.0
aF0.002152852529601722
aF0.0
aF0.01511879049676026
aF0.005970149253731343
aF0.0
aF0.0029906542056074765
aF0.015098722415795587
aF0.012958963282937365
aF0.0110803324099723
aF0.013754045307443365
aF0.009102730819245773
aF0.0030581039755351682
aF0.01072961373390558
aF0.014773776546629732
aF0.000731528895391368
aF0.011813349084465446
aF0.0
aF0.0032124827902707664
aF0.005235602094240838
aF0.0
aF0.0
aF0.0026109660574412533
aF0.0032701111837802484
aF0.0
aF0.001784121320249777
aF0.02190923317683881
aF0.03005635566687539
aF0.0023719165085388993
aF0.005952380952380952
aF0.0
aF0.0
aF0.0
aF0.0
aF0.0020931449502878076
aF0.004098360655737705
aF0.0
aF0.011255411255411256
aF0.0
aF0.0
aF0.007424775302852677
aF0.0
aF0.0
aF0.038461538461538464
aF0.009259259259259259
aF0.016203703703703703
aF0.01194921583271098
aF0.004998529844163481
aF0.008174386920980926
aF0.009433962264150943
aF0.0
aF0.009671179883945842
aF0.00797530228968356
aF0.009615384615384616
aF0.0
aF0.00966183574879227
aF0.006825938566552901
aF0.003917301414581066
aF0.004232057838123787
aF0.01002004008016032
aF0.002482555018786903
aF0.0
aF0.002997601918465228
aF0.0043859649122807015
aF0.0
aF0.0
aF0.005917159763313609
aF0.00779423226812159
aF0.0
aF0.00864304235090752
aF0.011892963330029732
aF0.0
aF0.0
aF0.008639910813823858
aF0.004922515952597994
aF0.013422818791946308
aF0.0027418723070896985
aF0.0
aF0.008695652173913044
aF0.014344262295081968
aF0.005698005698005698
aF0.004527162977867203
aF0.010446343779677113
aF0.0
aF0.003776585171934009
aF0.002268602540834846
aF0.0007564296520423601
aF0.0
aF0.005787037037037037
aF0.005986937590711176
aF0.014749262536873156
aF0.003234501347708895
aF0.0
aF0.0
aF0.0
aF0.007905138339920948
aF0.008291873963515755
aF0.010512483574244415
aF0.009389671361502348
aF0.006349206349206349
aF0.002150537634408602
aF0.006254598969830758
aF0.0
aF0.0015015015015015015
aF0.0037835792659856224
aF0.0043821209465381246
aF0.009230769230769232
aF0.005865102639296188
aF0.0020582181711261394
aF0.0064469914040114614
aF0.0022701475595913734
aF0.027156549520766772
aF0.010228166797797011
aF0.00440852314474651
aF0.003134796238244514
aF0.0
aF0.0
aF0.008910386965376781
aF0.00984009840098401
aF0.007827788649706457
aF0.010869565217391304
aF0.0
aF0.010264508487958943
aF0.0
aF0.003389830508474576
aF0.006143982903699746
aF0.0
aF0.0
aF0.014705882352941176
aF0.006200177147918512
aF0.0
aF0.004380272550292018
aF0.0
aF0.0
aF0.004819277108433735
aF0.0097856477166822
aF0.0
aF0.0
aF0.0013550135501355014
aF0.00974184120798831
aF0.0038314176245210726
aF0.0036376864314296106
aF0.002188183807439825
aF0.008106422781126586
aF0.0196078431372549
aF0.007680491551459293
aF0.005497685185185185
aF0.0
aF0.0
aF0.0
aF0.0
aF0.01694915254237288
aF0.005165289256198347
aF0.016227180527383367
aF0.01660899653979239
aF0.011361817890862538
aF0.0
aF0.0
aF0.02336448598130841
aF0.017467248908296942
aF0.0028735632183908046
aF0.012711864406779662
aF0.007897334649555774
aF0.010638297872340425
aF0.0
aF0.018867924528301886
aF0.0044444444444444444
aF0.035681610247026534
aF0.0032768978700163844
aF0.0
aF0.0022611644997173543
aF0.0037735849056603774
aF0.01282051282051282
aF0.0
aF0.0
aF0.006405693950177936
aF0.0025933609958506223
aF0.0
aF0.0
aF0.012042389210019268
aF0.0035714285714285713
aF0.0
aF0.0
aF0.002290950744558992
aF0.007297221442604546
aF0.010869565217391304
aF0.0
aF0.007905138339920948
aF0.011608623548922056
aF0.013636363636363636
aF0.0010482180293501049
aF0.0023161551823972205
aF0.0
aF0.0
aF0.016216216216216217
aF0.0
aF0.0
aF0.0
aF0.0
aF0.002976190476190476
aF0.009259259259259259
aF0.018217306441119064
aF0.0015917230401910067
aF0.002276176024279211
aF0.0
aI0
aF0.0
aF0.01056338028169014
aF0.004868549172346641
aF0.0
aF0.013550135501355014
aF0.003121748178980229
aF0.004431314623338257
aF0.004651162790697674
aF0.013872832369942197
aF0.00311262026032824
aF0.0
aF0.003841040035455754
aF0.004412146379444588
aF0.0
aF0.008179339594062406
aF0.0018726591760299626
aF0.003663003663003663
aF0.0
aF0.0070859167404783
aF0.002705139765554554
aF0.009287925696594427
aF0.0
aF0.0036730945821854912
aF0.001611170784103115
aF0.0
aF0.0016926838442730863
aF0.005847953216374269
aF0.01372891215823153
aF0.012224938875305624
aF0.0
aF0.00421674045962471
aF0.0
aF0.0018399264029438822
aF0.004258517034068136
aF0.0038560411311053984
aF0.005107252298263534
aF0.0033629594042757626
aF0.0
aF0.001725625539257981
aF0.0026455026455026454
aF0.0
aF0.0
aF0.0019286403085824494
aF0.002377179080824089
aF0.0016835016835016834
aF0.01100762066045724
aF0.012425021422450729
aF0.0
aF0.005747126436781609
aF0.005793742757821553
aF0.0
aF0.0
aF0.0055248618784530384
aF0.012096774193548387
aF0.0024855012427506215
aF0.0
aF0.008812615955473098
aF0.006571318129107074
aF0.0
aF0.0
aF0.002688172043010753
aF0.0
aF0.00641025641025641
aF0.0007880220646178094
aF0.0
aF0.005366726296958855
aF0.0
aF0.0
aF0.0
aF0.0
aF0.0045871559633027525
aF0.0017043033659991478
aF0.004820333041191937
aF0.0
aF0.0018552875695732839
aF0.006309148264984227
aF0.004866180048661801
aF0.006832934745473181
aF0.007556675062972292
aF0.0
aF0.0
aF0.0196078431372549
aF0.0023510971786833857
aF0.004528301886792453
aF0.0
aF0.0017814726840855108
aF0.0
aF0.0
aF0.0033783783783783786
aF0.0032258064516129032
aF0.0056179775280898875
aF0.0
aF0.009708737864077669
aF0.0031446540880503146
aF0.014218009478672985
aF0.0
aF0.013651877133105802
aF0.008319060435527282
aF0.0
aF0.0
aF0.0
aF0.003355704697986577
aF0.0
aF0.0031496062992125984
aF0.004845814977973568
aF0.007471980074719801
aF0.0
aF0.0
aF0.002347417840375587
aF0.0
aF0.0061770761839396015
aF0.00392156862745098
aF0.006057983556901774
aF0.0
aF0.0
aF0.0049261083743842365
aF0.006630500301386378
aF0.001459321415541773
aF0.002280501710376283
aF0.0
aF0.003389830508474576
aF0.009596928982725527
aF0.000715307582260372
aF0.005157487566771045
aF0.0
aF0.0038338658146964857
aF0.01911262798634812
aF0.0
aF0.0032948929159802307
aF0.012244897959183673
aF0.0057361376673040155
aF0.010309278350515464
aF0.006711409395973154
aF0.010165184243964422
aF0.007142857142857143
aF0.003215434083601286
aF0.005644402634054563
aF0.003069367710251688
aF0.0011918951132300357
aF0.0036371416345742404
aF0.0
aF0.00837424198671672
aF0.0
aF0.0030935808197989174
aF0.010884353741496598
aF0.0
aF0.009900990099009901
aF0.0
aF0.012987012987012988
aF0.014452473596442469
aF0.007159904534606206
aF0.003968253968253968
aF0.0021285653469561515
aF0.0
aF0.002304147465437788
aF0.0007513148009015778
aF0.0034403669724770644
aF0.006804825239715435
aF0.00974313551815766
aF0.0037423148890670943
aF0.01098901098901099
aF0.00628102522540776
aF0.00616083009079118
aF0.0
aF0.00847457627118644
aF0.003793266951161688
aF0.0
aF0.005194805194805195
aF0.0015600624024961
aF0.02145922746781116
aF0.002026342451874367
aF0.0011156563778356265
aF0.0
aF0.009148486980999296
aF0.0
aF0.0
aF0.0
aF0.0
aF0.0036496350364963502
aF0.003956478733926805
aF0.004431782209559987
aF0.0011160714285714285
aF0.010970927043335162
aF0.0029154518950437317
aF0.003669724770642202
aF0.003808073115003808
aF0.0
aF0.01089108910891089
aF0.0
aF0.0025974025974025974
aF0.004703423046772929
aF0.013888888888888888
aF0.0068846815834767644
aF0.0
aF0.0036215482118605704
aF0.0031113876789047915
aF0.004498830304120929
aF0.0
aF0.0040595399188092015
aF0.0037593984962406013
aF0.004267425320056899
aF0.0
aF0.007231404958677686
aF0.0
aF0.009397024275646046
aF0.047619047619047616
aF0.013584574934268186
aF0.0
aF0.00813953488372093
aF0.020833333333333332
aF0.014480408858603067
aF0.0
aF0.0
aF0.010329244673983214
aF0.0
aF0.001541623843782117
aF0.0024271844660194173
aF0.0075675675675675675
aF0.0
aF0.006191950464396285
aF0.0
aF0.011327879169288861
aF0.0
aF0.0
aF0.0017436791630340018
aF0.006165228113440197
aF0.007286755250750107
aF0.014317180616740088
aF0.0038809831824062097
aF0.0033821871476888386
aF0.0063371356147021544
aF0.009667823500247892
aF0.0
aF0.006260434056761269
aI0
aF0.012658227848101266
aF0.004743423889607589
aF0.0
aF0.0
aF0.0
aF0.006134969325153374
aF0.008976660682226212
aF0.025
aF0.01024390243902439
aF0.0037313432835820895
aF0.005298013245033113
aF0.0049833887043189366
aF0.0019880715705765406
aF0.006986027944111776
aF0.004842615012106538
aF0.0
aF0.032808838299296955
aF0.0
aF0.0
aF0.010676156583629894
aF0.0
aF0.010481493612839829
aF0.0
aF0.015645805592543277
aF0.0
aF0.0
aF0.022222222222222223
aF0.008845999195818254
aF0.003947368421052632
aF0.0
aF0.004975124378109453
aF0.00762673844773441
aF0.0048543689320388345
aF0.006499415052645262
aF0.007832386919913843
aF0.028696194635059263
aF0.05714285714285714
aF0.0
aF0.005263157894736842
aF0.011104617182933957
aF0.0021668472372697724
aF0.006688963210702341
aF0.005479452054794521
aF0.0
aF0.00528169014084507
aF0.022900763358778626
aF0.0035460992907801418
aF0.02250206440957886
aF0.04040404040404041
aF0.005673758865248227
aF0.009074410163339383
aF0.01417004048582996
aF0.0
aF0.0
aF0.0
aF0.0008156606851549756
aF0.009200690051753882
aF0.0
aF0.0
aF0.006322052807735217
aF0.0
aF0.0028129395218002813
aF0.0
aF0.0
aF0.008356545961002786
aF0.008905380333951763
aF0.007782101167315175
aF0.005309734513274336
aF0.013996889580093312
aF0.007045797684952189
aF0.004640371229698376
aF0.007465781833264205
aF0.0
aF0.0
aF0.0016260162601626016
aF0.0074875207986688855
aF0.0
aF0.0066200809121000365
aF0.0044585239938988615
aF0.0046282904252241824
aF0.002642007926023778
aF0.004310344827586207
aF0.0
aF0.0066844919786096255
aF0.006185567010309278
aF0.013333333333333334
aF0.003938946331856229
aF0.0033519553072625698
aF0.0
aF0.0
aF0.00641025641025641
aF0.0
aF0.01282051282051282
aF0.005043227665706052
aF0.006251562890722681
aF0.01015228426395939
aF0.022351797862001945
aF0.0
aF0.0
aF0.0
aF0.007414730598121601
aF0.0
aF0.0
aF0.010122311261071278
aF0.00669383003492433
aF0.0
aF0.007957559681697613
aF0.0
aF0.0
aF0.002004008016032064
aF0.006021306160259379
aF0.0025
aF0.0049382716049382715
aF0.0
aF0.0030511060259344014
aF0.010723860589812333
aF0.0
aF0.0
aF0.0
aF0.006405124099279423
aF0.0091324200913242
aF0.005165289256198347
aF0.0013407072230601643
aF0.0
aF0.009666283084004603
aF0.004434589800443459
aF0.012422360248447204
aF0.004849137931034483
aF0.0
aF0.004954101704793822
aF0.006732927220262905
aF0.0018096272167933405
aF0.0
aF0.0
aF0.0
aF0.0
aF0.0025157232704402514
aF0.0
aF0.0
aF0.021897810218978103
aF0.0047169811320754715
aF0.009569377990430622
aF0.0
aF0.0
aF0.009152719665271966
aF0.004878048780487805
aF0.012853470437017995
aF0.007692307692307693
aF0.0
aF0.0
aF0.009191176470588236
aF0.005608974358974359
aF0.0
aF0.005277044854881266
aF0.007339988256018791
aF0.0026676829268292685
aF0.0
aF0.0013297872340425532
aF0.010638297872340425
aF0.005076142131979695
aF0.0
aF0.002183406113537118
aF0.004341534008683068
aF0.0
aF0.0028137310073157004
aF0.013157894736842105
aF0.005941499085923218
aF0.002770083102493075
aF0.00273224043715847
aF0.0
aF0.0
aF0.010106245141228298
aF0.011396011396011397
aF0.0
aF0.008237232289950576
aF0.010416666666666666
aF0.0
aF0.011235955056179775
aF0.0062063615205585725
aF0.006723716381418093
aF0.00398406374501992
aF0.00408997955010225
aF0.0
aF0.003943217665615142
aF0.002364066193853428
aF0.013071895424836602
aF0.0016025641025641025
aF0.007480630510285867
aF0.0035026269702276708
aF0.006947557149260422
aF0.004130098089829634
aI0
aF0.0
aF0.0
aF0.008609271523178808
aF0.0
aF0.0
aF0.005138339920948616
aF0.0
aF0.0014388489208633094
aF0.0
aF0.005930318754633061
aF0.0
aF0.0026109660574412533
aF0.0047694753577106515
aF0.009846153846153846
aF0.005434782608695652
aF0.0064963187527068
aF0.013119533527696793
aF0.010471204188481676
aF0.01540436456996149
aF0.007451564828614009
aF0.008846426043878274
aF0.0027573529411764708
aF0.011494252873563218
aF0.016546762589928057
aF0.01525320317266626
aF0.006447587354409318
aF0.0
aF0.008
aF0.021828103683492497
aI0
aF0.006578947368421052
aF0.007470651013874066
aF0.0
aF0.0
aF0.0036576444769568397
aF0.01184956208140134
aF0.0
aF0.004070211142203002
aF0.0
aF0.00851063829787234
aF0.012658227848101266
aF0.0
aF0.0
aF0.003034243606415258
aF0.0
aF0.0
aF0.000630119722747322
aF0.01282051282051282
aF0.00909090909090909
aF0.0
aF0.012422360248447204
aF0.0
aF0.005246589716684155
aF0.007190265486725664
aF0.0
aF0.016697588126159554
aF0.0
aF0.0
aF0.003734827264239029
aF0.007338864071474154
aF0.0
aF0.0
aF0.0
aF0.0
aF0.009182736455463728
aF0.0
aF0.0
aF0.0
aF0.004107424960505529
aF0.044444444444444446
aF0.005177220230983672
aF0.013119533527696793
aF0.0
aF0.00976342470897484
aF0.0019569471624266144
aF0.008641975308641974
aF0.0
aF0.0
aF0.0
aF0.010686528497409326
aF0.010526315789473684
aF0.013385146804835924
aF0.007615230460921844
aF0.008064516129032258
aF0.005128205128205128
aF0.002952755905511811
aF0.006254886630179828
aF0.0
aF0.0
aF0.0054914881933003845
aF0.008108108108108109
aF0.0
aF0.025974025974025976
aF0.012135922330097087
aF0.011764705882352941
aF0.004398826979472141
aF0.0
aF0.0034129692832764505
aF0.0
aF0.06787330316742081
aF0.029411764705882353
aF0.0
aF0.009373668512995313
aF0.0
aF0.0
aF0.010526315789473684
aF0.0
aF0.005405405405405406
aF0.0
aF0.003355704697986577
aF0.0069767441860465115
aF0.015296367112810707
aF0.0
aF0.006728045325779037
aF0.003676470588235294
aF0.011146496815286623
aF0.0
aF0.0
aF0.0028530670470756064
aF0.0064516129032258064
aF0.003424657534246575
aF0.0
aF0.009700889248181084
aF0.0
aF0.0
aF0.0
aF0.0
aF0.0029411764705882353
aF0.0073475385745775165
aF0.009157509157509158
aF0.009523809523809525
aF0.0
aF0.0027397260273972603
aF0.0
aF0.0016611295681063123
aF0.0008849557522123894
aF0.005791505791505791
aF0.004135079255685734
aF0.007414571244358479
aF0.0
aF0.0
aF0.0116991643454039
aF0.013071895424836602
aF0.004707112970711297
aF0.011620400258231117
aF0.00822298163178129
aF0.0068297528871228115
aF0.007478632478632479
aF0.0
aF0.0
aF0.0
aF0.00823271130625686
aF0.009708737864077669
aF0.0
aF0.0
aF0.006944444444444444
aF0.00618921308576481
aF0.0
aF0.0
aF0.0027624309392265192
aF0.0
aF0.004966139954853273
aF0.0
aF0.0020876826722338203
aF0.006512301013024602
aF0.0
aF0.003618272274988693
aF0.0
aF0.016042780748663103
aF0.0041841004184100415
aF0.0
aF0.0026642984014209592
aF0.0
aF0.0024813895781637717
aF0.015957446808510637
aF0.004166666666666667
aF0.0
aF0.0
aF0.0024271844660194173
aF0.0
aF0.0
aF0.007259528130671506
aF0.0045351473922902496
aF0.0
aF0.006625891946992864
aF0.0
aF0.004578754578754579
aF0.0009033423667570009
aF0.001017293997965412
aF0.013513513513513514
aF0.004567513559805881
aF0.0015698587127158557
aF0.008361204013377926
aF0.0
aF0.004608294930875576
aF0.0
aF0.001829268292682927
aF0.0027839643652561247
aF0.0
aF0.004366812227074236
aF0.0128
aF0.0034387895460797797
aF0.004659418682050144
aF0.003147482014388489
aF0.00411522633744856
aF0.0026476039184537992
aF0.00904977375565611
aF0.00778642936596218
aF0.0012578616352201257
aF0.0008992805755395684
aF0.007931262392597489
aF0.011073663938372653
aF0.0
aF0.0038022813688212928
aI0
aI0
aF0.002849002849002849
aF0.0037735849056603774
aF0.010245901639344262
aF0.0035460992907801418
aF0.0
aF0.0
aF0.01282051282051282
aF0.0016625103906899418
aF0.0
aF0.0
aF0.0018624014022787028
aF0.006024096385542169
aF0.002420574886535552
aF0.0
aF0.0
aF0.0
aF0.001845585973546601
aF0.0
aF0.0
aF0.004728132387706856
aF0.007268464243845252
aF0.0022624434389140274
aF0.0034482758620689655
aF0.0018018018018018018
aF0.0015408320493066256
aF0.002749770852428964
aF0.00763016157989228
aF0.00784313725490196
aF0.0035714285714285713
aF0.0
aF0.007575757575757576
aF0.0032119914346895075
aF0.0
aF0.0
aF0.003355704697986577
aF0.0
aF0.0
aF0.01812688821752266
aF0.009126466753585397
aF0.004710632570659489
aF0.013054830287206266
aF0.0
aF0.004465458366167586
aF0.010111223458038422
aF0.008547008547008548
aF0.0
aF0.003292568203198495
aF0.003998400639744102
aF0.023809523809523808
aF0.006578947368421052
aF0.0039856516540454365
aF0.0
aF0.01131396245821548
aF0.0036127167630057803
aF0.0
aF0.0
aF0.006993006993006993
aF0.003025302530253025
aF0.0
aF0.0
aF0.009615384615384616
aF0.005123428039124359
aF0.0023094688221709007
aF0.005748961992973491
aF0.011764705882352941
aF0.01270772238514174
aI0
aF0.0
aF0.026143790849673203
aF0.009580838323353293
aF0.0010678056593699946
aF0.001989829759009507
aF0.0
aF0.0
aF0.0
aF0.0
aF0.006101854024876789
aF0.002304147465437788
aF0.002657218777679362
aF0.003738317757009346
aF0.0
aF0.003838771593090211
aF0.0
aF0.002099370188943317
aF0.0028109627547434997
aF0.002715751357875679
aF0.0
aF0.009793253536452665
aF0.006688963210702341
aF0.0
aF0.001488833746898263
aF0.004273504273504274
aF0.004463178775105381
aF0.0
aF0.006018054162487462
aF0.0030349013657056147
aF0.004545454545454545
aF0.0
aF0.007198952879581152
aF0.010187543412827044
aF0.020134228187919462
aF0.007042253521126761
aF0.0036900369003690036
aF0.004771642808452625
aF0.007285974499089253
aF0.017635532331809273
aF0.007267441860465116
aF0.003808487486398259
aI0
aF0.0023612750885478157
aF0.025974025974025976
aF0.0
aF0.0
aF0.0
aF0.014285714285714285
aF0.01327433628318584
aF0.0
aF0.005714285714285714
aF0.0
aF0.007518796992481203
aF0.0
aF0.0024009603841536613
aF0.0
aF0.0
aF0.0
aF0.0
aI0
aF0.0033783783783783786
aF0.008425145819831496
aF0.010792705619650168
aF0.0022271714922048997
aF0.022222222222222223
aF0.004833836858006042
aF0.019689987431922917
aF0.0061823802163833074
aF0.007407407407407408
aF0.0
aF0.003501264345458082
aF0.0
aF0.004518072289156626
aF0.0
aF0.00507185122569738
aF0.0027063599458728013
aF0.0
aF0.0
aF0.0
aF0.0
aF0.007918552036199095
aF0.006349206349206349
aF0.009009009009009009
aF0.03333333333333333
aF0.0
aF0.0
aF0.0
aF0.0
aF0.0
aF0.01557632398753894
aF0.005037783375314861
aF0.0025823111684958036
aF0.003431437244291936
aF0.0
aF0.007969592937714567
aF0.004355573153830924
aF0.0074211502782931356
aF0.0
aF0.0022727272727272726
aF0.0
aF0.0
aF0.0
aF0.011884550084889643
aF0.013856812933025405
aF0.0040650406504065045
aF0.009693053311793215
aF0.0
aF0.0072074835147983435
aF0.009770992366412214
aF0.005506141465480729
aF0.002336448598130841
aF0.0
aF0.005658852061438965
aF0.005582433941198363
aF0.0
aF0.007159904534606206
aF0.0024449877750611247
aF0.005341992248873992
aF0.00816869300911854
aF0.0029411764705882353
aF0.0053872053872053875
aF0.006677265500794912
aF0.0
aF0.0
aF0.0
aF0.0015255530129672007
aF0.0034775888717156105
aF0.02426837972876517
aF0.004746835443037975
aF0.0
aF0.0009791122715404699
aF0.0058823529411764705
aF0.0
aF0.010780056894744722
aF0.001951854261548471
aF0.005047672462142457
aF0.0016071428571428571
aF0.0034562211981566822
aF0.00606366851945427
aI0
aF0.0
aF0.006984126984126984
aF0.0018552875695732839
aF0.003362885967594008
aF0.00497131931166348
aF0.0036036036036036037
aF0.013703505961914931
aF0.009565857247976454
aF0.0027484449587733255
aF0.0024691358024691358
aF0.004366812227074236
aF0.006989247311827957
aF0.008902077151335312
aF0.013386880856760375
aF0.01607717041800643
aF0.005291005291005291
aF0.007236842105263158
aF0.0
aF0.0055658627087198514
aF0.0019120458891013384
aF0.0
aF0.0056406124093473006
aF0.0
aF0.0026575550493545936
aF0.023575638506876228
aF0.010869565217391304
aF0.006697282816685802
aF0.008310249307479225
aF0.0
aF0.003822264691829909
aF0.004701327433628319
aF0.01217391304347826
aF0.01749271137026239
aF0.0
aF0.004129703273172224
aF0.004987531172069825
aF0.0045045045045045045
aF0.006013119533527697
aF0.03231597845601436
aF0.005235602094240838
aF0.0028364323983611725
aF0.006936416184971098
aF0.0
aF0.002275960170697013
aF0.0056022408963585435
aF0.0
aF0.003169572107765452
aF0.0029498525073746312
aF0.004177234074295092
aF0.01557632398753894
aF0.0
aF0.007876712328767124
aF0.013452914798206279
aF0.007853403141361256
aF0.014893617021276596
aF0.003734827264239029
aF0.006896551724137931
aF0.003816793893129771
aF0.0
aF0.009320905459387484
aF0.015151515151515152
aF0.0031446540880503146
aF0.01232394366197183
aF0.02197802197802198
aF0.014084507042253521
aF0.0017825311942959
aF0.0050057758952637655
aF0.022292993630573247
aF0.012987012987012988
aF0.0
aF0.007730147575544624
aI0
aF0.0
aF0.004424778761061947
aF0.004901960784313725
aF0.007739938080495356
aF0.0016835016835016834
aF0.0
aF0.003161222339304531
aF0.0
aF0.0
aF0.0
aF0.010760953112990008
aF0.0077951002227171495
aF0.0
aF0.004934210526315789
aF0.015238095238095238
aF0.0
aF0.00392156862745098
aF0.0
aF0.004784688995215311
aF0.008488964346349746
aF0.0
aF0.004329004329004329
aF0.0
aF0.0
aF0.008493888543608866
aF0.06818181818181818
aF0.0
aF0.007352941176470588
aF0.0
aF0.003450655624568668
aF0.009154929577464789
aF0.0
aF0.0
aF0.00667779632721202
aF0.0023715415019762848
aF0.006183249016301293
aF0.0
aF0.0
aF0.017326732673267328
aF0.00273224043715847
aF0.004868549172346641
aF0.0
aF0.009727626459143969
aF0.0016778523489932886
aF0.0
aF0.0
aF0.0
aF0.0
aF0.00623475196530225
aF0.009700889248181084
aF0.0025897790055248618
aF0.003952569169960474
aF0.0
aF0.0021133525456292026
aF0.005722460658082976
aF0.004116436342252279
aF0.0027743526510480886
aF0.005025125628140704
aF0.0
aF0.0
aF0.0011841326228537595
aF0.004335260115606936
aF0.0
aF0.005407493240633449
aF0.006488824801730353
aF0.005454545454545455
aF0.0
aF0.0
aF0.003913894324853229
aF0.002818489289740699
aF0.00625
aF0.004514672686230248
aF0.003393665158371041
aF0.0016339869281045752
aF0.005494505494505495
aF0.0
aF0.00980392156862745
aF0.01281085154483798
aF0.010967098703888335
aF0.006815968841285297
aF0.003389830508474576
aF0.0
aF0.001183431952662722
aF0.0
aF0.0017998560115190785
aF0.0
aF0.0046439628482972135
aF0.0014970059880239522
aF0.0024242424242424242
aF0.0017397355601948504
aF0.0
aF0.00696165191740413
aF0.0007993605115907274
aF0.0038095238095238095
aF0.0
aF0.016551724137931035
aF0.0
aF0.0
aF0.0014932802389248383
aF0.006153846153846154
aF0.010526315789473684
aF0.004664866191996072
aF0.0
aF0.004242424242424243
aF0.011895321173671689
aF0.0
aF0.0
aF0.0
aF0.0
aF0.007782101167315175
aF0.004961020552799433
aF0.002061855670103093
aF0.0012004801920768306
aF0.006259780907668232
aF0.028708133971291867
aF0.0047169811320754715
aF0.01195219123505976
aF0.0
aF0.010948905109489052
aF0.009537784299339692
aF0.008849557522123894
aF0.0024906600249066002
aF0.004415011037527594
aF0.012318840579710146
aF0.00505902192242833
aF0.0049504950495049506
aF0.002391629297458894
aF0.004758128469468675
aF0.002277904328018223
aF0.0
aF0.0
aF0.0036496350364963502
aF0.0
aF0.010471204188481676
aF0.016332590942835932
aF0.011661807580174927
aF0.0031746031746031746
aF0.002793296089385475
aF0.015748031496062992
aF0.016237623762376238
aF0.0010224948875255625
aF0.0
aF0.004024144869215292
aF0.0
aF0.0028595939376608523
aF0.005649717514124294
aF0.0
aF0.0
aF0.005049229992426155
aF0.0
aF0.0
aF0.002898550724637681
aF0.0021413276231263384
aF0.0
aF0.0038535645472061657
aF0.0
aF0.00760043431053203
aF0.0065609622744669215
aF0.009042196918955124
aF0.0
aF0.005591524426133019
aF0.0058823529411764705
aF0.010526315789473684
aF0.03571428571428571
aF0.022443890274314215
aF0.0067226890756302525
aF0.0
aF0.0019011406844106464
aF0.004961659900766802
aF0.0
aF0.005387931034482759
aF0.04
aF0.0
aF0.02564102564102564
aF0.005319148936170213
aF0.004433497536945813
aF0.002109704641350211
aF0.0030845157310302285
aF0.0
aF0.0005991611743559018
aF0.007142857142857143
aF0.023017902813299233
aF0.0
aF0.005349099099099099
aF0.005847953216374269
aF0.008376963350785341
aF0.0024232633279483036
aF0.0
aF0.03296703296703297
aF0.0035120580660266917
aF0.0
aF0.0
aF0.0
aF0.018518518518518517
aF0.0069767441860465115
aI0
aF0.0057361376673040155
aF0.008130081300813009
aF0.009599096555618294
aF0.0
aF0.0034142640364188165
aF0.002574002574002574
aF0.005509641873278237
aF0.0
aF0.0
aF0.006734992679355783
aF0.0
aF0.0
aF0.0004420866489832007
aF0.0022900763358778627
aF0.0
aF0.007908611599297012
aF0.0023584905660377358
aF0.0050933786078098476
aF0.0011160714285714285
aF0.006357279084551812
aF0.002053388090349076
aF0.005196936542669584
aF0.0
aF0.0028549182455229693
aF0.004056795131845842
aF0.0182648401826484
aF0.005688622754491018
aF0.0064516129032258064
aF0.0
aF0.009018294254058232
aF0.003657978966620942
aF0.003432003432003432
aF0.002527646129541864
aF0.0035248501938667607
aF0.0
aF0.0010235414534288639
aF0.0
aF0.0
aF0.0035945363048166786
aF0.0033222591362126247
aF0.003105590062111801
aF0.00389321468298109
aF0.0008130081300813008
aF0.015789473684210527
aF0.009208103130755065
aF0.0013568521031207597
aF0.006696428571428571
aF0.0011198208286674132
aF0.0016792611251049538
aF0.0
aF0.027777777777777776
aF0.007404795486600846
aF0.0
aF0.0027063599458728013
aF0.002849002849002849
aF0.0
aF0.005772005772005772
aF0.007575757575757576
aF0.0018148820326678765
aF0.0
aF0.0038328861632809506
aF0.005842259006815969
aF0.0
aF0.006371359223300971
aF0.004672897196261682
aF0.0033003300330033004
aF0.0
aF0.0
aF0.0
aF0.002243829468960359
aF0.0
aF0.0
aF0.0045871559633027525
aF0.0005271481286241434
aF0.005714285714285714
aF0.003289473684210526
aF0.002509410288582183
aF0.006590187942396876
aF0.0
aF0.008426966292134831
aF0.0
aF0.002824858757062147
aF0.0031446540880503146
aF0.0
aF0.004764425622022234
aF0.0050022737608003635
aF0.002506265664160401
aF0.0
aF0.0019880715705765406
aF0.0
aF0.0006531678641410843
aF0.002927088877062267
aI0
aF0.004604758250191865
aF0.0
aF0.0
aF0.010638297872340425
aF0.0015267175572519084
aF0.0
aF0.009280742459396751
aF0.009793919608243216
aF0.005172413793103448
aF0.008381120423467137
aF0.009936575052854123
aF0.001142857142857143
aF0.0021141649048625794
aF0.004366812227074236
aF0.012217470983506415
aF0.006756756756756757
aF0.012422360248447204
aF0.005838198498748957
aF0.0
aF0.004481792717086834
aF0.0
aF0.0
aF0.002527379949452401
aF0.0
aF0.006578947368421052
aF0.0
aF0.001321003963011889
aF0.0005681818181818182
aF0.0
aF0.0027247956403269754
aF0.010261854210898797
aF0.0
aF0.0
aF0.009009009009009009
aF0.0
aF0.0
aF0.00622876557191393
aF0.01674641148325359
aF0.0008143322475570033
aF0.0
aF0.006702412868632708
aF0.00922266139657444
aF0.010280373831775701
aF0.005907837731390311
aF0.0018867924528301887
aF0.005115089514066497
aF0.0
aF0.005535055350553505
aF0.0
aF0.00686106346483705
aF0.010940919037199124
aF0.0
aF0.008237986270022883
aF0.0018709073900841909
aF0.011235955056179775
aF0.0
aF0.0
aF0.0
aF0.0
aF0.0
aF0.0
aF0.0
aF0.0066555740432612314
aF0.004310344827586207
aF0.0
aF0.0017301038062283738
aF0.023121387283236993
aF0.011841695232159551
aF0.02631578947368421
aF0.00727802037845706
aF0.004878048780487805
aF0.0020920502092050207
aF0.0
aF0.0022753128555176336
aF0.00585197934595525
aF0.005555555555555556
aF0.0
aF0.0041928721174004195
aF0.017716535433070866
aF0.0
aF0.029861111111111113
aF0.006389776357827476
aF0.0
aF0.005281424475629999
aF0.0037874160048869884
aF0.0
aF0.0
aF0.0
aF0.0
aF0.0071090047393364926
aF0.02824858757062147
aF0.0
aF0.0023112480739599386
aF0.0035714285714285713
aI0
aF0.00796812749003984
aF0.009009009009009009
aF0.003231763619575254
aF0.004601226993865031
aF0.0
aF0.0
aF0.002495321272613849
aI0
aF0.0
aF0.0
aF0.0014326647564469914
aF0.0019083969465648854
aF0.004618937644341801
aF0.0
aF0.0
aF0.0
aF0.0015408320493066256
aF0.0
aF0.0
aF0.008506616257088847
aF0.001567398119122257
aF0.0016488046166529267
aF0.0034797738147020443
aF0.00510204081632653
aF0.0
aF0.007575757575757576
aF0.0
aF0.004643650312941652
aF0.005263157894736842
aF0.0022271714922048997
aF0.005491153142159854
aF0.0
aF0.0
aF0.0
aF0.0039040713887339654
aF0.0
aF0.0021853146853146855
aF0.0006825938566552901
aF0.0038809831824062097
aF0.0
aF0.0072501294665976174
aF0.0070921985815602835
aF0.005500550055005501
aF0.0
aF0.002449779519843214
aF0.0015290519877675841
aF0.0021141649048625794
aF0.0009891196834817012
aF0.005230125523012552
aF0.004098360655737705
aF0.0
aF0.026442307692307692
aF0.0
aF0.0063532401524777635
aF0.0024232633279483036
aF0.0014958863126402393
aF0.0027397260273972603
aF0.006128702757916241
aF0.0015682174594877157
aF0.0
aF0.002430379746835443
aF0.013565891472868217
aF0.0
aF0.00211118930330753
aF0.004431969271679716
aF0.0
aF0.0
aF0.009883970777825527
aF0.0027752081406105457
aF0.004
aF0.0076520338300443014
aF0.0031397174254317113
aF0.0053475935828877
aF0.005644402634054563
aF0.002564102564102564
aF0.0
aF0.008333333333333333
aF0.0
aF0.010723860589812333
aF0.0
aF0.0
aF0.0
aF0.0
aF0.0
aF0.010444398935080893
aF0.009950248756218905
aF0.0
aF0.007042253521126761
aF0.0
aF0.009287925696594427
aF0.004166666666666667
aF0.005499153976311337
aF0.002034587995930824
aF0.022026431718061675
aF0.004739336492890996
aF0.0
aF0.011655011655011656
aF0.00547112462006079
aF0.004084014002333722
aF0.005178522758244753
aF0.002580169553999263
aF0.0036596523330283625
aF0.0017211703958691911
aF0.006640625
aF0.0
aF0.004269854824935952
aF0.0017462165308498253
aF0.004499171205304286
aF0.013537906137184115
aF0.0033003300330033004
aF0.008403361344537815
aF0.0
aF0.005128205128205128
aF0.005016722408026756
aF0.02416452442159383
aF0.0
aF0.0018018018018018018
aF0.002642007926023778
aF0.0057684384013185
aF0.0
aF0.001994415636218588
aF0.006024096385542169
aF0.007263922518159807
aF0.0
aF0.0025806451612903226
aF0.005494505494505495
aF0.006396588486140725
aF0.018691588785046728
aF0.004479283314669653
aF0.0
aF0.0
aF0.010064043915827997
aF0.008681925808997633
aF0.008328375966686495
aF0.013729977116704805
aF0.0056022408963585435
aF0.008290317534803691
aF0.0
aF0.006489675516224189
aF0.008051529790660225
aF0.014108489418632936
aF0.0019029495718363464
aF0.007612667478684531
aF0.002380952380952381
aF0.0
aF0.0
aF0.004784688995215311
aF0.0
aF0.006857142857142857
aF0.0
aF0.0
aF0.005274261603375527
aF0.011161846778285134
aF0.002126151665485471
aF0.002014098690835851
aF0.004878048780487805
aF0.0027624309392265192
aF0.009468700683850605
aF0.008368200836820083
aF0.026490066225165563
aF0.0
aF0.0
aF0.0030176415970287838
aF0.004830917874396135
aF0.011834319526627219
aF0.0
aF0.0017452006980802793
aF0.0
aF0.004552352048558422
aF0.0035629453681710215
aF0.0
aF0.007572172266919072
aF0.0056625141562853904
aF0.0010438413361169101
aF0.013040494166094716
aF0.011308562197092083
aF0.0060790273556231
aF0.0
aF0.010752688172043012
aF0.0
aF0.03504380475594493
aF0.0
aF0.011467889908256881
aF0.0
aF0.005751258087706686
aF0.0
aF0.005835764902042517
aF0.0024691358024691358
aF0.0
aF0.004803843074459567
aF0.0
aF0.00261437908496732
aF0.0062402496099844
aF0.0
aI0
aF0.006562910181886368
aF0.010611735330836454
aF0.004830917874396135
aF0.0011737089201877935
aF0.0
aF0.0
aF0.0
aF0.0
aF0.0031780821917808217
aF0.0
aF0.0
aF0.0
aF0.0058823529411764705
aF0.0
aF0.001644736842105263
aF0.002512562814070352
aF0.0
aF0.0038314176245210726
aI0
aF0.0011682242990654205
aF0.0
aF0.0
aF0.006896551724137931
aF0.0
aF0.0035460992907801418
aF0.0034154671871188093
aF0.005149330587023687
aF0.0016025641025641025
aF0.01126573889993373
aF0.011695906432748537
aF0.00641025641025641
aF0.0
aF0.0
aF0.007246376811594203
aF0.005208333333333333
aF0.013262599469496022
aF0.00583941605839416
aF0.013140604467805518
aF0.007209425004395991
aF0.0
aF0.004207573632538569
aF0.01282051282051282
aF0.0030303030303030303
aF0.0019029495718363464
aF0.06666666666666667
aF0.0
aF0.0065252854812398045
aF0.08333333333333333
aF0.0033112582781456954
aF0.0
aF0.010526315789473684
aF0.004261363636363636
aF0.013953488372093023
aF0.003745318352059925
aF0.003389830508474576
aF0.003756574004507889
aF0.006108202443280977
aF0.010347572300344918
aF0.002380952380952381
aF0.0036850921273031824
aF0.0
aF0.0
aF0.012791228871630882
aF0.0
aF0.007619047619047619
aF0.008336989907854322
aF0.0
aF0.005997001499250375
aF0.00718849840255591
aF0.006741573033707865
aF0.0
aF0.0
aF0.0
aF0.0028735632183908046
aF0.0
aF0.0
aF0.00402067777139575
aF0.004634994206257242
aF0.003898635477582846
aF0.0037641154328732747
aF0.011848341232227487
aF0.0125
aF0.017241379310344827
aF0.0012987012987012987
aF0.0
aF0.0029154518950437317
aF0.0011627906976744186
aF0.002304147465437788
aF0.0
aF0.0
aF0.005625879043600563
aF0.0
aF0.0
aF0.006745362563237774
aF0.005122950819672131
aF0.0033585222502099076
aF0.0
aF0.0
aF0.0
aF0.005352112676056338
aF0.012062726176115802
aF0.007936507936507936
aF0.007690567744854105
aF0.0024154589371980675
aF0.006134969325153374
aF0.0
aF0.004528985507246377
aF0.0108499095840868
aF0.0032520325203252032
aF0.0
aF0.006760270410816433
aF0.0
aF0.0048638132295719845
aF0.0
aF0.001564945226917058
aF0.006944444444444444
aF0.0
aF0.019550342130987292
aF0.0018608113137327876
aF0.0
aF0.01096319498825372
aF0.0
aF0.0029850746268656717
aF0.005168986083499006
aF0.0
aF0.007462686567164179
aF0.0035087719298245615
aF0.0
aF0.0
aF0.017391304347826087
aF0.003952569169960474
aF0.004048582995951417
aF0.005855290673358427
aF0.012987012987012988
aF0.010638297872340425
aF0.00670926517571885
aF0.0
aF0.006581834137779728
aF0.0
aF0.0
aF0.047619047619047616
aF0.0
aF0.0
aF0.0
aF0.002183406113537118
aF0.005698005698005698
aF0.003976143141153081
aF0.002105263157894737
aF0.010782551870609378
aF0.009174311926605505
aF0.0075
aF0.010707911957168352
aF0.0015822784810126582
aF0.0
aF0.0
aF0.0
aF0.017276422764227643
aF0.0
aF0.0018018018018018018
aF0.0
aF0.007032348804500703
aF0.0
aF0.0
aF0.0
aF0.0073964497041420114
aF0.006276150627615063
aF0.0
aF0.018444266238973536
aF0.0
aF0.0
aF0.006156552330694811
aF0.005119453924914676
aF0.006191950464396285
aF0.007008086253369272
aF0.0
aF0.005735140771637122
aF0.005862646566164154
aF0.001736111111111111
aF0.0034482758620689655
aF0.008433734939759036
aF0.0031380753138075313
aF0.0
aF0.0
aF0.0
aF0.0052732502396931925
aF0.0
aF0.0
aF0.006662225183211193
aF0.0
aF0.0051813471502590676
aF0.007508397549891326
aF0.0038095238095238095
aF0.0
aF0.004069175991861648
aF0.0
aF0.0
aF0.003922667413841412
aF0.005547850208044383
aF0.019933554817275746
aF0.0037593984962406013
aF0.0
aF0.0
aF0.002621231979030144
aF0.0
aF0.0014771048744460858
aF0.005253940455341506
aF0.0
aF0.0
aF0.0
aF0.0
aF0.0024449877750611247
aF0.0
aF0.0023014959723820483
aF0.0
aF0.0
aF0.0
aF0.005236907730673317
aF0.017316017316017316
aF0.0040650406504065045
aF0.0
aF0.005990133897110641
aF0.0
aF0.003135342274865006
aF0.005606166783461808
aF0.007493188010899182
aF0.0018656716417910447
aF0.0022123893805309734
aF0.00707361802462667
aF0.006762468300929839
aF0.004625346901017576
aF0.0029411764705882353
aF0.009718172983479106
aF0.01694915254237288
aF0.003875968992248062
aF0.0
aF0.01444043321299639
aF0.0015372790161414297
aF0.0
aF0.004545454545454545
aF0.0
aF0.0
aF0.0
aF0.0
aF0.0030120481927710845
aF0.0
aF0.0
aF0.0
aF0.005411255411255411
aF0.004415347137637028
aF0.0030303030303030303
aF0.0
aF0.0029988465974625142
aF0.005763688760806916
aF0.004338394793926247
aF0.004672897196261682
aF0.0
aF0.011358671909130624
aF0.0006527415143603133
aF0.0
aF0.0
aF0.0015584415584415584
aF0.008097165991902834
aF0.003416856492027335
aF0.0
aF0.002653927813163482
aF0.0
aF0.00410958904109589
aF0.004839049021670524
aF0.011472275334608031
aF0.027777777777777776
aF0.0
aF0.016517857142857143
aF0.0038554216867469878
aF0.028169014084507043
aF0.003105590062111801
aF0.003861003861003861
aF0.002583979328165375
aF0.008097165991902834
aF0.007692307692307693
aF0.009468317552804079
aF0.010101010101010102
aF0.0
aF0.007522567703109328
aF0.0025210084033613447
aF0.005015224789539674
aF0.004454342984409799
aF0.01383399209486166
aF0.002288329519450801
aF0.001763668430335097
aF0.0033944331296673455
aF0.005150214592274678
aF0.005221932114882507
aF0.005750798722044728
aF0.009193054136874362
aF0.0
aF0.0014492753623188406
aF0.008418837148118917
aF0.013029315960912053
aF0.007352941176470588
aF0.0
aF0.0
aF0.017769002961500493
aF0.002244165170556553
aF0.0
aF0.0
aF0.02040816326530612
aF0.0
aF0.0
aF0.00398406374501992
aF0.0
aF0.0
aF0.0
aF0.0044444444444444444
aF0.006920415224913495
aF0.0016806722689075631
aF0.0
aF0.0030592734225621415
aF0.007357102433503113
aF0.00665266106442577
aF0.01707317073170732
aF0.001282051282051282
aF0.009313154831199068
aF0.0018165304268846503
aF0.0
aF0.0
aF0.025806451612903226
aF0.0
aF0.016412661195779603
aF0.0025284450063211127
aF0.0
aF0.004827586206896552
aF0.010897672700406353
aF0.0
aF0.007722007722007722
aF0.009939498703543647
aF0.009445100354191263
aF0.0018198362147406734
aF0.0
aF0.0
aF0.0030718336483931945
aF0.002208317997791682
aF0.0030303030303030303
aF0.003992015968063872
aF0.03139013452914798
aF0.002320185614849188
aF0.0
aF0.005405405405405406
aF0.002331002331002331
aF0.007954545454545454
aF0.012944983818770227
aF0.002186588921282799
aF0.0
aF0.0
aF0.0074091778202676865
aF0.0
aF0.0
aF0.0
aF0.0017953321364452424
aF0.0
aF0.00477534187106577
aF0.008532049879676219
aF0.027777777777777776
aF0.007510109763142692
aF0.0
aF0.0
aF0.006562756357670222
aF0.0
aF0.006593406593406593
aF0.00667302192564347
aF0.011075219197046609
aF0.008849557522123894
aF0.0
aF0.0
aF0.017584994138335287
aF0.0019230769230769232
aF0.0
aF0.029411764705882353
aF0.007991475759190196
aF0.0
aF0.0043586550435865505
aF0.005263157894736842
aF0.004975124378109453
aF0.007631160572337043
aF0.012201073694485115
aF0.0030257186081694403
aF0.00881057268722467
aF0.011250827266710787
aF0.009896536212325686
aF0.0
aF0.004366812227074236
aF0.0
aF0.006172839506172839
aF0.0010256410256410256
aF0.0
aF0.006874241811564901
aF0.004590226642440471
aF0.0035612535612535613
aF0.0
aF0.009208103130755065
aF0.003986332574031891
aF0.002628120893561104
aF0.0026109660574412533
aF0.004552352048558422
aF0.02040816326530612
aF0.0
aI0
aF0.010090960773166572
aF0.00788912579957356
aF0.0014591439688715954
aF0.011634452993056859
aF0.009590500837265946
aF0.0
aF0.0069320657555951674
aF0.004454342984409799
aF0.0
aI0
aF0.00832012678288431
aF0.0
aF0.005451713395638629
aF0.006003654398329418
aF0.007019783024888321
aF0.003740648379052369
aF0.001036001036001036
aF0.022336769759450172
aF0.0034831069313827935
aF0.0
aF0.0
aF0.0
aF0.004896626768226333
aF0.0
aF0.005191256830601093
aF0.009185936015204309
aF0.033421750663129975
aF0.0
aF0.0
aF0.015151515151515152
aF0.014109347442680775
aF0.0
aF0.0018598884066955983
aF0.015027322404371584
aF0.004016064257028112
aF0.005305039787798408
aF0.0
aF0.0
aF0.0
aF0.0
aF0.015957446808510637
aF0.007246376811594203
aF0.0
aF0.009615384615384616
aF0.007738607050730868
aF0.0
aF0.004548900682335102
aF0.007057163020465773
aF0.0
aF0.013761467889908258
aF0.005244755244755245
aF0.009019843656043296
aF0.0038022813688212928
aF0.006715916722632639
aF0.0043499275012083135
aF0.0026200873362445414
aF0.0
aF0.0
aF0.00411522633744856
aF0.004732739420935412
aF0.005208333333333333
aF0.0
aF0.0
aF0.004424778761061947
aF0.0018298261665141812
aF0.007989347536617843
aF0.0
aF0.006217277486910994
aF0.014858841010401188
aF0.003050640634533252
aF0.0
aF0.001183431952662722
aF0.0017661603673613563
aF0.006702412868632708
aF0.005908419497784343
aF0.0
aF0.0
aF0.0011142061281337048
aF0.0
aF0.0
aF0.005389221556886228
aF0.001422475106685633
aF0.01702409904930356
aF0.011217948717948718
aF0.006189821182943604
aF0.029605263157894735
aF0.01968503937007874
aF0.009021842355175688
aF0.010086455331412104
aF0.027586206896551724
aF0.007412898443291327
aF0.015299026425591099
aF0.0
aF0.024336283185840708
aF0.0028089887640449437
aF0.0
aF0.0
aF0.014388489208633094
aF0.0013449899125756557
aF0.001402524544179523
aF0.004991680532445923
aF0.0
aF0.007820136852394917
aF0.0043782837127845885
aF0.00354251012145749
aF0.0031928480204342275
aF0.0
aF0.004858736728450603
aF0.003968253968253968
aF0.007230915125651968
aF0.0075046904315197
aF0.0
aF0.0
aF0.01098901098901099
aF0.0032397408207343412
aF0.0
aF0.0
aF0.0028763183125599234
aF0.0010141987829614604
aF0.017754569190600523
aF0.0
aF0.0030581039755351682
aF0.014861995753715499
aF0.007281553398058253
aF0.007155635062611807
aF0.0057306590257879654
aF0.0041025641025641026
aF0.0078003120124804995
aF0.02188679245283019
aF0.003735325506937033
aF0.0
aF0.008264462809917356
aF0.0026595744680851063
aF0.004629629629629629
aF0.0
aF0.0026666666666666666
aF0.0
aF0.003105590062111801
aF0.0
aF0.0
aF0.0020898641588296763
aF0.0
aF0.007385524372230428
aF0.0
aF0.004953998584571833
aF0.050724637681159424
aF0.039927404718693285
aF0.0029940119760479044
aF0.0
aF0.016272189349112426
aF0.0
aF0.01935483870967742
aF0.0018256503879507074
aF0.0020931449502878076
aF0.0
aF0.0
aF0.01504424778761062
aF0.008032128514056224
aF0.01228220508426164
aF0.013401403956604978
aF0.02328159645232816
aF0.0022522522522522522
aF0.00979706088173548
aF0.0
aF0.017517136329017517
aF0.012987012987012988
aF0.007656967840735069
aF0.0033967391304347825
aF0.0
aF0.0
aF0.00473186119873817
aF0.0
aF0.009724473257698542
aF0.0
aF0.003126085446335533
aF0.002570694087403599
aF0.027932960893854747
aF0.0
aF0.005798629414865577
aF0.0
aF0.012003000750187547
aF0.0
aF0.006411837237977805
aF0.0
aF0.008064516129032258
aF0.005867014341590613
aF0.005305039787798408
aF0.0
aF0.00702576112412178
aF0.009188361408882083
aF0.002857142857142857
aF0.0
aF0.0053475935828877
aF0.01282051282051282
aF0.006172839506172839
aF0.0
aF0.007336343115124154
aF0.004022988505747126
aF0.004897159647404506
aF0.0
aF0.002441576560865016
aF0.01016260162601626
aF0.0
aF0.0036913990402362494
aF0.005136986301369863
aF0.0
aF0.0
aF0.0017094017094017094
aF0.004784688995215311
aF0.0
aF0.0
aF0.0003325573661456601
aF0.0
aF0.007476454024662588
aF0.005608131791097091
aF0.004651162790697674
aF0.002898550724637681
aF0.006535947712418301
aF0.0032310177705977385
aF0.005984042553191489
aF0.0
aF0.0
aF0.0
aF0.0
aF0.0
aF0.003667033370003667
aI0
aF0.0
aF0.0
aF0.002838221381267739
aF0.01818181818181818
aF0.006593406593406593
aF0.0027266530334014998
aF0.0
aF0.004574565416285453
aF0.011574697173620458
aF0.00425531914893617
aF0.007042253521126761
aF0.0
aF0.002405949256342957
aF0.0
aF0.0038412291933418692
aF0.0
aF0.004901960784313725
aF0.0023923444976076554
aF0.003852889667250438
aF0.0057166190281747655
aF0.0
aF0.0017331022530329288
aF0.0
aF0.006171887054466903
aF0.006572769953051643
aF0.009294696555494806
aF0.00675219446320054
aF0.0
aF0.007671615024409684
aF0.008321096426823299
aF0.014705882352941176
aF0.002512562814070352
aF0.0
aF0.009379590914227597
aF0.0
aF0.0038197097020626434
aF0.0
aF0.0
aF0.0013531799729364006
aF0.0
aF0.0
aF0.0
aF0.0
aF0.011516314779270634
aF0.0052227342549923195
aF0.004975124378109453
aF0.00975609756097561
aF0.0037359900373599006
aF0.023255813953488372
aF0.029850746268656716
aF0.005952380952380952
aF0.006603502727533735
aF0.0024330900243309003
aF0.0030581039755351682
aF0.007931665649786455
aF0.006753904601097509
aF0.022857142857142857
aF0.0
aF0.0032085561497326204
aF0.007270323859881031
aF0.009861932938856016
aF0.0
aF0.009111617312072893
aF0.005208333333333333
aF0.005566600397614314
aF0.0
aF0.0026720106880427524
aF0.0009057971014492754
aF0.007177033492822967
aF0.005
aF0.002527379949452401
aF0.005025125628140704
aF0.009394572025052192
aF0.012345679012345678
aF0.025134649910233394
aF0.01001669449081803
aF0.0019193857965451055
aF0.002398081534772182
aF0.031746031746031744
aF0.0
aF0.003861003861003861
aF0.02771855010660981
aF0.004857737682165163
aF0.0
aF0.018072289156626505
aF0.0056110578896948135
aF0.006802721088435374
aF0.010101010101010102
aF0.005988771054273237
aF0.008695652173913044
aF0.0021598272138228943
aF0.006646358349487676
aF0.0012970168612191958
aF0.0055617352614015575
aF0.0
aF0.008950366151342554
aF0.005472281703545087
aF0.004460711426283884
aF0.00676818950930626
aF0.008901605468129074
aF0.008985879332477536
aF0.004634994206257242
aF0.004878048780487805
aF0.0029211295034079843
aF0.007995348161069922
aF0.003931847968545216
aF0.024844720496894408
aF0.009592326139088728
aF0.004784688995215311
aF0.0011248593925759281
aF0.0
aF0.0057405281285878304
aF0.0
aF0.0
aF0.005668016194331984
aF0.003795066413662239
aF0.005995203836930456
aF0.013415315818893237
aF0.00487012987012987
aF0.014751075599262446
aF0.021834061135371178
aF0.007238883143743537
aF0.0
aF0.0
aF0.003805899143672693
aF0.0
aF0.0
aF0.004067796610169492
aF0.010471204188481676
aF0.010309278350515464
aF0.005235602094240838
aF0.0
aF0.0031746031746031746
aF0.0
aF0.0048814504881450485
aF0.006578947368421052
aF0.0
aF0.0
aF0.010245901639344262
aF0.0041116005873715125
aF0.003374233128834356
aF0.0
aF0.007696344236487669
aF0.005909924597513756
aF0.014578833693304536
aF0.0
aF0.0036101083032490976
aF0.0
aF0.0
aF0.0
aF0.0006693440428380187
aF0.016469857054070853
aF0.005094614264919942
aF0.028708133971291867
aF0.005952380952380952
aF0.0035158211953792064
aF0.009655296877819889
aF0.0023719165085388993
aF0.0041841004184100415
aF0.0
aF0.0
aF0.01557338367154318
aF0.010101010101010102
aF0.0
aF0.008203445447087777
aF0.005502063273727648
aF0.00597609561752988
aF0.0
aF0.0
aF0.0
aF0.001026694045174538
aF0.0
aF0.0034063260340632603
aF0.0009165902841429881
aF0.0
aF0.0027818254073387204
aF0.0
aF0.0
aF0.004469273743016759
aF0.0
aF0.0
aF0.0
aF0.0007077140835102619
aF0.0
aF0.0
aF0.005917159763313609
aF0.0008561643835616438
aF0.030927835051546393
aF0.0
aF0.0
aF0.0009940357852882703
aF0.0
aF0.0
aF0.0
aF0.0
aF0.0
aF0.0
aF0.0
aF0.0
aF0.014705882352941176
aF0.011904761904761904
aF0.0
aF0.0149812734082397
aF0.011560693641618497
aF0.007106598984771574
aF0.0
aF0.011857707509881422
aF0.00473186119873817
aF0.0036231884057971015
aF0.0051635111876075735
aF0.002004008016032064
aF0.010650224215246636
aF0.011737089201877934
aF0.0016549441456350847
aF0.0074211502782931356
aF0.0
aF0.007922535211267605
aF0.0012406947890818859
aF0.009302325581395349
aF0.0060767185719711354
aF0.0
aF0.0031503150315031502
aF0.0025324469768914213
aF0.014705882352941176
aF0.003838771593090211
aF0.003663003663003663
aF0.005385029617662897
aF0.0
aF0.012864493996569469
aF0.0112079701120797
aF0.005847953216374269
aF0.015444015444015444
aF0.002840909090909091
aF0.0
aF0.0040178571428571425
aF0.0
aF0.009423294383716547
aF0.0
aF0.010869565217391304
aF0.006838905775075988
aF0.0
aF0.00819672131147541
aF0.041176470588235294
aF0.01639344262295082
aF0.0
aF0.004651162790697674
aF0.0
aF0.006535947712418301
aF0.020618556701030927
aF0.030534351145038167
aF0.0
aF0.011494252873563218
aF0.0013374944271065537
aF0.004147465437788019
aF0.0
aF0.0
aF0.0
aF0.004045853000674309
aF0.0015625
aF0.00796812749003984
aF0.008264462809917356
aF0.007462686567164179
aF0.0
aF0.0
aF0.008021390374331552
aF0.0062047569803516025
aF0.0
aF0.0030959752321981426
aF0.004291845493562232
aF0.006854531607006854
aF0.0
aF0.0
aF0.004229607250755287
aF0.0
aF0.0047789725209080045
aF0.025341130604288498
aF0.01069747539580659
aF0.013100436681222707
aF0.0
aF0.005121042830540037
aF0.0
aF0.0
aF0.0
aF0.006369426751592357
aF0.004273504273504274
aF0.002451982018798529
aF0.0425531914893617
aF0.0
aF0.0
aF0.022972972972972974
aF0.0009737098344693282
aF0.004651162790697674
aF0.0
aF0.0
aF0.0109460516028147
aF0.016766467065868262
aF0.009580838323353293
aF0.009030837004405287
aF0.001890359168241966
aF0.010830324909747292
aF0.0
aF0.005118110236220472
aF0.013215859030837005
aF0.003125
aF0.01847063169560399
aF0.0
aF0.00129366106080207
aF0.002254791431792559
aF0.0
aF0.004932182490752158
aF0.009313154831199068
aF0.0
aF0.009708737864077669
aF0.00416584011108907
aF0.0034808552958727
aF0.016129032258064516
aF0.0
aF0.001584786053882726
aF0.0
aF0.005621135469364812
aF0.0022675736961451248
aF0.002274450341167551
aF0.014231499051233396
aF0.007078350012204052
aF0.0
aF0.008161044613710556
aF0.008941176470588235
aF0.005847953216374269
aF0.006154842889536767
aF0.003056935422239205
aF0.0
aF0.0
aF0.0022197558268590455
aF0.003787878787878788
aF0.005122367672168469
aF0.0
aF0.004692632566870014
aF0.006363636363636364
aF0.003875217981011432
aF0.022388059701492536
aF0.00843558282208589
aF0.009246417013407305
aF0.0
aF0.0025252525252525255
aF0.004914004914004914
aF0.005700712589073635
aF0.004457652303120356
aF0.006802721088435374
aF0.0
aF0.004975124378109453
aF0.007643312101910828
aF0.0038535645472061657
aF0.013605442176870748
aF0.0034602076124567475
aF0.002967359050445104
aF0.0012953367875647669
aF0.004433185560481318
aF0.0
aF0.0
aF0.0
aF0.0
aF0.0
aF0.0
aF0.0020491803278688526
aF0.0
aF0.0032967032967032967
aF0.010882708585247884
aF0.0
aF0.0035561877667140826
aF0.0
aF0.0
aF0.008130081300813009
aF0.004626951995373048
aF0.0028591851322373124
aF0.006262626262626263
aF0.025437201907790145
aF0.0
aF0.008714596949891068
aF0.0
aF0.0
aF0.0028935185185185184
aF0.0028469750889679717
aF0.007818608287724784
aF0.012742382271468145
aF0.010484927916120577
aF0.017953321364452424
aF0.0
aF0.0
aF0.021660649819494584
aF0.0037578288100208767
aF0.00586756077116513
aF0.0
aF0.004045853000674309
aF0.012533572068039392
aF0.014900662251655629
aF0.0
aF0.007194244604316547
aF0.0052478134110787176
aF0.0
aF0.0
aF0.007194244604316547
aF0.001564945226917058
aF0.0
aF0.005361930294906166
aF0.006606990622335891
aF0.0
aF0.0
aF0.004612546125461255
aF0.0
aF0.008372093023255815
aF0.004014452027298274
aF0.006109979633401222
aF0.0
aF0.0
aF0.006103763987792472
aF0.019230769230769232
aF0.0
aF0.0
aF0.010550996483001172
aF0.010210069240699449
aF0.002070393374741201
aF0.003000545553737043
aF0.005615109749872384
aF0.0010224948875255625
aF0.0070031393383240765
aF0.01
aF0.0012944983818770227
aF0.007241606319947334
aF0.013480392156862746
aF0.0044932601098352475
aF0.005258274048871018
aF0.006984866123399301
aF0.0
aF0.00755939524838013
aF0.0
aF0.0
aF0.0
aF0.0027223230490018148
aF0.009057971014492754
aF0.007285974499089253
aF0.0
aF0.005621925509486999
aF0.01486374896779521
aF0.0
aF0.011560693641618497
aF0.0
aF0.00516795865633075
aF0.0070921985815602835
aF0.004969418960244648
aI0
aF0.003076923076923077
aF0.00244926522043387
aF0.0
aF0.004583651642475172
aF0.0
aF0.012048192771084338
aF0.0
aF0.007317073170731708
aF0.0
aF0.003769791404875597
aF0.0
aF0.0036215482118605704
aF0.0
aF0.020024519820187985
aF0.0033003300330033004
aF0.0010460251046025104
aF0.0028011204481792717
aF0.004761904761904762
aF0.0
aF0.002174858634188778
aF0.0045871559633027525
aF0.0
aF0.005988023952095809
aF0.007695423248278655
aF0.005289733108920414
aF0.0069767441860465115
aF0.008583690987124463
aF0.00372006510113927
aF0.023255813953488372
aF0.0
aF0.00449582530507386
aF0.0026666666666666666
aF0.003443526170798898
aF0.00933237616654702
aF0.0030303030303030303
aF0.022222222222222223
aF0.009512485136741973
aF0.0
aF0.007357645553422905
aF0.0
aF0.004551988500239578
aF0.002894356005788712
aF0.0007558578987150416
aF0.0034334763948497852
aF0.014216661927779357
aI0
aF0.0
aF0.006407097092163627
aF0.010917030567685589
aF0.0007158196134574087
aF0.0
aF0.0033112582781456954
aF0.0
aF0.007529089664613279
aF0.0023752969121140144
aF0.0030511060259344014
aF0.0
aF0.0044444444444444444
aF0.002277904328018223
aF0.005196492367651835
aF0.006902899217671422
aF0.008492569002123142
aF0.0028089887640449437
aF0.004605263157894736
aF0.0025477707006369425
aI0
aF0.01020408163265306
aF0.0
aF0.0046641791044776115
aF0.008130081300813009
aF0.005952380952380952
aF0.00522875816993464
aF0.0014064697609001407
aF0.007957559681697613
aF0.0
aF0.0075528700906344415
aF0.010941960038058992
aF0.006811632171862719
aF0.008620689655172414
aF0.0
aF0.0069124423963133645
aF0.009840674789128397
aF0.004468275245755138
aF0.0
aF0.0009737098344693282
aF0.007220216606498195
aF0.0008110300081103001
aF0.002331002331002331
aF0.0
aF0.0031289111389236545
aF0.0
aF0.01597444089456869
aF0.007475083056478406
aF0.003131524008350731
aF0.009103078982597055
aF0.0
aF0.0036443148688046646
aF0.011594202898550725
aF0.0016597510373443983
aF0.003076449776957391
aF0.002232142857142857
aF0.0106544901065449
aF0.0027124773960217
aF0.01195219123505976
aF0.004631278945493409
aF0.0013869625520110957
aF0.0013097576948264572
aF0.019373219373219373
aF0.0029069767441860465
aF0.0
aF0.0089179548156956
aF0.0
aF0.0
aF0.002338269680436477
aF0.0
aF0.0
aF0.0
aF0.0025482344375682563
aF0.0034129692832764505
aF0.0049800796812749
aF0.0030120481927710845
aF0.007751937984496124
aF0.008988764044943821
aF0.004008746355685131
aF0.0
aF0.0
aF0.012012012012012012
aF0.001869158878504673
aF0.0044807590933052185
aF0.0
aF0.0
aF0.009204470742932281
aF0.0
aF0.007676409802184824
aF0.0
aF0.0014285714285714286
aF0.0
aF0.0
aF0.001954397394136808
aF0.009157509157509158
aF0.0
aF0.0
aF0.0
aF0.0035587188612099642
aF0.008283717318146519
aF0.0
aF0.004241435562805873
aF0.0
aF0.0
aF0.02040816326530612
aF0.001644736842105263
aF0.0017605633802816902
aF0.002631578947368421
aF0.003355704697986577
aF0.005369127516778523
aF0.0021231422505307855
aF0.0
aF0.0
aF0.02224824355971897
aF0.024615384615384615
aF0.010027347310847767
aF0.0
aF0.0075546719681908545
aF0.014434643143544507
aF0.0
aF0.004285714285714286
aF0.02636916835699797
aF0.007639419404125287
aF0.028314028314028315
aF0.01582045621780721
aF0.004119294776734223
aF0.0
aF0.00528169014084507
aF0.010726072607260726
aF0.013942680092951201
aF0.003029155622870125
aF0.0008857395925597874
aF0.0027567195037904893
aF0.004153686396677051
aF0.0
aF0.0
aF0.0032441200324412004
aF0.0
aF0.0
aF0.0
aF0.0
aF0.0
aF0.0
aF0.0
aF0.0024371953505811774
aF0.003703703703703704
aF0.002430133657351154
aF0.004987531172069825
aF0.003372681281618887
aF0.0
aF0.0
aF0.006666666666666667
aF0.0
aF0.014354066985645933
aF0.0054249547920434
aF0.0
aF0.0058823529411764705
aF0.0
aF0.002173238124805961
aF0.007556675062972292
aF0.009727626459143969
aF0.005333333333333333
aF0.008771929824561403
aF0.010727056019070322
aF0.0
aF0.02926829268292683
aF0.0
aF0.009221902017291067
aF0.002183406113537118
aF0.0
aF0.006489071038251366
aF0.0
aF0.0033370411568409346
aF0.0011098779134295228
aF0.009652509652509652
aF0.0
aF0.011764705882352941
aF0.0
aF0.012976480129764802
aF0.006369426751592357
aF0.004289013526888816
aF0.0
aF0.0
aF0.0
aF0.00072992700729927
aF0.001589825119236884
aF0.002304147465437788
aF0.0014347202295552368
aF0.0
aF0.0013812154696132596
aF0.003295668549905838
aF0.0
aF0.005598507064782724
aF0.003794037940379404
aF0.0
aF0.005516734093416698
aF0.005238344683080147
aF0.005776173285198556
aF0.001440922190201729
aF0.007707129094412331
aF0.0018018018018018018
aF0.0009049773755656109
aF0.0
aF0.0
aF0.0022624434389140274
aF0.00341130604288499
aF0.0
aF0.007920792079207921
aF0.0
aF0.005355404089581304
aF0.0
aF0.0
aF0.0
aF0.006666666666666667
aF0.004750593824228029
aF0.0052585451358457495
aF0.001375515818431912
aF0.002380952380952381
aF0.0
aF0.0008223684210526315
aF0.005235602094240838
aF0.0024330900243309003
aF0.005226480836236934
aF0.0
aF0.003818413237165889
aF0.0
aF0.0
aF0.015270326042096575
aF0.0
aF0.02033271719038817
aF0.0
aF0.0024125452352231603
aF0.0
aF0.01112759643916914
aF0.022167487684729065
aF0.01440922190201729
aF0.009174311926605505
aF0.015384615384615385
aF0.0032258064516129032
aF0.008299457994579946
aF0.01822125813449024
aF0.0
aF0.0
aF0.0
aF0.0035211267605633804
aF0.00576036866359447
aF0.01267605633802817
aF0.0012894906511927789
aF0.0
aF0.007352941176470588
aF0.006522122333862154
aF0.006363636363636364
aF0.002312902692879564
aF0.006026516673362796
aF0.012919896640826873
aF0.0
aF0.002178649237472767
aF0.003353079244439477
aF0.0
aF0.0
aF0.0037735849056603774
aF0.002229654403567447
aF0.00663716814159292
aF0.014799154334038054
aF0.001287001287001287
aF0.007712082262210797
aF0.002190580503833516
aF0.0
aF0.0
aF0.018666666666666668
aF0.0
aF0.0037921035021191165
aF0.021739130434782608
aF0.005319148936170213
aF0.003990877993158495
aF0.0048543689320388345
aF0.004602991944764097
aF0.003469210754553339
aF0.01013787510137875
aF0.0
aF0.009016393442622951
aF0.0
aF0.0
aF0.005128205128205128
aF0.007768361581920904
aF0.01
aF0.0024834437086092716
aF0.0
aF0.007420340462680052
aF0.0
aF0.0
aF0.003884180790960452
aF0.005557180462123428
aF0.01639344262295082
aF0.013546798029556651
aF0.01
aF0.0
aF0.005946135012242042
aF0.003469210754553339
aI0
aF0.004137360364087712
aF0.006040585181689476
aF0.015789473684210527
aF0.008169014084507042
aF0.007905138339920948
aF0.004595263343937788
aF0.0036319612590799033
aF0.007109915449654112
aF0.0
aF0.015625
aF0.011852615305333677
aF0.010762331838565023
aF0.005202312138728324
aF0.0008103727714748784
aF0.0027247956403269754
aF0.005434782608695652
aF0.00370464997445069
aF0.0
aF0.005086901229334464
aF0.008832361773538244
aF0.009615384615384616
aF0.00482167457523343
aF0.0031779661016949155
aF0.0020750199521149242
aF0.0038580246913580245
aF0.007434944237918215
aF0.011450381679389313
aF0.001479727730097662
aF0.002793783830976078
aF0.0079155672823219
aF0.0
aF0.0
aF0.0
aF0.005498533724340176
aF0.0
aF0.007601351351351352
aF0.011676396997497914
aF0.008158765159867696
aF0.009327115256495669
aF0.005788712011577424
aF0.014676715589051963
aF0.0
aF0.0
aF0.003294289897510981
aF0.0
aF0.004300234558248631
aF0.005022321428571429
aF0.0
aF0.0024242424242424242
aF0.002617801047120419
aF0.019815059445178335
aF0.0015122873345935729
aF0.0
aI0
aF0.0
aF0.0040198628517379995
aI0
aF0.010169491525423728
aF0.004852405984634048
aF0.001287415513356936
aF0.0
aF0.0022935779816513763
aF0.003293084522502744
aF0.005446485117162761
aF0.0033624747814391394
aF0.0
aF0.006206644760861628
aF0.005136986301369863
aF0.0
aF0.00398406374501992
aF0.00715307582260372
aF0.00261437908496732
aF0.0036127167630057803
aF0.003115264797507788
aF0.0
aF0.0
aF0.0023020257826887663
aF0.011683096020445418
aF0.0129366106080207
aF0.008438818565400843
aF0.005741303613644039
aF0.0
aF0.002725538293813028
aF0.01291918636613524
aF0.009269988412514484
aF0.03636363636363636
aF0.0
aF0.00944733112895607
aF0.027722772277227723
aF0.0019411193788417987
aF0.016666666666666666
aF0.009104704097116844
aF0.0
aF0.0
aF0.0017825311942959
aF0.0034782608695652175
aF0.0
aF0.0
aF0.0042997542997543
aF0.011702127659574468
aF0.0076726342710997444
aF0.0008149959250203749
aF0.0019267822736030828
aF0.0
aF0.004996876951905059
aF0.010822510822510822
aF0.0
aF0.006097560975609756
aF0.005680742283658398
aF0.0
aF0.006439742410303588
aF0.010830324909747292
aF0.0
aF0.0
aF0.0
aF0.001119507416736636
aF0.004937629937629938
aF0.003105590062111801
aF0.003092783505154639
aF0.003937007874015748
aF0.00466321243523316
aF0.003827751196172249
aF0.0
aF0.006108735491753207
aF0.009490940465918895
aF0.01072961373390558
aF0.0
aF0.0
aF0.0
aF0.0
aF0.008322663252240717
aF0.009216589861751152
aF0.009523809523809525
aF0.0
aF0.017142857142857144
aF0.006321112515802781
aF0.021985343104596936
aF0.006752608962553714
aF0.0
aF0.01956521739130435
aF0.003165988240615106
aF0.0
aF0.0
aF0.007936507936507936
aF0.013333333333333334
aF0.00211208110391439
aF0.004627981488074048
aF0.0055248618784530384
aF0.002406015037593985
aF0.0006978367062107466
aF0.0
aF0.0
aF0.0015137753557372085
aF0.0
aI0
aF0.0
aF0.010615711252653927
aF0.005681818181818182
aF0.0058997050147492625
aF0.0
aF0.0009372071227741331
aF0.0
aF0.0
aF0.0
aF0.0007959671000265323
aF0.0
aF0.004815409309791332
aF0.003952569169960474
aF0.0
aF0.004329004329004329
aF0.009523809523809525
aF0.0
aF0.0016722408026755853
aF0.0
aF0.027777777777777776
aF0.008695652173913044
aF0.0
aF0.0
aF0.0
aF0.0
aF0.0
aF0.0
aF0.0
aF0.0
aF0.0043859649122807015
aF0.007008086253369272
aF0.0
aF0.0
aF0.0
aF0.001692047377326565
aF0.0
aF0.004
aF0.0029498525073746312
aF0.0
aF0.0
aF0.0
aF0.005390835579514825
aF0.0074046649389115145
aF0.007431874483897605
aF0.0012165450121654502
aF0.002130681818181818
aF0.0
aF0.0
aF0.00558659217877095
aF0.0
aF0.0011587485515643105
aF0.0
aF0.0
aF0.0
aF0.0
aF0.002863961813842482
aF0.0019035532994923859
aF0.0
aF0.0
aF0.0014635931211123307
aF0.0
aF0.0
aF0.0
aF0.0
aF0.0
aF0.0
aF0.004166666666666667
aF0.001148105625717566
aF0.004267425320056899
aF0.0
aF0.0
aF0.0
aF0.011049723756906077
aF0.005319148936170213
aF0.0
aF0.0
aF0.0
aF0.0
aF0.0025929127052722557
aF0.007782101167315175
aF0.0
aF0.013468013468013467
aF0.0028551034975017845
aF0.0
aI0
aF0.003537735849056604
aF0.0038461538461538464
aF0.0
aF0.0007142857142857143
aF0.01020408163265306
aF0.0
aF0.0035190615835777126
aF0.0
aF0.0
aF0.0
aF0.002638522427440633
aF0.0
aF0.02785923753665689
aI0
aF0.0029940119760479044
aF0.0038643194504079004
aF0.0
aF0.011494252873563218
aF0.005378044922492882
aF0.010296010296010296
aF0.0
aF0.006042296072507553
aF0.004283194759385236
aF0.0
aF0.0
aF0.0
aF0.0
aF0.006237006237006237
aF0.0045336787564766836
aF0.045454545454545456
aF0.0027397260273972603
aF0.0
aF0.004079967360261118
aF0.013289036544850499
aF0.0013166556945358788
aF0.0
aF0.0
aF0.0
aF0.0
aF0.0070921985815602835
aF0.0025906735751295338
aF0.0
aF0.0
aF0.0
aF0.0
aF0.0
aF0.0
aF0.0
aF0.0
aF0.0
aF0.0
aF0.0016260162601626016
aF0.0024752475247524753
aF0.0010111223458038423
aF0.004754358161648178
aF0.0
aF0.003912363067292645
aF0.006578947368421052
aF0.0
aF0.0022497187851518562
aF0.0022396416573348264
aF0.0
aF0.001594896331738437
aF0.0
aF0.005856515373352855
aF0.0
aF0.0
aI0
aF0.007792207792207792
aF0.0011474469305794606
aF0.0
aF0.004032258064516129
aF0.001976284584980237
aF0.012291483757682178
aF0.0
aF0.0
aF0.0027879047823289728
aF0.008547008547008548
aF0.008341056533827619
aF0.0
aF0.0
aF0.006928406466512702
aF0.0
aF0.001949317738791423
aI0
aF0.004789781798829164
aF0.0
aF0.0011750881316098707
aF0.0027906976744186047
aF0.0
aF0.003424657534246575
aF0.002785515320334262
aF0.0
aF0.008771929824561403
aF0.006535947712418301
aF0.008403361344537815
aF0.0
aF0.0
aF0.0
aF0.0
aF0.003355704697986577
aF0.0
aF0.022727272727272728
aF0.00270042194092827
aF0.00641025641025641
aF0.00335356116256787
aF0.002173913043478261
aF0.0
aF0.0
aF0.005356017643352237
aF0.009636563876651983
aF0.0
aF0.0016688918558077437
aF0.0012732365673542145
aF0.002173913043478261
aF0.006489675516224189
aF0.0022727272727272726
aF0.004718372161604247
aF0.0
aF0.009332711152589827
aF0.0023148148148148147
aF0.012773722627737226
aF0.0013404825737265416
aF0.0
aF0.011410788381742738
aF0.0026954177897574125
aF0.0055248618784530384
aF0.002849002849002849
aF0.0
aF0.011528822055137845
aF0.007616146230007616
aF0.003661513425549227
aF0.0010869565217391304
aF0.0029229082937522835
aF0.0
aF0.0063960639606396065
aF0.0015071590052750565
aF0.005233111322549952
aF0.004531722054380665
aF0.0
aF0.0
aF0.001388888888888889
aF0.0
aF0.0
aF0.001451378809869376
aF0.012759170653907496
aF0.0
aF0.0027100271002710027
aF0.00395053246307111
aF0.01098901098901099
aF0.0
aF0.0
aF0.003629764065335753
aF0.012968299711815562
aF0.0
aF0.03225806451612903
aF0.0
aF0.0021598272138228943
aF0.01297016861219196
aF0.018458197611292075
aF0.0103359173126615
aF0.012084592145015106
aF0.008130081300813009
aF0.00891089108910891
aF0.0026595744680851063
aF0.0057306590257879654
aF0.004232804232804233
aF0.0017675651789659744
aF0.006112469437652812
aF0.005791505791505791
aF0.0
aF0.0
aF0.01702127659574468
aF0.005008347245409015
aF0.0
aF0.005761970991456387
aF0.0
aF0.006134969325153374
aF0.02453271028037383
aF0.0
aF0.0
aF0.006263048016701462
aF0.004899135446685879
aF0.011707317073170732
aF0.0044444444444444444
aF0.0035020694046482012
aF0.0
aF0.001310615989515072
aF0.004718464926077383
aF0.013224821973550356
aF0.0014947683109118087
aF0.023923444976076555
aF0.012345679012345678
aF0.00776914539400666
aF0.005784526391901663
aF0.012471655328798186
aF0.0
aF0.0
aF0.004228329809725159
aF0.007712082262210797
aF0.01015228426395939
aF0.0
aF0.0
aF0.004560425639726374
aF0.0
aF0.0
aF0.005320917858330562
aF0.0043859649122807015
aF0.008350730688935281
aF0.0
aF0.008043591074208614
aF0.003919007184846506
aF0.020477815699658702
aF0.00102880658436214
aF0.0
aF0.007751937984496124
aF0.00436046511627907
aF0.0
aF0.012642225031605562
aF0.010071090047393365
aF0.012802275960170697
aF0.014336917562724014
aF0.002412961047914512
aF0.003205128205128205
aF0.0
aF0.007312614259597806
aF0.0070838252656434475
aF0.006055169320475443
aF0.0
aF0.0
aF0.00436046511627907
aF0.003862196817549822
aF0.0
aF0.014251781472684086
aF0.0111731843575419
aF0.0
aF0.0
aF0.0
aF0.0034129692832764505
aF0.0
aF0.0029850746268656717
aF0.0
aF0.002596212583995113
aF0.0
aF0.005405405405405406
aF0.0036319612590799033
aF0.0
aF0.009417808219178082
aF0.012027491408934709
aF0.0
aF0.019762845849802372
aF0.008517887563884156
aF0.0055948174322732625
aF0.0044943820224719105
aF0.017421602787456445
aF0.012265084075173096
aF0.0
aF0.005366726296958855
aF0.001996007984031936
aF0.007355516637478109
aF0.0024958402662229617
aF0.0
aF0.0
aF0.0
aF0.007028332967274325
aF0.0
aF0.022222222222222223
aF0.0
aF0.0055272108843537416
aF0.0021645021645021645
aF0.004195804195804196
aF0.001243008079552517
aF0.010508617065994116
aF0.0029914529914529917
aF0.001607717041800643
aF0.0
aF0.006130268199233717
aF0.0
aF0.003816793893129771
aF0.0
aF0.0
aF0.009328358208955223
aF0.0007874015748031496
aF0.0
aF0.005154639175257732
aF0.005447470817120622
aF0.0
aF0.010941417825393207
aF0.005551227113361901
aF0.002257336343115124
aF0.004138449962377728
aF0.004528301886792453
aF0.0
aF0.006187785848802798
aF0.003667481662591687
aF0.0023124357656731757
aF0.002158132234647832
aF0.0029815146094215863
aF0.0018575851393188853
aF0.009113504556752278
aF0.01364646144081244
aF0.011516314779270634
aF0.0
aF0.00341130604288499
aF0.003708281829419036
aF0.005428460643660334
aF0.005563282336578581
aF0.0
aF0.008794619762027936
aF0.0
aF0.007407407407407408
aF0.001563721657544957
aF0.011799410029498525
aF0.007407407407407408
aF0.0
aF0.00547302580140735
aF0.005254860746190226
aF0.0
aF0.00611764705882353
aF0.005532503457814661
aF0.010752688172043012
aF0.005805515239477504
aF0.005087620124364048
aF0.0
aF0.003188097768331562
aF0.0
aF0.021715526601520086
aF0.0
aF0.0
aF0.00797057020232986
aF0.009070294784580499
aF0.00781515460414543
aF0.023696682464454975
aF0.016463090812533193
aF0.0008992805755395684
aF0.0
aF0.0
aF0.007221350078492936
aF0.006628571428571429
aF0.0
aF0.007438894792773645
aF0.004876066639577408
aF0.008581524482584554
aF0.0017452006980802793
aF0.0
aF0.007768361581920904
aF0.0
aF0.003518373729476153
aF0.0
aF0.0
aF0.005595116988809766
aF0.010101010101010102
aF0.015384615384615385
aF0.007352941176470588
aF0.005256648113790971
aF0.0012376237623762376
aF0.004506760140210316
aF0.004633920296570899
aF0.004366812227074236
aF0.0
aF0.0018315018315018315
aF0.010638297872340425
aF0.0
aF0.008417508417508417
aF0.01560758082497213
aF0.0
aI0
aF0.01613987895090787
aI0
aF0.0017241379310344827
aI0
aF0.003173763554615181
aF0.0
aF0.0016198704103671706
aF0.010123734533183352
aF0.0032679738562091504
aF0.015384615384615385
aF0.0027531355154481493
aF0.0
aF0.003401360544217687
aF0.0033806626098715348
aF0.002570694087403599
aF0.0
aI0
aF0.0
aF0.0
aF0.0
aF0.0019334880123743233
aF0.004465819306080384
aF0.0020833333333333333
aF0.0
aF0.004319654427645789
aF0.022222222222222223
aF0.0
aF0.0
aF0.0017219113215669393
aF0.0019094380796508457
aF0.0
aF0.0
aF0.001962708537782139
aF0.003816793893129771
aF0.012875536480686695
aF0.008861174926156876
aF0.02102803738317757
aF0.0028169014084507044
aF0.00510204081632653
aF0.01020408163265306
aF0.0
aF0.0024544179523141654
aF0.002638522427440633
aF0.0017554125219426564
aF0.0
aF0.0
aF0.0
aF0.003194888178913738
aF0.008729388942774006
aF0.010348792640858567
aF0.0012232415902140672
aF0.0
aF0.001878522229179712
aF0.0
aF0.0038043478260869567
aF0.0
aF0.0014054813773717498
aF0.0034542314335060447
aF0.0
aF0.01775147928994083
aF0.0038461538461538464
aF0.004435819240365955
aF0.003472222222222222
aF0.0018484288354898336
aF0.0
aF0.0
aF0.0
aF0.0016251354279523294
aF0.0011976047904191617
aF0.003669724770642202
aF0.002583979328165375
aF0.0
aF0.005319148936170213
aF0.002173913043478261
aF0.005128205128205128
aF0.007008086253369272
aF0.02013888888888889
aF0.0
aF0.005221932114882507
aF0.0032175032175032173
aF0.0
aF0.004789272030651341
aF0.0
aF0.0013054830287206266
aF0.0
aF0.0
aF0.007334963325183374
aF0.0
aF0.0009609224855861628
aF0.013657056145675266
aF0.0029850746268656717
aF0.01002227171492205
aF0.011029411764705883
aF0.0
aF0.0032679738562091504
aF0.005861136158701533
aF0.004242424242424243
aF0.006015037593984963
aF0.0
aF0.006046645551396487
aF0.0032679738562091504
aF0.006112469437652812
aF0.0
aF0.0074962518740629685
aF0.0061823802163833074
aF0.0136986301369863
aF0.006125574272588055
aF0.039301310043668124
aF0.0
aF0.006611570247933884
aF0.004593175853018373
aF0.002174858634188778
aF0.0
aF0.003051881993896236
aF0.0024509803921568627
aF0.0
aF0.013927576601671309
aF0.008888888888888889
aF0.00834326579261025
aF0.004310344827586207
aF0.0008613264427217916
aF0.0036809815950920245
aF0.007818819088703155
aF0.008695652173913044
aF0.0027383619616629324
aF0.0026490066225165563
aF0.005696530295183843
aF0.004062976130015236
aF0.012096774193548387
aF0.003436426116838488
aF0.00967741935483871
aF0.005681818181818182
aF0.0
aI0
aF0.0
aF0.003219575016097875
aF0.006161971830985915
aF0.0
aF0.0
aF0.0009813542688910696
aI0
aF0.0
aF0.003264417845484222
aI0
aF0.0027808676307007787
aF0.0
aF0.0030303030303030303
aF0.0034762456546929316
aF0.0
aF0.004545454545454545
aF0.002952755905511811
aF0.0045045045045045045
aF0.0
aF0.0
aF0.0076511094108645756
aF0.0021141649048625794
aF0.02666666666666667
aF0.002881844380403458
aF0.0
aF0.0
aF0.0024154589371980675
aF0.0008312551953449709
aF0.00407955124936257
aF0.0
aF0.0
aF0.0
aF0.013551401869158878
aF0.0
aF0.0
aF0.00102880658436214
aF0.0
aF0.0
aF0.0
aF0.0
aF0.0073964497041420114
aF0.0
aF0.0
aF0.0035087719298245615
aF0.0
aF0.005319148936170213
aF0.004316546762589928
aF0.0078125
aF0.0029985007496251873
aF0.0
aF0.0
aF0.0
aF0.0
aF0.0
aF0.0037059913526868438
aF0.0
aF0.0026416201937188143
aF0.00720164609053498
aF0.0
aF0.0
aF0.007751937984496124
aF0.0
aF0.0030581039755351682
aF0.0
aF0.0
aF0.0
aF0.0
aF0.0
aF0.0
aF0.02
aF0.0
aF0.004432855280312908
aF0.00247320692497939
aF0.003956478733926805
aF0.006581009088060169
aF0.002354788069073783
aF0.0037650602409638554
aF0.004545454545454545
aF0.0
aF0.0
aF0.0
aF0.0
aF0.005599104143337066
aF0.0
aF0.005718824463860206
aF0.012021857923497269
aF0.008798283261802575
aF0.009184342882134267
aF0.016741071428571428
aF0.024208566108007448
aF0.003685956505713233
aF0.003940110323089046
aF0.0
aF0.0
aF0.004216867469879518
aF0.0
aF0.026859504132231406
aF0.0
aF0.009259259259259259
aF0.0
aF0.0
aF0.0
aF0.0017809439002671415
aF0.007175037543801101
aF0.007498897220996913
aF0.0
aF0.0
aF0.014613778705636743
aF0.0
aF0.005842259006815969
aF0.004136504653567736
aF0.0
aF0.009225832330525471
aF0.017123287671232876
aF0.0010695187165775401
aF0.0
aF0.0010471204188481676
aF0.005997001499250375
aF0.006060606060606061
aF0.004852686308492201
aF0.00196078431372549
aF0.004341534008683068
aF0.0
aF0.00782472613458529
aF0.0
aF0.0028080607862570202
aF0.0026575550493545936
aF0.0
aF0.0016339869281045752
aF0.0
aF0.0017301038062283738
aF0.0
aF0.007525870178739417
aF0.01273306048203729
aF0.008144796380090498
aF0.0
aF0.0
aF0.0
aF0.0014211274277593558
aF0.0023054755043227667
aF0.008188331627430911
aF0.0033333333333333335
aF0.006332599118942731
aF0.0
aF0.0
aF0.0
aF0.01834862385321101
aF0.03471552555448409
aF0.00630119722747322
aF0.0
aF0.006753497346840328
aF0.0
aF0.0
aF0.0062256809338521405
aF0.0074211502782931356
aF0.0
aF0.0
aF0.0
aF0.0021605451221538975
aF0.0
aF0.0
aF0.008173273395995096
aF0.00307774655426201
aF0.0
aF0.006045179764556157
aF0.0
aF0.007257164123557871
aF0.0
aF0.01282051282051282
aF0.0032948929159802307
aF0.0
aF0.009156311314584695
aF0.002287021154945683
aF0.004392386530014641
aF0.013858695652173913
aF0.0
aF0.0025031289111389237
aF0.011001737116386797
aF0.0
aF0.0
aF0.01355421686746988
aF0.0
aF0.005673758865248227
aF0.006695361071257772
aF0.021664766248574687
aF0.003401360544217687
aF0.004605641911341394
aF0.0
aF0.0026367831245880024
aF0.004021447721179625
aF0.0
aF0.0
aF0.0
aF0.0
aF0.00749063670411985
aF0.003952569169960474
aF0.007239819004524887
aF0.00546448087431694
aF0.013289036544850499
aF0.0
aF0.003243243243243243
aF0.008299430431244915
aF0.0
aF0.005952380952380952
aF0.0
aF0.020833333333333332
aF0.005068574836016696
aF0.006273062730627306
aF0.009336609336609337
aF0.003153153153153153
aF0.01443001443001443
aF0.016018306636155607
aF0.0050735667174023336
aF0.012706480304955527
aF0.003956043956043956
aF0.0052056220718375845
aF0.0
aF0.0022197558268590455
aF0.0
aF0.014248704663212436
aF0.004898958971218616
aF0.0
aF0.009861212563915266
aF0.0
aF0.0
aF0.0011244377811094452
aF0.0
aF0.00874508089199825
aF0.0
aF0.0
aF0.008130081300813009
aF0.018072289156626505
aF0.009345794392523364
aF0.004070556309362279
aF0.011273209549071617
aF0.0
aF0.0
aF0.006215469613259668
aF0.008647798742138365
aF0.0037593984962406013
aF0.0
aF0.0055658627087198514
aF0.0
aF0.0
aF0.010736196319018405
aF0.005434782608695652
aF0.0
aF0.008237232289950576
aF0.010570824524312896
aF0.0
aF0.0
aF0.007635467980295567
aF0.006749740394600207
aF0.0
aF0.0033812341504649195
aF0.010542168674698794
aF0.0038809831824062097
aF0.0034071550255536627
aF0.0062402496099844
aF0.004830917874396135
aF0.0
aF0.0
aF0.015867978419549348
aF0.0064464141821112
aF0.01564129301355579
aF0.006029285099052541
aF0.0022172949002217295
aF0.0066945606694560665
aF0.006720430107526882
aF0.002183406113537118
aF0.013119533527696793
aF0.0
aF0.0
aF0.008141112618724558
aF0.006134969325153374
aF0.005315822388993121
aF0.009174311926605505
aF0.006493506493506494
aF0.02072538860103627
aF0.0
aF0.008168028004667444
aF0.005113221329437546
aF0.0
aF0.0014742014742014742
aF0.0
aF0.018050541516245487
aF0.0014218009478672985
aF0.0
aF0.006518196632265073
aF0.0
aF0.0
aF0.0006868131868131869
aF0.0
aF0.004638577502899111
aF0.0
aF0.013048635824436536
aF0.00381770460510618
aF0.004096681687832855
aF0.0
aF0.004641448131817127
aF0.005574136008918618
aF0.0
aF0.005773928492116367
aF0.0
aF0.0
aF0.02247191011235955
aF0.00846740050804403
aF0.001128668171557562
aF0.005197505197505198
aF0.0044444444444444444
aF0.0029013539651837525
aF0.004156275976724855
aF0.0023823704586063135
aF0.006702412868632708
aF0.004672897196261682
aF0.004928806133625411
aF0.0
aF0.000819000819000819
aF0.006979062811565304
aF0.004434589800443459
aF0.007936507936507936
aF0.009354120267260579
aF0.005406574394463667
aF0.013539651837524178
aF0.0
aF0.009540329575021683
aF0.016877637130801686
aF0.004201680672268907
aF0.019011406844106463
aF0.0
aF0.036036036036036036
aF0.01098146877144818
aF0.0
aF0.00037230081906180194
aF0.0
aF0.0
aF0.0
aF0.004418262150220913
aF0.0
aF0.011031946678924385
aF0.0
aF0.01818181818181818
aF0.009240246406570842
aF0.0
aF0.004545454545454545
aF0.0
aF0.005335704757670075
aF0.0
aF0.013986013986013986
aF0.01907356948228883
aF0.005567928730512249
aF0.02192134107027724
aF0.007462686567164179
aF0.008939974457215836
aF0.006269592476489028
aF0.0
aF0.0
aF0.020158387329013677
aF0.0013280212483399733
aF0.0
aF0.0
aF0.003498542274052478
aF0.0
aI0
aF0.011494252873563218
aF0.0
aF0.005157055789967183
aF0.006324110671936759
aF0.011627906976744186
aF0.0046801872074883
aF0.0012642225031605564
aF0.004016064257028112
aF0.0021691973969631237
aF0.004830917874396135
aF0.010526315789473684
aF0.002805049088359046
aF0.006238532110091743
aF0.0019694731659281144
aF0.004709048099562731
aF0.009900990099009901
aF0.0
aF0.006432641058628928
aF0.0
aF0.005497251374312844
aF0.013311148086522463
aF0.0032102728731942215
aF0.0
aF0.0012437810945273632
aF0.0050335570469798654
aF0.0
aF0.00779423226812159
aF0.0073673870333988214
aF0.0010141987829614604
aF0.0010604453870625664
aF0.011976047904191617
aF0.0
aF0.0
aF0.007142857142857143
aF0.005633802816901409
aF0.000543773790103317
aF0.0
aF0.002824858757062147
aF0.0035787321063394683
aF0.0
aF0.02518891687657431
aF0.0
aF0.0030721966205837174
aF0.0031847133757961785
aF0.0
aF0.009036144578313253
aF0.007518796992481203
aF0.010290556900726392
aF0.0
aF0.0
aF0.004651162790697674
aF0.0009532888465204957
aF0.0055671537926235215
aF0.0045212765957446804
aF0.011171401212894989
aF0.0
aF0.005865102639296188
aF0.015267175572519083
aF0.009188361408882083
aF0.0026553372278279343
aF0.0
aF0.0
aF0.02097902097902098
aF0.0055996266915538965
aF0.006694129763130793
aF0.013036164844407064
aF0.007956661587946504
aF0.009304729904368054
aF0.0012345679012345679
aF0.004582305252026789
aF0.0026905829596412557
aF0.0
aF0.0037896731406916154
aF0.0199203187250996
aF0.0
aF0.003271537622682661
aF0.011456628477905073
aF0.006048387096774193
aF0.001579778830963665
aF0.009536784741144414
aF0.007329842931937173
aF0.0029498525073746312
aF0.015510265248014386
aF0.0
aF0.0
aF0.001963350785340314
aF0.0
aF0.005778676683039584
aF0.0018552875695732839
aF0.0
aF0.00558659217877095
aF0.0
aF0.007518796992481203
aF0.047619047619047616
aF0.00645421540943929
aF0.0
aF0.03296703296703297
aF0.0
aF0.006535947712418301
aF0.011111111111111112
aF0.0
aF0.0
aF0.0
aF0.010638297872340425
aF0.00392156862745098
aF0.003971405877680699
aF0.014964788732394365
aF0.007297050775311645
aF0.0009765625
aF0.006578947368421052
aF0.0015060240963855422
aF0.004770164787510842
aF0.004524886877828055
aF0.0
aF0.004370629370629371
aF0.005357142857142857
aI0
aF0.0
aF0.003952569169960474
aF0.0016240357287860333
aF0.005082592121982211
aF0.0149812734082397
aF0.0
aF0.0
aF0.0
aF0.008620689655172414
aF0.0062441461130190445
aF0.01942186088527552
aF0.017857142857142856
aF0.007874015748031496
aF0.011002962336013541
aF0.002912621359223301
aF0.00411522633744856
aF0.011940298507462687
aF0.0
aF0.0
aF0.013523956723338485
aF0.0017211703958691911
aF0.0
aF0.006514657980456026
aF0.023148148148148147
aF0.008859357696566999
aF0.013973799126637555
aF0.008223684210526315
aF0.007240081088908196
aF0.002890173410404624
aF0.0056947608200455585
aF0.0
aF0.002320185614849188
aF0.0
aF0.0
aF0.0066344993968636915
aF0.0
aF0.002191380569758948
aF0.0
aF0.0046627292508548334
aF0.0
aF0.014814814814814815
aF0.036734693877551024
aF0.0014005602240896359
aF0.024489795918367346
aF0.008587786259541985
aF0.004032258064516129
aF0.007863695937090432
aF0.007797270955165692
aF0.011638316920322292
aF0.01107011070110701
aF0.004959422903516681
aF0.004335260115606936
aF0.0
aF0.0042643923240938165
aF0.0
aF0.0057110222729868645
aF0.0
aF0.005319148936170213
aF0.00273224043715847
aF0.0
aI0
aF0.0025575447570332483
aF0.0
aF0.0
aF0.0034482758620689655
aF0.004437049362174155
aF0.007866273352999017
aF0.0
aF0.0004219409282700422
aF0.0028425241614553724
aF0.00910421069744757
aF0.0
aF0.004777830864787387
aF0.011873350923482849
aF0.0
aF0.010502412716434857
aF0.0034626038781163434
aF0.006600660066006601
aF0.0030241935483870967
aF0.0012437810945273632
aF0.0
aF0.0012024048096192384
aF0.0
aF0.002228826151560178
aF0.0
aF0.0
aF0.0
aF0.007555315704263357
aF0.0
aF0.005241090146750524
aF0.0
aF0.0
aF0.0
aF0.005031933423650087
aF0.0013869625520110957
aF0.002793296089385475
aF0.007902298850574713
aF0.005095159598381537
aF0.0032
aF0.010711553175210406
aF0.01079913606911447
aF0.004845814977973568
aF0.0052122114668652275
aF0.005813953488372093
aF0.009483488569009314
aF0.0
aF0.0
aF0.0032733224222585926
aF0.012838801711840228
aF0.0
aF0.0
aF0.0
aF0.003852504127682994
aF0.0
aF0.006112469437652812
aF0.002824858757062147
aF0.011547774259638667
aF0.006461421512732801
aF0.002886002886002886
aF0.009532062391681109
aF0.0
aF0.00937766410912191
aF0.005322209436133487
aF0.023737066342057214
aF0.005529835390946502
aF0.00425531914893617
aF0.0
aF0.0
aF0.013360739979445015
aF0.005615724027276374
aF0.0024509803921568627
aF0.010381905821282907
aF0.008421559191530318
aF0.011604095563139932
aF0.015048154093097914
aF0.0015105740181268882
aF0.018212984786800942
aF0.009455808568120417
aF0.009079653322327692
aF0.027131782945736434
aF0.004735128736312519
aF0.007038712921065862
aF0.00468384074941452
aF0.0
aF0.005917159763313609
aF0.0
aF0.0
aF0.004140786749482402
aF0.0
aF0.0
aF0.001869158878504673
aF0.011494252873563218
aF0.02
aF0.0068201193520886615
aF0.0
aF0.005768804082538274
aF0.0023166023166023165
aF0.0
aF0.010454655968879163
aF0.0
aF0.0065895642818719746
aF0.003767491926803014
aF0.005076142131979695
aF0.006666666666666667
aF0.0
aF0.0
aF0.0008264462809917355
aF0.0016556291390728477
aF0.004051316677920324
aF0.0036809815950920245
aF0.03571428571428571
aF0.03219315895372234
aF0.00536480686695279
aF0.002105263157894737
aF0.00625
aF0.0
aF0.004062038404726735
aF0.002967359050445104
aF0.0028885037550548816
aF0.006730984967466906
aF0.001483679525222552
aF0.00861178091629349
aF0.006772773450728073
aF0.008759124087591242
aF0.00211864406779661
aF0.0
aF0.0
aF0.005625879043600563
aF0.0015015015015015015
aF0.0
aF0.008719522041014048
aF0.007782101167315175
aF0.0
aF0.007142857142857143
aF0.004480955937266617
aF0.003089598352214212
aF0.00824317362184441
aF0.0
aF0.009501187648456057
aF0.0032858707557502738
aF0.0
aF0.001184834123222749
aF0.06666666666666667
aF0.0
aF0.01728073035539615
aF0.003676470588235294
aF0.0023781212841854932
aF0.003735325506937033
aF0.0
aF0.010080645161290322
aF0.004819277108433735
aF0.011976047904191617
aF0.002380952380952381
aF0.009231604670105892
aF0.0
aF0.0
aF0.0007518796992481203
aF0.0
aF0.00625
aF0.004672897196261682
aF0.012195121951219513
aI0
aF0.003179650238473768
aF0.0
aF0.0070052539404553416
aF0.003816793893129771
aF0.0
aF0.0
aF0.005802707930367505
aF0.008064516129032258
aF0.01707317073170732
aF0.0
aF0.0
aF0.005235602094240838
aF0.0
aF0.004629629629629629
aF0.0
aF0.01873536299765808
aF0.006291635825314582
aF0.015337423312883436
aF0.007900677200902935
aF0.002109704641350211
aF0.009783728115345005
aF0.0
aF0.0
aF0.0
aF0.0018190086402910413
aF0.009899105273177233
aF0.0039261876717707105
aF0.0039397450753186555
aF0.0
aF0.0
aF0.004909983633387889
aF0.012058570198105082
aF0.0013351134846461949
aF0.0
aF0.004540295119182747
aF0.002579694121982679
aF0.0046641791044776115
aF0.005134788189987163
aF0.0
aF0.009465336403172167
aF0.005592841163310962
aF0.004612045577862181
aF0.007313829787234043
aF0.018392370572207085
aF0.003757044458359424
aF0.0052173913043478265
aF0.007124352331606218
aF0.0043171114599686025
aF0.008838383838383838
aF0.013628370457209847
aF0.005959982971477224
aF0.015334709525213801
aF0.01481248030255279
aF0.027060931899641576
aF0.006142506142506142
aF0.0
aF0.00121921482565228
aF0.0
aF0.008928571428571428
aF0.0056625141562853904
aF0.0
aF0.0
aF0.006082725060827251
aF0.018867924528301886
aF0.0
aF0.0
aF0.00510204081632653
aF0.012195121951219513
aF0.005307172724348665
aF0.0
aF0.0
aF0.0
aF0.012658227848101266
aF0.020950846091861403
aF0.010582010582010581
aF0.0
aF0.005551700208188758
aF0.004512032085561497
aF0.0
aF0.001558846453624318
aF0.00455005055611729
aF0.007252215954875101
aF0.005628517823639775
aF0.017218543046357615
aF0.0
aF0.00463821892393321
aF0.0036231884057971015
aF0.002936857562408223
aF0.007177033492822967
aF0.00395703787450537
aI0
aF0.0038860103626943004
aF0.0
aF0.0034129692832764505
aF0.003992015968063872
aF0.0
aI0
aF0.0008271298593879239
aF0.00872093023255814
aF0.010299839780270085
aF0.005763688760806916
aF0.003236245954692557
aI0
aF0.004448838358872961
aF0.00841852074564041
aF0.010471204188481676
aF0.0
aF0.00620347394540943
aF0.006042296072507553
aF0.011560693641618497
aF0.005998286203941731
aF0.018674136321195144
aF0.0
aF0.0
aF0.005649717514124294
aF0.00645641917059846
aF0.0033222591362126247
aF0.0
aF0.0
aF0.0
aF0.02079002079002079
aF0.005828476269775187
aF0.008484462827447237
aF0.0
aF0.004284490145672665
aF0.0010940919037199124
aF0.0
aF0.002506265664160401
aF0.0
aF0.0068560235063663075
aF0.0
aF0.0
aF0.003291020216267043
aF0.004177109440267335
aF0.006759553041798869
aF0.012588943623426382
aF0.0
aF0.0
aF0.012422360248447204
aF0.010432648051549556
aF0.047619047619047616
aF0.008376963350785341
aF0.009784735812133072
aF0.007471980074719801
aF0.0
aF0.0
aF0.01060070671378092
aF0.015613910574875798
aF0.001869158878504673
aF0.01278409090909091
aF0.0
aF0.0036319612590799033
aF0.008403361344537815
aF0.0
aF0.009333333333333334
aF0.0033783783783783786
aF0.011404998786702257
aF0.0
aF0.0
aF0.007329842931937173
aF0.0
aF0.0
aF0.0
aF0.0022865853658536584
aF0.007897334649555774
aF0.012188208616780046
aF0.001658374792703151
aF0.0030905077262693157
aF0.0
aF0.004119464469618949
aF0.003727369542066028
aF0.0028368794326241137
aF0.0
aF0.0
aF0.0013306719893546241
aF0.0
aF0.0
aF0.006257521058965102
aF0.006416131989000917
aF0.0049382716049382715
aF0.0012610340479192938
aF0.0
aF0.0034752389226759338
aF0.0021396095212623694
aF0.00445945945945946
aF0.0016849199663016006
aF0.005726698262243286
aF0.012307692307692308
aF0.010612425381384037
aF0.00683371298405467
aF0.0
aF0.009375
aF0.01904761904761905
aF0.007387247278382581
aF0.007573149741824441
aF0.0058823529411764705
aF0.006242448650825614
aF0.005084745762711864
aF0.0
aF0.0
aF0.0
aF0.007623007623007623
aF0.005727923627684964
aF0.0
aF0.00047505938242280285
aF0.012192024384048768
aF0.017391304347826087
aF0.0028680688336520078
aF0.006836204539239814
aF0.0
aF0.0013294336612603031
aF0.0
aF0.010662824207492795
aF0.007481296758104738
aF0.005482456140350877
aF0.00390625
aF0.001183431952662722
aF0.0
aF0.020491803278688523
aF0.0
aF0.007441327990841442
aF0.006645569620253164
aF0.01011401250459728
aF0.0
aF0.0050150451354062184
aF0.047619047619047616
aF0.0012026458208057728
aF0.0019120458891013384
aF0.009848484848484848
aF0.009948269001193792
aF0.004370902279113331
aF0.0017391304347826088
aF0.015479876160990712
aF0.0136986301369863
aF0.0
aF0.00847457627118644
aF0.0
aF0.011580775911986103
aF0.015873015873015872
aF0.0024183796856106408
aF0.01188707280832095
aF0.0037735849056603774
aF0.007052186177715092
aF0.003367003367003367
aF0.011375387797311272
aF0.002652519893899204
aF0.0
aF0.0
aF0.0
aF0.0027685492801771874
aF0.005924170616113744
aF0.0
aF0.0031479538300104933
aF0.01282051282051282
aF0.0047805302042590175
aF0.0
aF0.0040650406504065045
aF0.0
aF0.0034602076124567475
aF0.0
aF0.0
aF0.0
aF0.008595988538681949
aF0.0017431725740848344
aF0.0
aF0.0
aF0.0
aF0.0
aF0.0
aF0.007662835249042145
aF0.014317180616740088
aF0.0
aF0.002109704641350211
aF0.006386861313868613
aF0.02478134110787172
aF0.0
aF0.01082753286929621
aF0.013377926421404682
aF0.006329113924050633
aF0.0
aF0.01680672268907563
aF0.0
aF0.010256410256410256
aF0.0
aF0.0022335673261008296
aF0.0
aF0.0
aF0.0
aF0.0
aF0.0
aF0.006667936749857116
aF0.019230769230769232
aF0.0
aF0.004372687521022536
aF0.015134143545058473
aF0.0056036678553234845
aF0.012084592145015106
aF0.0
aF0.0
aF0.0
aF0.0
aF0.0
aF0.0
aF0.0012091898428053204
aF0.009472259810554804
aF0.008174386920980926
aF0.007412898443291327
aF0.0023289665211062593
aF0.0
aF0.0013986013986013986
aF0.01927710843373494
aF0.0047789725209080045
aF0.0
aF0.006648936170212766
aF0.0
aF0.0032626427406199023
aF0.0010869565217391304
aF0.005995203836930456
aF0.0
aF0.003036437246963563
aF0.0017162471395881006
aF0.015561015561015561
aF0.013468013468013467
aF0.025974025974025976
aF0.007790368271954674
aF0.0
aF0.0163727959697733
aF0.0
aF0.0
aF0.02208835341365462
aF0.0
aF0.0
aF0.0
aF0.010769230769230769
aF0.0
aF0.0096
aF0.0
aF0.009831460674157303
aF0.0
aF0.0
aF0.0
aF0.011235955056179775
aF0.005412719891745603
aF0.0031496062992125984
aF0.012698412698412698
aF0.0058823529411764705
aF0.005732484076433121
aF0.0
aF0.010619469026548672
aF0.022579026593075764
aF0.007168458781362007
aF0.0045090180360721445
aF0.024319066147859923
aF0.001697792869269949
aF0.007494646680942184
aF0.002105263157894737
aF0.011976047904191617
aF0.008333333333333333
aF0.0
aF0.0
aF0.0
aF0.0
aF0.0
aF0.02244997559785261
aF0.013752052545155994
aF0.022727272727272728
aF0.0024509803921568627
aF0.014096185737976783
aF0.0
aF0.0
aF0.0
aF0.027131782945736434
aF0.010550996483001172
aF0.0
aF0.0037220843672456576
aF0.0
aF0.012448132780082987
aF0.0
aF0.0
aF0.0
aF0.0027066929133858267
aF0.0
aF0.0
aF0.0018326206475259622
aF0.004373177842565598
aF0.03142857142857143
aF0.014354066985645933
aF0.01346389228886169
aF0.007594936708860759
aF0.017543859649122806
aF0.030660377358490566
aF0.009358288770053475
aF0.008488964346349746
aF0.0070375335120643435
aF0.0163098878695209
aF0.006329113924050633
aF0.0038948393378773127
aF0.0
aF0.0020491803278688526
aF0.004340277777777778
aF0.0
aF0.0
aF0.0026954177897574125
aF0.009464575446187128
aF0.001813236627379873
aF0.006503561474140601
aF0.0
aF0.0
aF0.008468052347959968
aF0.007228915662650603
aF0.0
aF0.0132
aF0.004701457451810061
aF0.003816793893129771
aF0.005391804457225018
aF0.0
aF0.0
aF0.009377093101138647
aF0.003048780487804878
aF0.003045685279187817
aF0.00718849840255591
aF0.008191126279863481
aF0.008503401360544218
aF0.005418924551896623
aF0.0
aF0.024390243902439025
aF0.0028506271379703536
aF0.010736196319018405
aF0.006362507759155804
aF0.003028773346794548
aF0.0
aF0.015873015873015872
aF0.0
aF0.0
aF0.0021321961620469083
aF0.0034888791975577847
aF0.0
aF0.030508474576271188
aF0.0
aF0.003123048094940662
aF0.0017793594306049821
aF0.003989361702127659
aF0.0
aF0.0034949759720401923
aF0.005859375
aF0.001621271076523995
aF0.0029154518950437317
aF0.003211678832116788
aF0.0
aF0.0022222222222222222
aF0.013974517057131115
aF0.016129032258064516
aF0.004347826086956522
aF0.0
aF0.008981380065717415
aF0.02195121951219512
aF0.0
aF0.010810810810810811
aF0.005324813631522897
aF0.007246376811594203
aF0.0
aF0.004784688995215311
aF0.0
aF0.005644402634054563
aF0.005170432784373803
aF0.005120702267739576
aF0.0021268368136117557
aF0.004900626191124422
aF0.0
aF0.0
aF0.0
aF0.0
aF0.005714285714285714
aF0.011904761904761904
aF0.0034934497816593887
aF0.002987303958177745
aF0.003500583430571762
aF0.0
aF0.0
aF0.0025980160604629193
aF0.006789524733268671
aF0.0038948393378773127
aF0.004848830576155163
aF0.0
aF0.002944423997055576
aF0.006624271330153683
aF0.008483379501385042
aF0.0008120178643930166
aF0.002674107661899779
aF0.0
aF0.006242197253433208
aF0.0032310177705977385
aF0.002089427496865859
aF0.005494505494505495
aF0.0
aF0.0
aF0.0
aF0.0012993762993762994
aF0.0016501650165016502
aF0.006447831184056272
aF0.00505630889450701
aF0.004491858506457047
aF0.003031383737517832
aF0.0
aF0.005895777862305059
aF0.012607830126078301
aF0.006160164271047228
aF0.00641025641025641
aF0.002457002457002457
aF0.002450313095562211
aF0.002331681725444477
aF0.003605769230769231
aF0.0056657223796034
aF0.0
aF0.0061823802163833074
aF0.003444564047362756
aF0.0
aF0.008050089445438283
aF0.003932584269662922
aF0.001098556183301946
aF0.0044943820224719105
aF0.013986013986013986
aF0.0
aF0.002748763056624519
aF0.003066700741119346
aF0.004784688995215311
aF0.0
aF0.0
aF0.0
aF0.010466988727858293
aF0.00986735684244581
aF0.0
aF0.002730251183108846
aF0.0
aF0.01289134438305709
aF0.004032258064516129
aF0.007318348144276007
aF0.005681818181818182
aF0.0
aF0.000998003992015968
aF0.0
aF0.00697084917617237
aF0.0
aF0.003924646781789639
aF0.007997867235403893
aF0.0026560424966799467
aF0.004784688995215311
aF0.006194347657762292
aF0.0
aF0.013245033112582781
aF0.0
aF0.012131715771230503
aF0.0
aF0.0
aF0.0
aF0.0
aF0.004545454545454545
aF0.004597701149425287
aF0.0078010726474890294
aF0.0
aF0.004210526315789474
aF0.005409304002884962
aF0.0
aF0.0
aF0.007234145165179648
aF0.007554818500092132
aF0.012137359384251036
aF0.003527336860670194
aF0.00273224043715847
aF0.0010422094841063053
aF0.007874015748031496
aF0.0027624309392265192
aF0.0
aF0.0
aF0.014234875444839857
aF0.010248901903367497
aF0.0
aF0.0
a.