(lp0
(lp1
I0
aI0
aa(lp2
I0
aI0
aa(lp3
I0
aI0
aa(lp4
I0
aI0
aa(lp5
F1.0
aI0
aa(lp6
I0
aI0
aa(lp7
F1.0
aI0
aa(lp8
F1.0
aI0
aa(lp9
I0
aI0
aa(lp10
I0
aI0
aa(lp11
I0
aI0
aa(lp12
I0
aI0
aa(lp13
F1.0
aI0
aa(lp14
I0
aI0
aa(lp15
I0
aI0
aa(lp16
I0
aI0
aa(lp17
I0
aI0
aa(lp18
I0
aI0
aa(lp19
I0
aI0
aa(lp20
I0
aI0
aa(lp21
I0
aI0
aa(lp22
F1.0
aF1.0
aa(lp23
I0
aI0
aa(lp24
F1.0
aI0
aa(lp25
I0
aI0
aa(lp26
I0
aI0
aa(lp27
I0
aI0
aa(lp28
I0
aI0
aa(lp29
I0
aI0
aa(lp30
I0
aI0
aa(lp31
I0
aI0
aa(lp32
I0
aI0
aa(lp33
I0
aI0
aa(lp34
I0
aI0
aa(lp35
I0
aI0
aa(lp36
F1.0
aF1.0
aa(lp37
F1.0
aF1.0
aa(lp38
I0
aI0
aa(lp39
F1.0
aF1.0
aa(lp40
F1.0
aF1.0
aa(lp41
I0
aI0
aa(lp42
F1.0
aF1.0
aa(lp43
F1.0
aF1.0
aa(lp44
F1.0
aF1.0
aa(lp45
I0
aI0
aa(lp46
I0
aI0
aa(lp47
F1.0
aF1.0
aa(lp48
I0
aI0
aa(lp49
I0
aI0
aa(lp50
I0
aI0
aa(lp51
I0
aI0
aa(lp52
I0
aI0
aa(lp53
F1.0
aF1.0
aa(lp54
F1.0
aI0
aa(lp55
I0
aI0
aa(lp56
F1.0
aF1.0
aa(lp57
F0.3333333333333333
aI0
aa(lp58
F1.0
aF1.0
aa(lp59
I0
aI0
aa(lp60
I0
aI0
aa(lp61
I0
aI0
aa(lp62
I0
aI0
aa(lp63
F1.0
aF1.0
aa(lp64
I0
aI0
aa(lp65
F1.0
aF1.0
aa(lp66
I0
aI0
aa(lp67
F1.0
aF1.0
aa(lp68
F0.875
aF1.0
aa(lp69
I0
aI0
aa(lp70
F1.0
aI0
aa(lp71
I0
aI0
aa(lp72
I0
aI0
aa(lp73
F1.0
aI0
aa(lp74
F1.0
aI0
aa(lp75
F1.0
aI0
aa(lp76
I0
aI0
aa(lp77
F1.0
aF1.0
aa(lp78
F1.0
aF1.0
aa(lp79
I0
aI0
aa(lp80
I0
aI0
aa(lp81
I0
aI0
aa(lp82
F1.0
aI0
aa(lp83
I0
aI0
aa(lp84
I0
aI0
aa(lp85
F1.0
aF1.0
aa(lp86
I0
aI0
aa(lp87
F1.0
aF1.0
aa(lp88
I0
aI0
aa(lp89
I0
aI0
aa(lp90
I0
aI0
aa(lp91
I0
aI0
aa(lp92
I0
aI0
aa(lp93
I0
aI0
aa(lp94
F1.0
aF1.0
aa(lp95
I0
aI0
aa(lp96
I0
aI0
aa(lp97
I0
aI0
aa(lp98
F1.0
aF1.0
aa(lp99
F1.0
aF1.0
aa(lp100
I0
aI0
aa(lp101
I0
aI0
aa(lp102
I0
aI0
aa(lp103
F1.0
aF1.0
aa(lp104
F1.0
aI0
aa(lp105
I0
aI0
aa(lp106
I0
aI0
aa(lp107
F1.0
aI0
aa(lp108
I0
aI0
aa(lp109
F1.0
aI0
aa(lp110
I0
aI0
aa(lp111
I0
aI0
aa(lp112
I0
aI0
aa(lp113
I0
aI0
aa(lp114
F1.0
aF1.0
aa(lp115
F0.0
aI0
aa(lp116
I0
aI0
aa(lp117
I0
aI0
aa(lp118
I0
aI0
aa(lp119
I0
aI0
aa(lp120
F1.0
aF1.0
aa(lp121
I0
aI0
aa(lp122
I0
aI0
aa(lp123
I0
aI0
aa(lp124
I0
aI0
aa(lp125
F0.0
aI0
aa(lp126
I0
aI0
aa(lp127
I0
aI0
aa(lp128
I0
aI0
aa(lp129
I0
aI0
aa(lp130
I0
aI0
aa(lp131
F1.0
aI0
aa(lp132
I0
aI0
aa(lp133
I0
aI0
aa(lp134
I0
aI0
aa(lp135
I0
aI0
aa(lp136
F1.0
aF1.0
aa(lp137
F1.0
aI0
aa(lp138
F1.0
aF1.0
aa(lp139
I0
aI0
aa(lp140
F1.0
aI0
aa(lp141
I0
aI0
aa(lp142
I0
aI0
aa(lp143
F1.0
aI0
aa(lp144
F1.0
aF1.0
aa(lp145
I0
aI0
aa(lp146
I0
aI0
aa(lp147
I0
aI0
aa(lp148
I0
aI0
aa(lp149
I0
aI0
aa(lp150
I0
aI0
aa(lp151
I0
aI0
aa(lp152
I0
aI0
aa(lp153
I0
aI0
aa(lp154
I0
aI0
aa(lp155
I0
aI0
aa(lp156
I0
aI0
aa(lp157
F1.0
aI0
aa(lp158
I0
aI0
aa(lp159
I0
aI0
aa(lp160
F1.0
aI0
aa(lp161
I0
aI0
aa(lp162
F1.0
aF1.0
aa(lp163
I0
aI0
aa(lp164
F1.0
aF1.0
aa(lp165
I0
aI0
aa(lp166
I0
aI0
aa(lp167
I0
aI0
aa(lp168
I0
aI0
aa(lp169
I0
aI0
aa(lp170
F1.0
aF1.0
aa(lp171
I0
aI0
aa(lp172
I0
aI0
aa(lp173
I0
aI0
aa(lp174
I0
aI0
aa(lp175
I0
aI0
aa(lp176
I0
aI0
aa(lp177
I0
aI0
aa(lp178
I0
aI0
aa(lp179
I0
aI0
aa(lp180
I0
aI0
aa(lp181
I0
aI0
aa(lp182
F1.0
aI0
aa(lp183
I0
aI0
aa(lp184
F0.6
aF0.5
aa(lp185
F1.0
aF1.0
aa(lp186
F1.0
aI0
aa(lp187
I0
aI0
aa(lp188
F1.0
aF1.0
aa(lp189
I0
aI0
aa(lp190
I0
aI0
aa(lp191
F1.0
aI0
aa(lp192
F0.9846153846153847
aF1.0
aa(lp193
I0
aI0
aa(lp194
I0
aI0
aa(lp195
F1.0
aI0
aa(lp196
I0
aI0
aa(lp197
I0
aI0
aa(lp198
I0
aI0
aa(lp199
I0
aI0
aa(lp200
I0
aI0
aa(lp201
I0
aI0
aa(lp202
I0
aI0
aa(lp203
I0
aI0
aa(lp204
F1.0
aF1.0
aa(lp205
I0
aI0
aa(lp206
F1.0
aF1.0
aa(lp207
F1.0
aI0
aa(lp208
I0
aI0
aa(lp209
I0
aI0
aa(lp210
I0
aI0
aa(lp211
I0
aI0
aa(lp212
I0
aI0
aa(lp213
I0
aI0
aa(lp214
I0
aI0
aa(lp215
I0
aI0
aa(lp216
I0
aI0
aa(lp217
I0
aI0
aa(lp218
I0
aI0
aa(lp219
I0
aI0
aa(lp220
I0
aI0
aa(lp221
I0
aI0
aa(lp222
I0
aI0
aa(lp223
F1.0
aI0
aa(lp224
F1.0
aI0
aa(lp225
F1.0
aI0
aa(lp226
I0
aI0
aa(lp227
F1.0
aI0
aa(lp228
F1.0
aI0
aa(lp229
I0
aI0
aa(lp230
I0
aI0
aa(lp231
I0
aI0
aa(lp232
I0
aI0
aa(lp233
F1.0
aF1.0
aa(lp234
I0
aI0
aa(lp235
I0
aI0
aa(lp236
I0
aI0
aa(lp237
I0
aI0
aa(lp238
I0
aI0
aa(lp239
I0
aI0
aa(lp240
F1.0
aF1.0
aa(lp241
I0
aI0
aa(lp242
I0
aI0
aa(lp243
I0
aI0
aa(lp244
I0
aI0
aa(lp245
I0
aI0
aa(lp246
I0
aI0
aa(lp247
I0
aI0
aa(lp248
I0
aI0
aa(lp249
F1.0
aF1.0
aa(lp250
I0
aI0
aa(lp251
I0
aI0
aa(lp252
I0
aI0
aa(lp253
F1.0
aF1.0
aa(lp254
I0
aI0
aa(lp255
F1.0
aF1.0
aa(lp256
I0
aI0
aa(lp257
F1.0
aF1.0
aa(lp258
F1.0
aF1.0
aa(lp259
F1.0
aF1.0
aa(lp260
I0
aI0
aa(lp261
I0
aI0
aa(lp262
I0
aI0
aa(lp263
F1.0
aI0
aa(lp264
I0
aI0
aa(lp265
F1.0
aF1.0
aa(lp266
I0
aI0
aa(lp267
I0
aI0
aa(lp268
I0
aI0
aa(lp269
I0
aI0
aa(lp270
I0
aI0
aa(lp271
I0
aI0
aa(lp272
F1.0
aI0
aa(lp273
I0
aI0
aa(lp274
I0
aI0
aa(lp275
F1.0
aI0
aa(lp276
I0
aI0
aa(lp277
I0
aI0
aa(lp278
I0
aI0
aa(lp279
I0
aI0
aa(lp280
I0
aI0
aa(lp281
I0
aI0
aa(lp282
I0
aI0
aa(lp283
I0
aI0
aa(lp284
F1.0
aI0
aa(lp285
I0
aI0
aa(lp286
I0
aI0
aa(lp287
F1.0
aI0
aa(lp288
I0
aI0
aa(lp289
F1.0
aF1.0
aa(lp290
I0
aI0
aa(lp291
I0
aI0
aa(lp292
F1.0
aI0
aa(lp293
I0
aI0
aa(lp294
I0
aI0
aa(lp295
I0
aI0
aa(lp296
I0
aI0
aa(lp297
F0.18181818181818182
aF0.18181818181818182
aa(lp298
F1.0
aI0
aa(lp299
I0
aI0
aa(lp300
F1.0
aF1.0
aa(lp301
I0
aI0
aa(lp302
I0
aI0
aa(lp303
F1.0
aF1.0
aa(lp304
I0
aI0
aa(lp305
I0
aI0
aa(lp306
F1.0
aI0
aa(lp307
I0
aI0
aa(lp308
I0
aI0
aa(lp309
F1.0
aF1.0
aa(lp310
I0
aI0
aa(lp311
I0
aI0
aa(lp312
I0
aI0
aa(lp313
I0
aI0
aa(lp314
I0
aI0
aa(lp315
I0
aI0
aa(lp316
I0
aI0
aa(lp317
I0
aI0
aa(lp318
I0
aI0
aa(lp319
I0
aI0
aa(lp320
I0
aI0
aa(lp321
I0
aI0
aa(lp322
F1.0
aI0
aa(lp323
F1.0
aF1.0
aa(lp324
I0
aI0
aa(lp325
I0
aI0
aa(lp326
I0
aI0
aa(lp327
I0
aI0
aa(lp328
F1.0
aI0
aa(lp329
I0
aI0
aa(lp330
I0
aI0
aa(lp331
I0
aI0
aa(lp332
I0
aI0
aa(lp333
I0
aI0
aa(lp334
I0
aI0
aa(lp335
I0
aI0
aa(lp336
I0
aI0
aa(lp337
I0
aI0
aa(lp338
I0
aI0
aa(lp339
I0
aI0
aa(lp340
F1.0
aF1.0
aa(lp341
I0
aI0
aa(lp342
I0
aI0
aa(lp343
F1.0
aF1.0
aa(lp344
F1.0
aF1.0
aa(lp345
F1.0
aF1.0
aa(lp346
I0
aI0
aa(lp347
I0
aI0
aa(lp348
F1.0
aI0
aa(lp349
I0
aI0
aa(lp350
I0
aI0
aa(lp351
I0
aI0
aa(lp352
F1.0
aF1.0
aa(lp353
I0
aI0
aa(lp354
I0
aI0
aa(lp355
I0
aI0
aa(lp356
I0
aI0
aa(lp357
F1.0
aI0
aa(lp358
F1.0
aI0
aa(lp359
I0
aI0
aa(lp360
I0
aI0
aa(lp361
I0
aI0
aa(lp362
I0
aI0
aa(lp363
F1.0
aF1.0
aa(lp364
I0
aI0
aa(lp365
I0
aI0
aa(lp366
F1.0
aI0
aa(lp367
F1.0
aF1.0
aa(lp368
F1.0
aI0
aa(lp369
I0
aI0
aa(lp370
F1.0
aF1.0
aa(lp371
F0.9615384615384616
aF1.0
aa(lp372
F0.8
aF0.6
aa(lp373
F1.0
aF1.0
aa(lp374
I0
aI0
aa(lp375
F0.0
aI0
aa(lp376
F1.0
aF1.0
aa(lp377
F0.0
aI0
aa(lp378
F1.0
aI0
aa(lp379
I0
aI0
aa(lp380
I0
aI0
aa(lp381
I0
aI0
aa(lp382
F1.0
aI0
aa(lp383
I0
aI0
aa(lp384
I0
aI0
aa(lp385
F0.8888888888888888
aF0.8333333333333333
aa(lp386
I0
aI0
aa(lp387
I0
aI0
aa(lp388
I0
aI0
aa(lp389
I0
aI0
aa(lp390
I0
aI0
aa(lp391
I0
aI0
aa(lp392
I0
aI0
aa(lp393
I0
aI0
aa(lp394
F1.0
aI0
aa(lp395
F0.9841897233201581
aF1.0
aa(lp396
F1.0
aF0.9340659340659341
aa(lp397
I0
aI0
aa(lp398
F0.0
aI0
aa(lp399
F1.0
aF1.0
aa(lp400
F1.0
aI0
aa(lp401
I0
aI0
aa(lp402
I0
aI0
aa(lp403
I0
aI0
aa(lp404
I0
aI0
aa(lp405
F0.0
aI0
aa(lp406
I0
aI0
aa(lp407
I0
aI0
aa(lp408
I0
aI0
aa(lp409
I0
aI0
aa(lp410
I0
aI0
aa(lp411
F1.0
aF1.0
aa(lp412
F1.0
aF1.0
aa(lp413
F1.0
aI0
aa(lp414
I0
aI0
aa(lp415
F1.0
aF1.0
aa(lp416
I0
aI0
aa(lp417
I0
aI0
aa(lp418
F1.0
aF1.0
aa(lp419
I0
aI0
aa(lp420
I0
aI0
aa(lp421
I0
aI0
aa(lp422
I0
aI0
aa(lp423
I0
aI0
aa(lp424
F1.0
aI0
aa(lp425
F1.0
aI0
aa(lp426
F1.0
aF1.0
aa(lp427
I0
aI0
aa(lp428
I0
aI0
aa(lp429
F1.0
aI0
aa(lp430
I0
aI0
aa(lp431
I0
aI0
aa(lp432
I0
aI0
aa(lp433
I0
aI0
aa(lp434
F1.0
aF1.0
aa(lp435
I0
aI0
aa(lp436
F0.9692307692307693
aF0.9230769230769231
aa(lp437
I0
aI0
aa(lp438
I0
aI0
aa(lp439
F1.0
aF1.0
aa(lp440
F0.0
aF0.0
aa(lp441
F1.0
aF1.0
aa(lp442
F1.0
aF1.0
aa(lp443
I0
aI0
aa(lp444
I0
aI0
aa(lp445
F1.0
aF1.0
aa(lp446
I0
aI0
aa(lp447
I0
aI0
aa(lp448
F1.0
aI0
aa(lp449
I0
aI0
aa(lp450
I0
aI0
aa(lp451
F1.0
aF1.0
aa(lp452
F1.0
aF1.0
aa(lp453
I0
aI0
aa(lp454
I0
aI0
aa(lp455
F1.0
aF1.0
aa(lp456
I0
aI0
aa(lp457
I0
aI0
aa(lp458
I0
aI0
aa(lp459
F1.0
aF1.0
aa(lp460
I0
aI0
aa(lp461
I0
aI0
aa(lp462
I0
aI0
aa(lp463
F1.0
aF1.0
aa(lp464
I0
aI0
aa(lp465
F1.0
aF1.0
aa(lp466
I0
aI0
aa(lp467
I0
aI0
aa(lp468
I0
aI0
aa(lp469
F1.0
aI0
aa(lp470
I0
aI0
aa(lp471
F0.0
aF0.0
aa(lp472
F1.0
aF1.0
aa(lp473
I0
aI0
aa(lp474
I0
aI0
aa(lp475
F1.0
aF1.0
aa(lp476
F1.0
aF1.0
aa(lp477
I0
aI0
aa(lp478
I0
aI0
aa(lp479
I0
aI0
aa(lp480
F1.0
aI0
aa(lp481
I0
aI0
aa(lp482
F1.0
aI0
aa(lp483
I0
aI0
aa(lp484
I0
aI0
aa(lp485
I0
aI0
aa(lp486
I0
aI0
aa(lp487
F1.0
aI0
aa(lp488
I0
aI0
aa(lp489
I0
aI0
aa(lp490
I0
aI0
aa(lp491
F1.0
aI0
aa(lp492
I0
aI0
aa(lp493
I0
aI0
aa(lp494
I0
aI0
aa(lp495
I0
aI0
aa(lp496
I0
aI0
aa(lp497
I0
aI0
aa(lp498
I0
aI0
aa(lp499
I0
aI0
aa(lp500
I0
aI0
aa(lp501
I0
aI0
aa(lp502
F1.0
aF1.0
aa(lp503
F1.0
aI0
aa(lp504
I0
aI0
aa(lp505
F1.0
aF1.0
aa(lp506
I0
aI0
aa(lp507
F0.0
aF0.0
aa(lp508
F1.0
aF1.0
aa(lp509
F1.0
aI0
aa(lp510
F1.0
aI0
aa(lp511
F1.0
aI0
aa(lp512
I0
aI0
aa(lp513
F1.0
aI0
aa(lp514
I0
aI0
aa(lp515
I0
aI0
aa(lp516
I0
aI0
aa(lp517
I0
aI0
aa(lp518
I0
aI0
aa(lp519
I0
aI0
aa(lp520
F1.0
aI0
aa(lp521
I0
aI0
aa(lp522
F1.0
aI0
aa(lp523
F1.0
aI0
aa(lp524
F1.0
aI0
aa(lp525
I0
aI0
aa(lp526
I0
aI0
aa(lp527
I0
aI0
aa(lp528
I0
aI0
aa(lp529
I0
aI0
aa(lp530
F0.9487179487179488
aF0.8461538461538461
aa(lp531
I0
aI0
aa(lp532
I0
aI0
aa(lp533
I0
aI0
aa(lp534
F1.0
aI0
aa(lp535
I0
aI0
aa(lp536
I0
aI0
aa(lp537
I0
aI0
aa(lp538
I0
aI0
aa(lp539
F1.0
aF1.0
aa(lp540
F1.0
aI0
aa(lp541
I0
aI0
aa(lp542
F1.0
aI0
aa(lp543
I0
aI0
aa(lp544
I0
aI0
aa(lp545
I0
aI0
aa(lp546
I0
aI0
aa(lp547
I0
aI0
aa(lp548
I0
aI0
aa(lp549
F1.0
aI0
aa(lp550
F1.0
aI0
aa(lp551
I0
aI0
aa(lp552
F1.0
aI0
aa(lp553
I0
aI0
aa(lp554
I0
aI0
aa(lp555
F1.0
aI0
aa(lp556
I0
aI0
aa(lp557
F1.0
aI0
aa(lp558
I0
aI0
aa(lp559
F1.0
aF1.0
aa(lp560
I0
aI0
aa(lp561
I0
aI0
aa(lp562
I0
aI0
aa(lp563
I0
aI0
aa(lp564
F1.0
aI0
aa(lp565
I0
aI0
aa(lp566
I0
aI0
aa(lp567
I0
aI0
aa(lp568
I0
aI0
aa(lp569
F0.0
aF0.0
aa(lp570
I0
aI0
aa(lp571
F1.0
aI0
aa(lp572
F1.0
aI0
aa(lp573
F1.0
aI0
aa(lp574
I0
aI0
aa(lp575
I0
aI0
aa(lp576
I0
aI0
aa(lp577
F1.0
aF1.0
aa(lp578
I0
aI0
aa(lp579
I0
aI0
aa(lp580
I0
aI0
aa(lp581
I0
aI0
aa(lp582
F1.0
aF1.0
aa(lp583
I0
aI0
aa(lp584
F1.0
aI0
aa(lp585
I0
aI0
aa(lp586
I0
aI0
aa(lp587
I0
aI0
aa(lp588
I0
aI0
aa(lp589
I0
aI0
aa(lp590
F0.0
aI0
aa(lp591
I0
aI0
aa(lp592
I0
aI0
aa(lp593
I0
aI0
aa(lp594
I0
aI0
aa(lp595
F1.0
aI0
aa(lp596
F1.0
aF1.0
aa(lp597
F1.0
aI0
aa(lp598
F1.0
aI0
aa(lp599
I0
aI0
aa(lp600
I0
aI0
aa(lp601
I0
aI0
aa(lp602
F1.0
aI0
aa(lp603
I0
aI0
aa(lp604
I0
aI0
aa(lp605
F1.0
aI0
aa(lp606
F1.0
aI0
aa(lp607
F1.0
aI0
aa(lp608
I0
aI0
aa(lp609
I0
aI0
aa(lp610
F1.0
aI0
aa(lp611
F1.0
aI0
aa(lp612
I0
aI0
aa(lp613
F1.0
aI0
aa(lp614
F1.0
aI0
aa(lp615
F1.0
aF1.0
aa(lp616
F0.625
aF0.55
aa(lp617
I0
aI0
aa(lp618
I0
aI0
aa(lp619
F1.0
aF1.0
aa(lp620
F1.0
aF1.0
aa(lp621
I0
aI0
aa(lp622
F0.8579881656804733
aF0.6307692307692307
aa(lp623
I0
aI0
aa(lp624
I0
aI0
aa(lp625
I0
aI0
aa(lp626
I0
aI0
aa(lp627
F1.0
aI0
aa(lp628
I0
aI0
aa(lp629
I0
aI0
aa(lp630
I0
aI0
aa(lp631
I0
aI0
aa(lp632
I0
aI0
aa(lp633
I0
aI0
aa(lp634
I0
aI0
aa(lp635
I0
aI0
aa(lp636
F1.0
aF1.0
aa(lp637
I0
aI0
aa(lp638
I0
aI0
aa(lp639
F1.0
aI0
aa(lp640
F1.0
aI0
aa(lp641
F1.0
aI0
aa(lp642
I0
aI0
aa(lp643
I0
aI0
aa(lp644
I0
aI0
aa(lp645
I0
aI0
aa(lp646
I0
aI0
aa(lp647
I0
aI0
aa(lp648
I0
aI0
aa(lp649
I0
aI0
aa(lp650
I0
aI0
aa(lp651
I0
aI0
aa(lp652
I0
aI0
aa(lp653
F1.0
aF1.0
aa(lp654
I0
aI0
aa(lp655
F1.0
aF1.0
aa(lp656
I0
aI0
aa(lp657
I0
aI0
aa(lp658
I0
aI0
aa(lp659
F1.0
aF1.0
aa(lp660
F1.0
aI0
aa(lp661
I0
aI0
aa(lp662
F1.0
aF1.0
aa(lp663
F1.0
aI0
aa(lp664
I0
aI0
aa(lp665
I0
aI0
aa(lp666
F1.0
aF1.0
aa(lp667
I0
aI0
aa(lp668
I0
aI0
aa(lp669
F1.0
aF1.0
aa(lp670
I0
aI0
aa(lp671
F1.0
aF1.0
aa(lp672
F1.0
aI0
aa(lp673
I0
aI0
aa(lp674
I0
aI0
aa(lp675
I0
aI0
aa(lp676
I0
aI0
aa(lp677
I0
aI0
aa(lp678
I0
aI0
aa(lp679
I0
aI0
aa(lp680
I0
aI0
aa(lp681
I0
aI0
aa(lp682
I0
aI0
aa(lp683
I0
aI0
aa(lp684
I0
aI0
aa(lp685
I0
aI0
aa(lp686
I0
aI0
aa(lp687
I0
aI0
aa(lp688
I0
aI0
aa(lp689
I0
aI0
aa(lp690
I0
aI0
aa(lp691
I0
aI0
aa(lp692
I0
aI0
aa(lp693
I0
aI0
aa(lp694
I0
aI0
aa(lp695
I0
aI0
aa(lp696
I0
aI0
aa(lp697
I0
aI0
aa(lp698
F0.3333333333333333
aF0.3333333333333333
aa(lp699
I0
aI0
aa(lp700
I0
aI0
aa(lp701
I0
aI0
aa(lp702
F1.0
aI0
aa(lp703
I0
aI0
aa(lp704
I0
aI0
aa(lp705
I0
aI0
aa(lp706
I0
aI0
aa(lp707
I0
aI0
aa(lp708
I0
aI0
aa(lp709
I0
aI0
aa(lp710
F1.0
aF1.0
aa(lp711
I0
aI0
aa(lp712
F1.0
aF1.0
aa(lp713
F1.0
aF1.0
aa(lp714
F1.0
aF1.0
aa(lp715
F0.8076923076923077
aF0.8076923076923077
aa(lp716
I0
aI0
aa(lp717
I0
aI0
aa(lp718
I0
aI0
aa(lp719
I0
aI0
aa(lp720
I0
aI0
aa(lp721
I0
aI0
aa(lp722
I0
aI0
aa(lp723
I0
aI0
aa(lp724
I0
aI0
aa(lp725
F1.0
aI0
aa(lp726
F0.8461538461538461
aF0.6923076923076923
aa(lp727
I0
aI0
aa(lp728
F0.9166666666666666
aF0.8484848484848485
aa(lp729
I0
aI0
aa(lp730
I0
aI0
aa(lp731
I0
aI0
aa(lp732
I0
aI0
aa(lp733
F1.0
aF1.0
aa(lp734
I0
aI0
aa(lp735
I0
aI0
aa(lp736
F1.0
aF1.0
aa(lp737
F0.0
aI0
aa(lp738
F0.6
aF0.6
aa(lp739
I0
aI0
aa(lp740
I0
aI0
aa(lp741
I0
aI0
aa(lp742
I0
aI0
aa(lp743
I0
aI0
aa(lp744
I0
aI0
aa(lp745
I0
aI0
aa(lp746
I0
aI0
aa(lp747
I0
aI0
aa(lp748
F0.8974358974358975
aF0.8461538461538461
aa(lp749
F0.8974358974358975
aF0.8461538461538461
aa(lp750
I0
aI0
aa(lp751
F1.0
aF1.0
aa(lp752
F0.8974358974358975
aF0.8974358974358975
aa(lp753
F1.0
aF1.0
aa(lp754
F0.9515151515151515
aF0.6842105263157895
aa(lp755
I0
aI0
aa(lp756
I0
aI0
aa(lp757
F0.8333333333333333
aF0.8333333333333333
aa(lp758
I0
aI0
aa(lp759
I0
aI0
aa(lp760
F0.75
aF0.5
aa(lp761
I0
aI0
aa(lp762
I0
aI0
aa(lp763
I0
aI0
aa(lp764
F1.0
aF1.0
aa(lp765
I0
aI0
aa(lp766
F1.0
aI0
aa(lp767
I0
aI0
aa(lp768
I0
aI0
aa(lp769
I0
aI0
aa(lp770
F1.0
aF1.0
aa(lp771
I0
aI0
aa(lp772
I0
aI0
aa(lp773
I0
aI0
aa(lp774
I0
aI0
aa(lp775
F0.9555555555555555
aF0.3888888888888889
aa(lp776
I0
aI0
aa(lp777
I0
aI0
aa(lp778
F1.0
aF0.2222222222222222
aa(lp779
I0
aI0
aa(lp780
I0
aI0
aa(lp781
F1.0
aI0
aa(lp782
I0
aI0
aa(lp783
I0
aI0
aa(lp784
F1.0
aF1.0
aa(lp785
F1.0
aI0
aa(lp786
I0
aI0
aa(lp787
I0
aI0
aa(lp788
I0
aI0
aa(lp789
I0
aI0
aa(lp790
F0.42857142857142855
aF0.19999999999999998
aa(lp791
F0.0
aF0.0
aa(lp792
I0
aI0
aa(lp793
I0
aI0
aa(lp794
I0
aI0
aa(lp795
I0
aI0
aa(lp796
I0
aI0
aa(lp797
F0.0
aF0.0
aa(lp798
I0
aI0
aa(lp799
I0
aI0
aa(lp800
I0
aI0
aa(lp801
I0
aI0
aa(lp802
F1.0
aF1.0
aa(lp803
I0
aI0
aa(lp804
F1.0
aI0
aa(lp805
I0
aI0
aa(lp806
I0
aI0
aa(lp807
I0
aI0
aa(lp808
F0.648148148148148
aF0.6222222222222221
aa(lp809
F1.0
aF1.0
aa(lp810
F1.0
aF1.0
aa(lp811
I0
aI0
aa(lp812
I0
aI0
aa(lp813
I0
aI0
aa(lp814
I0
aI0
aa(lp815
I0
aI0
aa(lp816
F0.5789473684210527
aF0.5789473684210527
aa(lp817
I0
aI0
aa(lp818
I0
aI0
aa(lp819
I0
aI0
aa(lp820
F1.0
aI0
aa(lp821
I0
aI0
aa(lp822
I0
aI0
aa(lp823
I0
aI0
aa(lp824
I0
aI0
aa(lp825
I0
aI0
aa(lp826
I0
aI0
aa(lp827
I0
aI0
aa(lp828
I0
aI0
aa(lp829
I0
aI0
aa(lp830
I0
aI0
aa(lp831
F0.0
aF0.0
aa(lp832
I0
aI0
aa(lp833
I0
aI0
aa(lp834
I0
aI0
aa(lp835
F1.0
aI0
aa(lp836
I0
aI0
aa(lp837
F1.0
aF1.0
aa(lp838
F1.0
aI0
aa(lp839
F1.0
aF0.8333333333333334
aa(lp840
I0
aI0
aa(lp841
I0
aI0
aa(lp842
I0
aI0
aa(lp843
I0
aI0
aa(lp844
I0
aI0
aa(lp845
F1.0
aI0
aa(lp846
I0
aI0
aa(lp847
I0
aI0
aa(lp848
I0
aI0
aa(lp849
F1.0
aI0
aa(lp850
F1.0
aF1.0
aa(lp851
F1.0
aI0
aa(lp852
I0
aI0
aa(lp853
I0
aI0
aa(lp854
I0
aI0
aa(lp855
I0
aI0
aa(lp856
I0
aI0
aa(lp857
I0
aI0
aa(lp858
I0
aI0
aa(lp859
F1.0
aI0
aa(lp860
I0
aI0
aa(lp861
I0
aI0
aa(lp862
F0.8031746031746032
aF0.671957671957672
aa(lp863
I0
aI0
aa(lp864
I0
aI0
aa(lp865
F1.0
aF1.0
aa(lp866
F1.0
aI0
aa(lp867
I0
aI0
aa(lp868
I0
aI0
aa(lp869
I0
aI0
aa(lp870
F1.0
aI0
aa(lp871
I0
aI0
aa(lp872
I0
aI0
aa(lp873
F1.0
aI0
aa(lp874
I0
aI0
aa(lp875
I0
aI0
aa(lp876
I0
aI0
aa(lp877
F1.0
aF1.0
aa(lp878
F1.0
aF1.0
aa(lp879
I0
aI0
aa(lp880
I0
aI0
aa(lp881
F1.0
aI0
aa(lp882
F1.0
aI0
aa(lp883
I0
aI0
aa(lp884
F1.0
aI0
aa(lp885
I0
aI0
aa(lp886
F1.0
aI0
aa(lp887
I0
aI0
aa(lp888
F1.0
aI0
aa(lp889
F1.0
aI0
aa(lp890
F1.0
aF1.0
aa(lp891
I0
aI0
aa(lp892
I0
aI0
aa(lp893
F1.0
aF1.0
aa(lp894
F1.0
aF1.0
aa(lp895
I0
aI0
aa(lp896
F0.75
aF0.75
aa(lp897
F1.0
aF1.0
aa(lp898
I0
aI0
aa(lp899
F1.0
aF1.0
aa(lp900
F0.0
aF0.0
aa(lp901
I0
aI0
aa(lp902
I0
aI0
aa(lp903
I0
aI0
aa(lp904
F1.0
aI0
aa(lp905
F1.0
aF1.0
aa(lp906
I0
aI0
aa(lp907
F1.0
aI0
aa(lp908
I0
aI0
aa(lp909
I0
aI0
aa(lp910
F1.0
aF1.0
aa(lp911
I0
aI0
aa(lp912
I0
aI0
aa(lp913
I0
aI0
aa(lp914
I0
aI0
aa(lp915
F1.0
aI0
aa(lp916
F1.0
aI0
aa(lp917
I0
aI0
aa(lp918
I0
aI0
aa(lp919
I0
aI0
aa(lp920
I0
aI0
aa(lp921
I0
aI0
aa(lp922
I0
aI0
aa(lp923
I0
aI0
aa(lp924
I0
aI0
aa(lp925
F1.0
aF1.0
aa(lp926
F1.0
aI0
aa(lp927
I0
aI0
aa(lp928
I0
aI0
aa(lp929
I0
aI0
aa(lp930
F1.0
aI0
aa(lp931
I0
aI0
aa(lp932
I0
aI0
aa(lp933
I0
aI0
aa(lp934
I0
aI0
aa(lp935
I0
aI0
aa(lp936
I0
aI0
aa(lp937
I0
aI0
aa(lp938
I0
aI0
aa(lp939
I0
aI0
aa(lp940
I0
aI0
aa(lp941
I0
aI0
aa(lp942
I0
aI0
aa(lp943
I0
aI0
aa(lp944
I0
aI0
aa(lp945
I0
aI0
aa(lp946
F1.0
aF1.0
aa(lp947
F1.0
aI0
aa(lp948
I0
aI0
aa(lp949
F1.0
aI0
aa(lp950
F1.0
aI0
aa(lp951
I0
aI0
aa(lp952
I0
aI0
aa(lp953
I0
aI0
aa(lp954
I0
aI0
aa(lp955
I0
aI0
aa(lp956
F1.0
aI0
aa(lp957
I0
aI0
aa(lp958
I0
aI0
aa(lp959
I0
aI0
aa(lp960
F1.0
aI0
aa(lp961
F1.0
aI0
aa(lp962
I0
aI0
aa(lp963
I0
aI0
aa(lp964
I0
aI0
aa(lp965
I0
aI0
aa(lp966
I0
aI0
aa(lp967
F1.0
aI0
aa(lp968
I0
aI0
aa(lp969
I0
aI0
aa(lp970
I0
aI0
aa(lp971
F1.0
aF1.0
aa(lp972
I0
aI0
aa(lp973
I0
aI0
aa(lp974
I0
aI0
aa(lp975
I0
aI0
aa(lp976
F1.0
aI0
aa(lp977
I0
aI0
aa(lp978
I0
aI0
aa(lp979
I0
aI0
aa(lp980
I0
aI0
aa(lp981
I0
aI0
aa(lp982
F1.0
aI0
aa(lp983
F1.0
aI0
aa(lp984
I0
aI0
aa(lp985
I0
aI0
aa(lp986
F1.0
aI0
aa(lp987
I0
aI0
aa(lp988
I0
aI0
aa(lp989
F1.0
aI0
aa(lp990
F1.0
aI0
aa(lp991
F1.0
aF1.0
aa(lp992
I0
aI0
aa(lp993
F1.0
aF1.0
aa(lp994
F1.0
aF1.0
aa(lp995
F1.0
aF1.0
aa(lp996
I0
aI0
aa(lp997
I0
aI0
aa(lp998
I0
aI0
aa(lp999
I0
aI0
aa(lp1000
F0.9696969696969696
aF0.9595959595959597
aa(lp1001
I0
aI0
aa(lp1002
I0
aI0
aa(lp1003
I0
aI0
aa(lp1004
I0
aI0
aa(lp1005
I0
aI0
aa(lp1006
F1.0
aF1.0
aa(lp1007
F0.0
aI0
aa(lp1008
F1.0
aI0
aa(lp1009
I0
aI0
aa(lp1010
I0
aI0
aa(lp1011
I0
aI0
aa(lp1012
I0
aI0
aa(lp1013
I0
aI0
aa(lp1014
I0
aI0
aa(lp1015
F1.0
aF1.0
aa(lp1016
I0
aI0
aa(lp1017
F1.0
aI0
aa(lp1018
F0.9722222222222222
aF0.9444444444444444
aa(lp1019
I0
aI0
aa(lp1020
I0
aI0
aa(lp1021
F1.0
aI0
aa(lp1022
I0
aI0
aa(lp1023
F1.0
aF1.0
aa(lp1024
F1.0
aI0
aa(lp1025
I0
aI0
aa(lp1026
I0
aI0
aa(lp1027
I0
aI0
aa(lp1028
I0
aI0
aa(lp1029
I0
aI0
aa(lp1030
F1.0
aF1.0
aa(lp1031
I0
aI0
aa(lp1032
I0
aI0
aa(lp1033
I0
aI0
aa(lp1034
I0
aI0
aa(lp1035
I0
aI0
aa(lp1036
I0
aI0
aa(lp1037
I0
aI0
aa(lp1038
I0
aI0
aa(lp1039
I0
aI0
aa(lp1040
I0
aI0
aa(lp1041
I0
aI0
aa(lp1042
F1.0
aI0
aa(lp1043
F1.0
aI0
aa(lp1044
I0
aI0
aa(lp1045
I0
aI0
aa(lp1046
F1.0
aI0
aa(lp1047
I0
aI0
aa(lp1048
F1.0
aI0
aa(lp1049
I0
aI0
aa(lp1050
F1.0
aI0
aa(lp1051
F1.0
aF1.0
aa(lp1052
I0
aI0
aa(lp1053
I0
aI0
aa(lp1054
I0
aI0
aa(lp1055
I0
aI0
aa(lp1056
I0
aI0
aa(lp1057
F1.0
aI0
aa(lp1058
I0
aI0
aa(lp1059
I0
aI0
aa(lp1060
I0
aI0
aa(lp1061
I0
aI0
aa(lp1062
I0
aI0
aa(lp1063
I0
aI0
aa(lp1064
I0
aI0
aa(lp1065
I0
aI0
aa(lp1066
I0
aI0
aa(lp1067
I0
aI0
aa(lp1068
F1.0
aI0
aa(lp1069
I0
aI0
aa(lp1070
I0
aI0
aa(lp1071
I0
aI0
aa(lp1072
I0
aI0
aa(lp1073
I0
aI0
aa(lp1074
I0
aI0
aa(lp1075
F1.0
aI0
aa(lp1076
I0
aI0
aa(lp1077
I0
aI0
aa(lp1078
F1.0
aF1.0
aa(lp1079
I0
aI0
aa(lp1080
F0.9722222222222222
aF1.0
aa(lp1081
F1.0
aF1.0
aa(lp1082
I0
aI0
aa(lp1083
I0
aI0
aa(lp1084
I0
aI0
aa(lp1085
I0
aI0
aa(lp1086
I0
aI0
aa(lp1087
I0
aI0
aa(lp1088
I0
aI0
aa(lp1089
I0
aI0
aa(lp1090
F1.0
aI0
aa(lp1091
I0
aI0
aa(lp1092
I0
aI0
aa(lp1093
F1.0
aI0
aa(lp1094
F1.0
aI0
aa(lp1095
F1.0
aI0
aa(lp1096
F1.0
aF1.0
aa(lp1097
I0
aI0
aa(lp1098
I0
aI0
aa(lp1099
F1.0
aI0
aa(lp1100
I0
aI0
aa(lp1101
I0
aI0
aa(lp1102
I0
aI0
aa(lp1103
F1.0
aI0
aa(lp1104
F1.0
aI0
aa(lp1105
I0
aI0
aa(lp1106
F1.0
aI0
aa(lp1107
I0
aI0
aa(lp1108
I0
aI0
aa(lp1109
F1.0
aI0
aa(lp1110
F1.0
aI0
aa(lp1111
F1.0
aI0
aa(lp1112
I0
aI0
aa(lp1113
I0
aI0
aa(lp1114
F1.0
aI0
aa(lp1115
F1.0
aI0
aa(lp1116
F1.0
aF1.0
aa(lp1117
I0
aI0
aa(lp1118
I0
aI0
aa(lp1119
I0
aI0
aa(lp1120
F0.7948717948717948
aF0.38461538461538464
aa(lp1121
I0
aI0
aa(lp1122
F1.0
aI0
aa(lp1123
I0
aI0
aa(lp1124
I0
aI0
aa(lp1125
I0
aI0
aa(lp1126
F1.0
aF1.0
aa(lp1127
I0
aI0
aa(lp1128
I0
aI0
aa(lp1129
I0
aI0
aa(lp1130
I0
aI0
aa(lp1131
I0
aI0
aa(lp1132
F1.0
aI0
aa(lp1133
I0
aI0
aa(lp1134
F1.0
aF1.0
aa(lp1135
I0
aI0
aa(lp1136
I0
aI0
aa(lp1137
I0
aI0
aa(lp1138
I0
aI0
aa(lp1139
I0
aI0
aa(lp1140
I0
aI0
aa(lp1141
I0
aI0
aa(lp1142
F1.0
aI0
aa(lp1143
F1.0
aI0
aa(lp1144
I0
aI0
aa(lp1145
I0
aI0
aa(lp1146
I0
aI0
aa(lp1147
F0.0
aF0.0
aa(lp1148
I0
aI0
aa(lp1149
F1.0
aI0
aa(lp1150
F1.0
aF1.0
aa(lp1151
F0.0
aI0
aa(lp1152
F0.75
aF1.0
aa(lp1153
F1.0
aF1.0
aa(lp1154
I0
aI0
aa(lp1155
I0
aI0
aa(lp1156
I0
aI0
aa(lp1157
I0
aI0
aa(lp1158
F1.0
aI0
aa(lp1159
F1.0
aI0
aa(lp1160
F1.0
aI0
aa(lp1161
I0
aI0
aa(lp1162
I0
aI0
aa(lp1163
F1.0
aF1.0
aa(lp1164
I0
aI0
aa(lp1165
F1.0
aI0
aa(lp1166
I0
aI0
aa(lp1167
F1.0
aF1.0
aa(lp1168
I0
aI0
aa(lp1169
I0
aI0
aa(lp1170
F1.0
aI0
aa(lp1171
I0
aI0
aa(lp1172
I0
aI0
aa(lp1173
I0
aI0
aa(lp1174
I0
aI0
aa(lp1175
I0
aI0
aa(lp1176
I0
aI0
aa(lp1177
I0
aI0
aa(lp1178
I0
aI0
aa(lp1179
F1.0
aF1.0
aa(lp1180
I0
aI0
aa(lp1181
I0
aI0
aa(lp1182
I0
aI0
aa(lp1183
I0
aI0
aa(lp1184
I0
aI0
aa(lp1185
I0
aI0
aa(lp1186
I0
aI0
aa(lp1187
I0
aI0
aa(lp1188
I0
aI0
aa(lp1189
F1.0
aF1.0
aa(lp1190
I0
aI0
aa(lp1191
I0
aI0
aa(lp1192
F1.0
aI0
aa(lp1193
I0
aI0
aa(lp1194
I0
aI0
aa(lp1195
I0
aI0
aa(lp1196
I0
aI0
aa(lp1197
I0
aI0
aa(lp1198
I0
aI0
aa(lp1199
I0
aI0
aa(lp1200
F1.0
aF1.0
aa(lp1201
I0
aI0
aa(lp1202
F1.0
aF1.0
aa(lp1203
F1.0
aF1.0
aa(lp1204
F0.0
aF0.0
aa(lp1205
I0
aI0
aa(lp1206
I0
aI0
aa(lp1207
I0
aI0
aa(lp1208
I0
aI0
aa(lp1209
F1.0
aF1.0
aa(lp1210
F1.0
aI0
aa(lp1211
I0
aI0
aa(lp1212
I0
aI0
aa(lp1213
I0
aI0
aa(lp1214
F1.0
aI0
aa(lp1215
I0
aI0
aa(lp1216
F1.0
aF1.0
aa(lp1217
I0
aI0
aa(lp1218
F1.0
aF1.0
aa(lp1219
I0
aI0
aa(lp1220
I0
aI0
aa(lp1221
I0
aI0
aa(lp1222
I0
aI0
aa(lp1223
F1.0
aI0
aa(lp1224
I0
aI0
aa(lp1225
I0
aI0
aa(lp1226
I0
aI0
aa(lp1227
F1.0
aI0
aa(lp1228
F1.0
aF1.0
aa(lp1229
F1.0
aI0
aa(lp1230
I0
aI0
aa(lp1231
I0
aI0
aa(lp1232
I0
aI0
aa(lp1233
I0
aI0
aa(lp1234
I0
aI0
aa(lp1235
I0
aI0
aa(lp1236
F1.0
aI0
aa(lp1237
I0
aI0
aa(lp1238
F1.0
aI0
aa(lp1239
I0
aI0
aa(lp1240
F1.0
aI0
aa(lp1241
I0
aI0
aa(lp1242
F1.0
aI0
aa(lp1243
I0
aI0
aa(lp1244
I0
aI0
aa(lp1245
I0
aI0
aa(lp1246
I0
aI0
aa(lp1247
F1.0
aI0
aa(lp1248
F1.0
aI0
aa(lp1249
I0
aI0
aa(lp1250
I0
aI0
aa(lp1251
F1.0
aF1.0
aa(lp1252
I0
aI0
aa(lp1253
I0
aI0
aa(lp1254
I0
aI0
aa(lp1255
I0
aI0
aa(lp1256
I0
aI0
aa(lp1257
I0
aI0
aa(lp1258
F1.0
aI0
aa(lp1259
F1.0
aF1.0
aa(lp1260
F1.0
aF1.0
aa(lp1261
I0
aI0
aa(lp1262
F1.0
aF1.0
aa(lp1263
F1.0
aF1.0
aa(lp1264
F1.0
aF1.0
aa(lp1265
I0
aI0
aa(lp1266
F1.0
aF1.0
aa(lp1267
I0
aI0
aa(lp1268
I0
aI0
aa(lp1269
I0
aI0
aa(lp1270
F1.0
aF1.0
aa(lp1271
F1.0
aF1.0
aa(lp1272
I0
aI0
aa(lp1273
I0
aI0
aa(lp1274
I0
aI0
aa(lp1275
I0
aI0
aa(lp1276
I0
aI0
aa(lp1277
F1.0
aF1.0
aa(lp1278
I0
aI0
aa(lp1279
I0
aI0
aa(lp1280
I0
aI0
aa(lp1281
F1.0
aF1.0
aa(lp1282
F1.0
aF1.0
aa(lp1283
F1.0
aI0
aa(lp1284
F1.0
aF1.0
aa(lp1285
F1.0
aF1.0
aa(lp1286
F1.0
aI0
aa(lp1287
F1.0
aF1.0
aa(lp1288
I0
aI0
aa(lp1289
F1.0
aF1.0
aa(lp1290
F0.0
aF0.0
aa(lp1291
I0
aI0
aa(lp1292
F1.0
aF1.0
aa(lp1293
I0
aI0
aa(lp1294
F1.0
aF1.0
aa(lp1295
I0
aI0
aa(lp1296
I0
aI0
aa(lp1297
I0
aI0
aa(lp1298
I0
aI0
aa(lp1299
I0
aI0
aa(lp1300
I0
aI0
aa(lp1301
I0
aI0
aa(lp1302
I0
aI0
aa(lp1303
I0
aI0
aa(lp1304
F1.0
aF1.0
aa(lp1305
F1.0
aI0
aa(lp1306
I0
aI0
aa(lp1307
I0
aI0
aa(lp1308
I0
aI0
aa(lp1309
I0
aI0
aa(lp1310
I0
aI0
aa(lp1311
F1.0
aI0
aa(lp1312
I0
aI0
aa(lp1313
I0
aI0
aa(lp1314
I0
aI0
aa(lp1315
I0
aI0
aa(lp1316
F1.0
aF1.0
aa(lp1317
I0
aI0
aa(lp1318
F1.0
aI0
aa(lp1319
F1.0
aF1.0
aa(lp1320
I0
aI0
aa(lp1321
I0
aI0
aa(lp1322
F1.0
aI0
aa(lp1323
I0
aI0
aa(lp1324
I0
aI0
aa(lp1325
I0
aI0
aa(lp1326
I0
aI0
aa(lp1327
I0
aI0
aa(lp1328
I0
aI0
aa(lp1329
F1.0
aF1.0
aa(lp1330
I0
aI0
aa(lp1331
I0
aI0
aa(lp1332
I0
aI0
aa(lp1333
F1.0
aI0
aa(lp1334
F1.0
aI0
aa(lp1335
I0
aI0
aa(lp1336
I0
aI0
aa(lp1337
I0
aI0
aa(lp1338
F1.0
aF1.0
aa(lp1339
I0
aI0
aa(lp1340
I0
aI0
aa(lp1341
I0
aI0
aa(lp1342
F0.9230769230769231
aF0.6923076923076923
aa(lp1343
F1.0
aI0
aa(lp1344
I0
aI0
aa(lp1345
I0
aI0
aa(lp1346
I0
aI0
aa(lp1347
F1.0
aI0
aa(lp1348
I0
aI0
aa(lp1349
I0
aI0
aa(lp1350
F1.0
aI0
aa(lp1351
I0
aI0
aa(lp1352
I0
aI0
aa(lp1353
F1.0
aF1.0
aa(lp1354
F1.0
aI0
aa(lp1355
I0
aI0
aa(lp1356
I0
aI0
aa(lp1357
I0
aI0
aa(lp1358
I0
aI0
aa(lp1359
I0
aI0
aa(lp1360
F0.0
aF0.0
aa(lp1361
I0
aI0
aa(lp1362
F1.0
aF1.0
aa(lp1363
I0
aI0
aa(lp1364
I0
aI0
aa(lp1365
I0
aI0
aa(lp1366
I0
aI0
aa(lp1367
I0
aI0
aa(lp1368
F1.0
aI0
aa(lp1369
F1.0
aF1.0
aa(lp1370
I0
aI0
aa(lp1371
I0
aI0
aa(lp1372
F1.0
aF1.0
aa(lp1373
I0
aI0
aa(lp1374
I0
aI0
aa(lp1375
I0
aI0
aa(lp1376
F1.0
aF1.0
aa(lp1377
I0
aI0
aa(lp1378
I0
aI0
aa(lp1379
I0
aI0
aa(lp1380
I0
aI0
aa(lp1381
F1.0
aF1.0
aa(lp1382
F1.0
aF1.0
aa(lp1383
I0
aI0
aa(lp1384
I0
aI0
aa(lp1385
F1.0
aI0
aa(lp1386
I0
aI0
aa(lp1387
I0
aI0
aa(lp1388
I0
aI0
aa(lp1389
I0
aI0
aa(lp1390
F1.0
aI0
aa(lp1391
I0
aI0
aa(lp1392
F1.0
aF1.0
aa(lp1393
I0
aI0
aa(lp1394
I0
aI0
aa(lp1395
I0
aI0
aa(lp1396
F1.0
aF1.0
aa(lp1397
I0
aI0
aa(lp1398
I0
aI0
aa(lp1399
I0
aI0
aa(lp1400
I0
aI0
aa(lp1401
I0
aI0
aa(lp1402
I0
aI0
aa(lp1403
I0
aI0
aa(lp1404
I0
aI0
aa(lp1405
I0
aI0
aa(lp1406
F1.0
aF1.0
aa(lp1407
I0
aI0
aa(lp1408
F1.0
aI0
aa(lp1409
I0
aI0
aa(lp1410
F1.0
aF1.0
aa(lp1411
I0
aI0
aa(lp1412
F1.0
aI0
aa(lp1413
I0
aI0
aa(lp1414
I0
aI0
aa(lp1415
F1.0
aI0
aa(lp1416
I0
aI0
aa(lp1417
F1.0
aI0
aa(lp1418
I0
aI0
aa(lp1419
I0
aI0
aa(lp1420
I0
aI0
aa(lp1421
F1.0
aF1.0
aa(lp1422
I0
aI0
aa(lp1423
I0
aI0
aa(lp1424
I0
aI0
aa(lp1425
I0
aI0
aa(lp1426
I0
aI0
aa(lp1427
I0
aI0
aa(lp1428
I0
aI0
aa(lp1429
I0
aI0
aa(lp1430
I0
aI0
aa(lp1431
I0
aI0
aa(lp1432
F1.0
aI0
aa(lp1433
I0
aI0
aa(lp1434
I0
aI0
aa(lp1435
F1.0
aI0
aa(lp1436
I0
aI0
aa(lp1437
I0
aI0
aa(lp1438
I0
aI0
aa(lp1439
F1.0
aF0.9230769230769231
aa(lp1440
I0
aI0
aa(lp1441
F0.0
aI0
aa(lp1442
I0
aI0
aa(lp1443
I0
aI0
aa(lp1444
I0
aI0
aa(lp1445
I0
aI0
aa(lp1446
F1.0
aF1.0
aa(lp1447
F1.0
aF1.0
aa(lp1448
F1.0
aI0
aa(lp1449
F1.0
aI0
aa(lp1450
F1.0
aF1.0
aa(lp1451
I0
aI0
aa(lp1452
I0
aI0
aa(lp1453
I0
aI0
aa(lp1454
F1.0
aF1.0
aa(lp1455
I0
aI0
aa(lp1456
I0
aI0
aa(lp1457
I0
aI0
aa(lp1458
I0
aI0
aa(lp1459
F1.0
aI0
aa(lp1460
I0
aI0
aa(lp1461
I0
aI0
aa(lp1462
I0
aI0
aa(lp1463
F1.0
aI0
aa(lp1464
I0
aI0
aa(lp1465
I0
aI0
aa(lp1466
F1.0
aI0
aa(lp1467
I0
aI0
aa(lp1468
F1.0
aI0
aa(lp1469
I0
aI0
aa(lp1470
F1.0
aI0
aa(lp1471
F1.0
aI0
aa(lp1472
F1.0
aI0
aa(lp1473
I0
aI0
aa(lp1474
I0
aI0
aa(lp1475
I0
aI0
aa(lp1476
I0
aI0
aa(lp1477
I0
aI0
aa(lp1478
I0
aI0
aa(lp1479
F1.0
aF1.0
aa(lp1480
I0
aI0
aa(lp1481
I0
aI0
aa(lp1482
F1.0
aI0
aa(lp1483
I0
aI0
aa(lp1484
I0
aI0
aa(lp1485
I0
aI0
aa(lp1486
I0
aI0
aa(lp1487
I0
aI0
aa(lp1488
I0
aI0
aa(lp1489
I0
aI0
aa(lp1490
F1.0
aI0
aa(lp1491
F1.0
aF1.0
aa(lp1492
I0
aI0
aa(lp1493
I0
aI0
aa(lp1494
I0
aI0
aa(lp1495
I0
aI0
aa(lp1496
I0
aI0
aa(lp1497
I0
aI0
aa(lp1498
F1.0
aF1.0
aa(lp1499
I0
aI0
aa(lp1500
F1.0
aF1.0
aa(lp1501
F1.0
aI0
aa(lp1502
F1.0
aI0
aa(lp1503
F1.0
aF1.0
aa(lp1504
I0
aI0
aa(lp1505
F1.0
aF1.0
aa(lp1506
I0
aI0
aa(lp1507
I0
aI0
aa(lp1508
F1.0
aI0
aa(lp1509
I0
aI0
aa(lp1510
F1.0
aI0
aa(lp1511
F1.0
aF1.0
aa(lp1512
F0.8518518518518517
aF0.7777777777777778
aa(lp1513
I0
aI0
aa(lp1514
I0
aI0
aa(lp1515
F1.0
aI0
aa(lp1516
I0
aI0
aa(lp1517
F1.0
aI0
aa(lp1518
I0
aI0
aa(lp1519
I0
aI0
aa(lp1520
I0
aI0
aa(lp1521
I0
aI0
aa(lp1522
I0
aI0
aa(lp1523
F1.0
aI0
aa(lp1524
I0
aI0
aa(lp1525
F1.0
aI0
aa(lp1526
I0
aI0
aa(lp1527
I0
aI0
aa(lp1528
I0
aI0
aa(lp1529
I0
aI0
aa(lp1530
I0
aI0
aa(lp1531
F1.0
aI0
aa(lp1532
F1.0
aI0
aa(lp1533
I0
aI0
aa(lp1534
F1.0
aI0
aa(lp1535
F1.0
aI0
aa(lp1536
I0
aI0
aa(lp1537
I0
aI0
aa(lp1538
I0
aI0
aa(lp1539
F1.0
aI0
aa(lp1540
I0
aI0
aa(lp1541
I0
aI0
aa(lp1542
F1.0
aI0
aa(lp1543
I0
aI0
aa(lp1544
F1.0
aF1.0
aa(lp1545
I0
aI0
aa(lp1546
F1.0
aI0
aa(lp1547
I0
aI0
aa(lp1548
F1.0
aF1.0
aa(lp1549
I0
aI0
aa(lp1550
I0
aI0
aa(lp1551
I0
aI0
aa(lp1552
I0
aI0
aa(lp1553
F1.0
aF1.0
aa(lp1554
F1.0
aI0
aa(lp1555
I0
aI0
aa(lp1556
I0
aI0
aa(lp1557
F1.0
aF1.0
aa(lp1558
I0
aI0
aa(lp1559
F1.0
aI0
aa(lp1560
I0
aI0
aa(lp1561
I0
aI0
aa(lp1562
F1.0
aI0
aa(lp1563
I0
aI0
aa(lp1564
F1.0
aI0
aa(lp1565
F1.0
aF1.0
aa(lp1566
F0.7777777777777778
aF0.25
aa(lp1567
F0.0
aF0.0
aa(lp1568
F0.0
aI0
aa(lp1569
I0
aI0
aa(lp1570
I0
aI0
aa(lp1571
I0
aI0
aa(lp1572
I0
aI0
aa(lp1573
I0
aI0
aa(lp1574
I0
aI0
aa(lp1575
F1.0
aI0
aa(lp1576
F1.0
aF1.0
aa(lp1577
I0
aI0
aa(lp1578
I0
aI0
aa(lp1579
I0
aI0
aa(lp1580
I0
aI0
aa(lp1581
I0
aI0
aa(lp1582
F1.0
aF1.0
aa(lp1583
I0
aI0
aa(lp1584
I0
aI0
aa(lp1585
F1.0
aF1.0
aa(lp1586
F1.0
aF1.0
aa(lp1587
I0
aI0
aa(lp1588
I0
aI0
aa(lp1589
I0
aI0
aa(lp1590
I0
aI0
aa(lp1591
I0
aI0
aa(lp1592
F1.0
aF1.0
aa(lp1593
I0
aI0
aa(lp1594
I0
aI0
aa(lp1595
I0
aI0
aa(lp1596
I0
aI0
aa(lp1597
F1.0
aI0
aa(lp1598
I0
aI0
aa(lp1599
I0
aI0
aa(lp1600
I0
aI0
aa(lp1601
I0
aI0
aa(lp1602
I0
aI0
aa(lp1603
I0
aI0
aa(lp1604
I0
aI0
aa(lp1605
F1.0
aI0
aa(lp1606
F1.0
aI0
aa(lp1607
I0
aI0
aa(lp1608
I0
aI0
aa(lp1609
I0
aI0
aa(lp1610
I0
aI0
aa(lp1611
F1.0
aF1.0
aa(lp1612
I0
aI0
aa(lp1613
I0
aI0
aa(lp1614
I0
aI0
aa(lp1615
F1.0
aI0
aa(lp1616
F1.0
aI0
aa(lp1617
I0
aI0
aa(lp1618
F1.0
aF1.0
aa(lp1619
I0
aI0
aa(lp1620
I0
aI0
aa(lp1621
I0
aI0
aa(lp1622
I0
aI0
aa(lp1623
I0
aI0
aa(lp1624
F1.0
aF1.0
aa(lp1625
F1.0
aI0
aa(lp1626
I0
aI0
aa(lp1627
I0
aI0
aa(lp1628
F1.0
aI0
aa(lp1629
I0
aI0
aa(lp1630
I0
aI0
aa(lp1631
I0
aI0
aa(lp1632
F1.0
aF1.0
aa(lp1633
F1.0
aI0
aa(lp1634
I0
aI0
aa(lp1635
F1.0
aI0
aa(lp1636
I0
aI0
aa(lp1637
I0
aI0
aa(lp1638
I0
aI0
aa(lp1639
I0
aI0
aa(lp1640
F1.0
aF1.0
aa(lp1641
I0
aI0
aa(lp1642
I0
aI0
aa(lp1643
I0
aI0
aa(lp1644
I0
aI0
aa(lp1645
I0
aI0
aa(lp1646
F1.0
aI0
aa(lp1647
I0
aI0
aa(lp1648
I0
aI0
aa(lp1649
I0
aI0
aa(lp1650
I0
aI0
aa(lp1651
I0
aI0
aa(lp1652
I0
aI0
aa(lp1653
I0
aI0
aa(lp1654
I0
aI0
aa(lp1655
I0
aI0
aa(lp1656
F1.0
aF1.0
aa(lp1657
F1.0
aF1.0
aa(lp1658
I0
aI0
aa(lp1659
I0
aI0
aa(lp1660
F1.0
aI0
aa(lp1661
I0
aI0
aa(lp1662
I0
aI0
aa(lp1663
I0
aI0
aa(lp1664
I0
aI0
aa(lp1665
I0
aI0
aa(lp1666
I0
aI0
aa(lp1667
F1.0
aF1.0
aa(lp1668
I0
aI0
aa(lp1669
F1.0
aI0
aa(lp1670
F1.0
aF1.0
aa(lp1671
I0
aI0
aa(lp1672
F1.0
aF1.0
aa(lp1673
I0
aI0
aa(lp1674
F1.0
aF1.0
aa(lp1675
I0
aI0
aa(lp1676
I0
aI0
aa(lp1677
I0
aI0
aa(lp1678
I0
aI0
aa(lp1679
I0
aI0
aa(lp1680
I0
aI0
aa(lp1681
I0
aI0
aa(lp1682
I0
aI0
aa(lp1683
I0
aI0
aa(lp1684
I0
aI0
aa(lp1685
I0
aI0
aa(lp1686
I0
aI0
aa(lp1687
I0
aI0
aa(lp1688
I0
aI0
aa(lp1689
F1.0
aI0
aa(lp1690
I0
aI0
aa(lp1691
F1.0
aF1.0
aa(lp1692
I0
aI0
aa(lp1693
I0
aI0
aa(lp1694
F1.0
aF1.0
aa(lp1695
I0
aI0
aa(lp1696
I0
aI0
aa(lp1697
I0
aI0
aa(lp1698
I0
aI0
aa(lp1699
I0
aI0
aa(lp1700
F1.0
aF1.0
aa(lp1701
I0
aI0
aa(lp1702
F1.0
aI0
aa(lp1703
I0
aI0
aa(lp1704
I0
aI0
aa(lp1705
F1.0
aI0
aa(lp1706
F1.0
aI0
aa(lp1707
I0
aI0
aa(lp1708
I0
aI0
aa(lp1709
F1.0
aI0
aa(lp1710
F1.0
aI0
aa(lp1711
I0
aI0
aa(lp1712
F0.0
aI0
aa(lp1713
I0
aI0
aa(lp1714
I0
aI0
aa(lp1715
F1.0
aF1.0
aa(lp1716
F1.0
aF1.0
aa(lp1717
I0
aI0
aa(lp1718
F0.0
aI0
aa(lp1719
I0
aI0
aa(lp1720
I0
aI0
aa(lp1721
I0
aI0
aa(lp1722
I0
aI0
aa(lp1723
I0
aI0
aa(lp1724
F1.0
aI0
aa(lp1725
I0
aI0
aa(lp1726
F1.0
aF1.0
aa(lp1727
I0
aI0
aa(lp1728
I0
aI0
aa(lp1729
I0
aI0
aa(lp1730
I0
aI0
aa(lp1731
I0
aI0
aa(lp1732
I0
aI0
aa(lp1733
I0
aI0
aa(lp1734
F1.0
aF1.0
aa(lp1735
I0
aI0
aa(lp1736
F1.0
aF1.0
aa(lp1737
F1.0
aI0
aa(lp1738
I0
aI0
aa(lp1739
I0
aI0
aa(lp1740
F1.0
aF1.0
aa(lp1741
I0
aI0
aa(lp1742
F1.0
aI0
aa(lp1743
F1.0
aI0
aa(lp1744
I0
aI0
aa(lp1745
I0
aI0
aa(lp1746
I0
aI0
aa(lp1747
F1.0
aF1.0
aa(lp1748
I0
aI0
aa(lp1749
I0
aI0
aa(lp1750
I0
aI0
aa(lp1751
I0
aI0
aa(lp1752
I0
aI0
aa(lp1753
I0
aI0
aa(lp1754
I0
aI0
aa(lp1755
I0
aI0
aa(lp1756
I0
aI0
aa(lp1757
I0
aI0
aa(lp1758
I0
aI0
aa(lp1759
F1.0
aF1.0
aa(lp1760
F1.0
aI0
aa(lp1761
I0
aI0
aa(lp1762
I0
aI0
aa(lp1763
F1.0
aF1.0
aa(lp1764
I0
aI0
aa(lp1765
F1.0
aI0
aa(lp1766
I0
aI0
aa(lp1767
F0.25
aF0.25
aa(lp1768
I0
aI0
aa(lp1769
F1.0
aF1.0
aa(lp1770
I0
aI0
aa(lp1771
I0
aI0
aa(lp1772
I0
aI0
aa(lp1773
F1.0
aI0
aa(lp1774
I0
aI0
aa(lp1775
I0
aI0
aa(lp1776
I0
aI0
aa(lp1777
I0
aI0
aa(lp1778
F1.0
aF1.0
aa(lp1779
F1.0
aF1.0
aa(lp1780
F1.0
aI0
aa(lp1781
I0
aI0
aa(lp1782
F1.0
aI0
aa(lp1783
I0
aI0
aa(lp1784
I0
aI0
aa(lp1785
F1.0
aF1.0
aa(lp1786
I0
aI0
aa(lp1787
F0.9682539682539683
aF0.9629629629629629
aa(lp1788
F1.0
aI0
aa(lp1789
I0
aI0
aa(lp1790
I0
aI0
aa(lp1791
F1.0
aF0.8461538461538461
aa(lp1792
F0.0
aF0.0
aa(lp1793
I0
aI0
aa(lp1794
I0
aI0
aa(lp1795
I0
aI0
aa(lp1796
I0
aI0
aa(lp1797
F1.0
aF1.0
aa(lp1798
I0
aI0
aa(lp1799
F1.0
aI0
aa(lp1800
I0
aI0
aa(lp1801
I0
aI0
aa(lp1802
I0
aI0
aa(lp1803
I0
aI0
aa(lp1804
I0
aI0
aa(lp1805
I0
aI0
aa(lp1806
F1.0
aI0
aa(lp1807
I0
aI0
aa(lp1808
F1.0
aI0
aa(lp1809
I0
aI0
aa(lp1810
I0
aI0
aa(lp1811
I0
aI0
aa(lp1812
F1.0
aI0
aa(lp1813
I0
aI0
aa(lp1814
I0
aI0
aa(lp1815
I0
aI0
aa(lp1816
I0
aI0
aa(lp1817
I0
aI0
aa(lp1818
F1.0
aF1.0
aa(lp1819
I0
aI0
aa(lp1820
I0
aI0
aa(lp1821
I0
aI0
aa(lp1822
I0
aI0
aa(lp1823
I0
aI0
aa(lp1824
F1.0
aI0
aa(lp1825
I0
aI0
aa(lp1826
I0
aI0
aa(lp1827
I0
aI0
aa(lp1828
I0
aI0
aa(lp1829
F1.0
aI0
aa(lp1830
I0
aI0
aa(lp1831
I0
aI0
aa(lp1832
I0
aI0
aa(lp1833
F1.0
aF1.0
aa(lp1834
I0
aI0
aa(lp1835
I0
aI0
aa(lp1836
I0
aI0
aa(lp1837
F1.0
aI0
aa(lp1838
F1.0
aF1.0
aa(lp1839
I0
aI0
aa(lp1840
I0
aI0
aa(lp1841
I0
aI0
aa(lp1842
I0
aI0
aa(lp1843
F1.0
aI0
aa(lp1844
F1.0
aI0
aa(lp1845
F1.0
aF1.0
aa(lp1846
I0
aI0
aa(lp1847
I0
aI0
aa(lp1848
F1.0
aF1.0
aa(lp1849
F1.0
aF1.0
aa(lp1850
F1.0
aF1.0
aa(lp1851
I0
aI0
aa(lp1852
F1.0
aI0
aa(lp1853
I0
aI0
aa(lp1854
I0
aI0
aa(lp1855
I0
aI0
aa(lp1856
I0
aI0
aa(lp1857
I0
aI0
aa(lp1858
F1.0
aI0
aa(lp1859
F1.0
aF1.0
aa(lp1860
F1.0
aF0.9487179487179488
aa(lp1861
I0
aI0
aa(lp1862
F1.0
aF1.0
aa(lp1863
I0
aI0
aa(lp1864
I0
aI0
aa(lp1865
F1.0
aI0
aa(lp1866
I0
aI0
aa(lp1867
I0
aI0
aa(lp1868
I0
aI0
aa(lp1869
I0
aI0
aa(lp1870
I0
aI0
aa(lp1871
I0
aI0
aa(lp1872
I0
aI0
aa(lp1873
I0
aI0
aa(lp1874
I0
aI0
aa(lp1875
I0
aI0
aa(lp1876
F1.0
aI0
aa(lp1877
I0
aI0
aa(lp1878
I0
aI0
aa(lp1879
I0
aI0
aa(lp1880
I0
aI0
aa(lp1881
F1.0
aI0
aa(lp1882
F1.0
aI0
aa(lp1883
I0
aI0
aa(lp1884
I0
aI0
aa(lp1885
I0
aI0
aa(lp1886
F1.0
aI0
aa(lp1887
F1.0
aI0
aa(lp1888
I0
aI0
aa(lp1889
I0
aI0
aa(lp1890
I0
aI0
aa(lp1891
I0
aI0
aa(lp1892
I0
aI0
aa(lp1893
I0
aI0
aa(lp1894
F1.0
aF1.0
aa(lp1895
F1.0
aF0.3333333333333333
aa(lp1896
F1.0
aF1.0
aa(lp1897
I0
aI0
aa(lp1898
I0
aI0
aa(lp1899
I0
aI0
aa(lp1900
I0
aI0
aa(lp1901
I0
aI0
aa(lp1902
F0.876923076923077
aF0.7948717948717948
aa(lp1903
I0
aI0
aa(lp1904
F0.8461538461538461
aF0.8461538461538461
aa(lp1905
F1.0
aI0
aa(lp1906
F1.0
aF1.0
aa(lp1907
I0
aI0
aa(lp1908
F1.0
aI0
aa(lp1909
F1.0
aF1.0
aa(lp1910
F1.0
aI0
aa(lp1911
I0
aI0
aa(lp1912
I0
aI0
aa(lp1913
I0
aI0
aa(lp1914
I0
aI0
aa(lp1915
F0.8170739654610621
aF0.7188208616780045
aa(lp1916
I0
aI0
aa(lp1917
F1.0
aF1.0
aa(lp1918
F0.3333333333333333
aF0.3333333333333333
aa(lp1919
F0.6
aF0.6
aa(lp1920
I0
aI0
aa(lp1921
I0
aI0
aa(lp1922
I0
aI0
aa(lp1923
F1.0
aI0
aa(lp1924
F1.0
aF1.0
aa(lp1925
F1.0
aF1.0
aa(lp1926
I0
aI0
aa(lp1927
I0
aI0
aa(lp1928
I0
aI0
aa(lp1929
F1.0
aF1.0
aa(lp1930
F0.8461538461538461
aI0
aa(lp1931
I0
aI0
aa(lp1932
I0
aI0
aa(lp1933
I0
aI0
aa(lp1934
I0
aI0
aa(lp1935
F1.0
aF1.0
aa(lp1936
F1.0
aF1.0
aa(lp1937
I0
aI0
aa(lp1938
I0
aI0
aa(lp1939
I0
aI0
aa(lp1940
F1.0
aF1.0
aa(lp1941
I0
aI0
aa(lp1942
I0
aI0
aa(lp1943
F1.0
aF1.0
aa(lp1944
F1.0
aI0
aa(lp1945
F1.0
aI0
aa(lp1946
I0
aI0
aa(lp1947
I0
aI0
aa(lp1948
F1.0
aI0
aa(lp1949
I0
aI0
aa(lp1950
F1.0
aI0
aa(lp1951
I0
aI0
aa(lp1952
I0
aI0
aa(lp1953
F1.0
aF1.0
aa(lp1954
I0
aI0
aa(lp1955
I0
aI0
aa(lp1956
F1.0
aI0
aa(lp1957
F1.0
aF1.0
aa(lp1958
F1.0
aI0
aa(lp1959
I0
aI0
aa(lp1960
I0
aI0
aa(lp1961
I0
aI0
aa(lp1962
F0.0
aI0
aa(lp1963
I0
aI0
aa(lp1964
I0
aI0
aa(lp1965
F1.0
aF1.0
aa(lp1966
I0
aI0
aa(lp1967
I0
aI0
aa(lp1968
I0
aI0
aa(lp1969
F1.0
aF1.0
aa(lp1970
F1.0
aF1.0
aa(lp1971
I0
aI0
aa(lp1972
F0.9642857142857143
aF1.0
aa(lp1973
I0
aI0
aa(lp1974
I0
aI0
aa(lp1975
I0
aI0
aa(lp1976
I0
aI0
aa(lp1977
I0
aI0
aa(lp1978
I0
aI0
aa(lp1979
F1.0
aI0
aa(lp1980
I0
aI0
aa(lp1981
F1.0
aF1.0
aa(lp1982
I0
aI0
aa(lp1983
I0
aI0
aa(lp1984
F1.0
aI0
aa(lp1985
I0
aI0
aa(lp1986
I0
aI0
aa(lp1987
I0
aI0
aa(lp1988
F1.0
aI0
aa(lp1989
I0
aI0
aa(lp1990
I0
aI0
aa(lp1991
I0
aI0
aa(lp1992
I0
aI0
aa(lp1993
F1.0
aF1.0
aa(lp1994
I0
aI0
aa(lp1995
I0
aI0
aa(lp1996
I0
aI0
aa(lp1997
I0
aI0
aa(lp1998
I0
aI0
aa(lp1999
I0
aI0
aa(lp2000
I0
aI0
aa(lp2001
I0
aI0
aa(lp2002
I0
aI0
aa(lp2003
I0
aI0
aa(lp2004
I0
aI0
aa(lp2005
I0
aI0
aa(lp2006
I0
aI0
aa(lp2007
I0
aI0
aa(lp2008
I0
aI0
aa(lp2009
I0
aI0
aa(lp2010
I0
aI0
aa(lp2011
F1.0
aF1.0
aa(lp2012
I0
aI0
aa(lp2013
I0
aI0
aa(lp2014
I0
aI0
aa(lp2015
I0
aI0
aa(lp2016
I0
aI0
aa(lp2017
I0
aI0
aa(lp2018
I0
aI0
aa(lp2019
I0
aI0
aa(lp2020
I0
aI0
aa(lp2021
I0
aI0
aa(lp2022
I0
aI0
aa(lp2023
I0
aI0
aa(lp2024
I0
aI0
aa(lp2025
F0.0
aI0
aa(lp2026
I0
aI0
aa(lp2027
F1.0
aI0
aa(lp2028
I0
aI0
aa(lp2029
I0
aI0
aa(lp2030
F1.0
aF0.75
aa(lp2031
F1.0
aF1.0
aa(lp2032
F0.0
aI0
aa(lp2033
I0
aI0
aa(lp2034
F1.0
aF1.0
aa(lp2035
I0
aI0
aa(lp2036
I0
aI0
aa(lp2037
I0
aI0
aa(lp2038
I0
aI0
aa(lp2039
I0
aI0
aa(lp2040
F1.0
aF1.0
aa(lp2041
F0.9831932773109244
aF0.7058823529411764
aa(lp2042
I0
aI0
aa(lp2043
I0
aI0
aa(lp2044
I0
aI0
aa(lp2045
F1.0
aI0
aa(lp2046
I0
aI0
aa(lp2047
I0
aI0
aa(lp2048
F1.0
aI0
aa(lp2049
I0
aI0
aa(lp2050
I0
aI0
aa(lp2051
I0
aI0
aa(lp2052
F1.0
aI0
aa(lp2053
I0
aI0
aa(lp2054
F1.0
aI0
aa(lp2055
F1.0
aF1.0
aa(lp2056
I0
aI0
aa(lp2057
F1.0
aI0
aa(lp2058
I0
aI0
aa(lp2059
F1.0
aI0
aa(lp2060
F1.0
aI0
aa(lp2061
F1.0
aF0.8888888888888888
aa(lp2062
F1.0
aF1.0
aa(lp2063
I0
aI0
aa(lp2064
I0
aI0
aa(lp2065
F1.0
aF1.0
aa(lp2066
F1.0
aF1.0
aa(lp2067
I0
aI0
aa(lp2068
I0
aI0
aa(lp2069
F1.0
aF1.0
aa(lp2070
I0
aI0
aa(lp2071
F1.0
aI0
aa(lp2072
I0
aI0
aa(lp2073
I0
aI0
aa(lp2074
I0
aI0
aa(lp2075
F1.0
aF1.0
aa(lp2076
I0
aI0
aa(lp2077
I0
aI0
aa(lp2078
I0
aI0
aa(lp2079
F1.0
aF1.0
aa(lp2080
I0
aI0
aa(lp2081
I0
aI0
aa(lp2082
I0
aI0
aa(lp2083
I0
aI0
aa(lp2084
F1.0
aF1.0
aa(lp2085
I0
aI0
aa(lp2086
I0
aI0
aa(lp2087
F1.0
aI0
aa(lp2088
I0
aI0
aa(lp2089
I0
aI0
aa(lp2090
I0
aI0
aa(lp2091
F1.0
aF1.0
aa(lp2092
I0
aI0
aa(lp2093
I0
aI0
aa(lp2094
F1.0
aI0
aa(lp2095
I0
aI0
aa(lp2096
I0
aI0
aa(lp2097
F1.0
aI0
aa(lp2098
F1.0
aF1.0
aa(lp2099
I0
aI0
aa(lp2100
I0
aI0
aa(lp2101
I0
aI0
aa(lp2102
I0
aI0
aa(lp2103
F1.0
aF0.9595959595959596
aa(lp2104
I0
aI0
aa(lp2105
F1.0
aI0
aa(lp2106
F0.0
aI0
aa(lp2107
F1.0
aF1.0
aa(lp2108
F1.0
aI0
aa(lp2109
I0
aI0
aa(lp2110
F1.0
aF1.0
aa(lp2111
F1.0
aF1.0
aa(lp2112
I0
aI0
aa(lp2113
I0
aI0
aa(lp2114
I0
aI0
aa(lp2115
I0
aI0
aa(lp2116
I0
aI0
aa(lp2117
I0
aI0
aa(lp2118
I0
aI0
aa(lp2119
I0
aI0
aa(lp2120
I0
aI0
aa(lp2121
I0
aI0
aa(lp2122
F1.0
aF1.0
aa(lp2123
F1.0
aF1.0
aa(lp2124
F1.0
aF1.0
aa(lp2125
I0
aI0
aa(lp2126
I0
aI0
aa(lp2127
I0
aI0
aa(lp2128
I0
aI0
aa(lp2129
I0
aI0
aa(lp2130
I0
aI0
aa(lp2131
I0
aI0
aa(lp2132
F1.0
aF1.0
aa(lp2133
F0.0
aI0
aa(lp2134
I0
aI0
aa(lp2135
I0
aI0
aa(lp2136
I0
aI0
aa(lp2137
I0
aI0
aa(lp2138
I0
aI0
aa(lp2139
I0
aI0
aa(lp2140
I0
aI0
aa(lp2141
I0
aI0
aa(lp2142
I0
aI0
aa(lp2143
I0
aI0
aa(lp2144
I0
aI0
aa(lp2145
F1.0
aF1.0
aa(lp2146
F1.0
aF1.0
aa(lp2147
I0
aI0
aa(lp2148
I0
aI0
aa(lp2149
I0
aI0
aa(lp2150
I0
aI0
aa(lp2151
I0
aI0
aa(lp2152
I0
aI0
aa(lp2153
I0
aI0
aa(lp2154
I0
aI0
aa(lp2155
I0
aI0
aa(lp2156
F1.0
aI0
aa(lp2157
I0
aI0
aa(lp2158
F1.0
aI0
aa(lp2159
F0.75
aF0.75
aa(lp2160
F1.0
aF1.0
aa(lp2161
F1.0
aF0.5
aa(lp2162
F1.0
aF1.0
aa(lp2163
I0
aI0
aa(lp2164
F1.0
aF1.0
aa(lp2165
I0
aI0
aa(lp2166
I0
aI0
aa(lp2167
F1.0
aI0
aa(lp2168
I0
aI0
aa(lp2169
I0
aI0
aa(lp2170
F1.0
aF1.0
aa(lp2171
F1.0
aF0.5844155844155844
aa(lp2172
I0
aI0
aa(lp2173
I0
aI0
aa(lp2174
F1.0
aI0
aa(lp2175
F1.0
aF1.0
aa(lp2176
F1.0
aF1.0
aa(lp2177
F1.0
aF1.0
aa(lp2178
F1.0
aF1.0
aa(lp2179
F1.0
aI0
aa(lp2180
I0
aI0
aa(lp2181
F1.0
aI0
aa(lp2182
F1.0
aI0
aa(lp2183
I0
aI0
aa(lp2184
I0
aI0
aa(lp2185
I0
aI0
aa(lp2186
F1.0
aF1.0
aa(lp2187
I0
aI0
aa(lp2188
I0
aI0
aa(lp2189
I0
aI0
aa(lp2190
I0
aI0
aa(lp2191
F1.0
aF1.0
aa(lp2192
I0
aI0
aa(lp2193
F1.0
aI0
aa(lp2194
I0
aI0
aa(lp2195
I0
aI0
aa(lp2196
I0
aI0
aa(lp2197
F1.0
aF1.0
aa(lp2198
F1.0
aI0
aa(lp2199
F1.0
aI0
aa(lp2200
I0
aI0
aa(lp2201
I0
aI0
aa(lp2202
I0
aI0
aa(lp2203
F1.0
aI0
aa(lp2204
I0
aI0
aa(lp2205
I0
aI0
aa(lp2206
I0
aI0
aa(lp2207
I0
aI0
aa(lp2208
I0
aI0
aa(lp2209
I0
aI0
aa(lp2210
I0
aI0
aa(lp2211
I0
aI0
aa(lp2212
F1.0
aI0
aa(lp2213
F1.0
aI0
aa(lp2214
F1.0
aF1.0
aa(lp2215
I0
aI0
aa(lp2216
I0
aI0
aa(lp2217
F1.0
aF1.0
aa(lp2218
I0
aI0
aa(lp2219
I0
aI0
aa(lp2220
I0
aI0
aa(lp2221
I0
aI0
aa(lp2222
I0
aI0
aa(lp2223
I0
aI0
aa(lp2224
F1.0
aI0
aa(lp2225
I0
aI0
aa(lp2226
I0
aI0
aa(lp2227
F1.0
aF1.0
aa(lp2228
I0
aI0
aa(lp2229
I0
aI0
aa(lp2230
I0
aI0
aa(lp2231
I0
aI0
aa(lp2232
I0
aI0
aa(lp2233
I0
aI0
aa(lp2234
I0
aI0
aa(lp2235
I0
aI0
aa(lp2236
I0
aI0
aa(lp2237
F1.0
aI0
aa(lp2238
F1.0
aI0
aa(lp2239
I0
aI0
aa(lp2240
I0
aI0
aa(lp2241
I0
aI0
aa(lp2242
F1.0
aI0
aa(lp2243
F1.0
aI0
aa(lp2244
I0
aI0
aa(lp2245
I0
aI0
aa(lp2246
I0
aI0
aa(lp2247
I0
aI0
aa(lp2248
I0
aI0
aa(lp2249
I0
aI0
aa(lp2250
I0
aI0
aa(lp2251
F1.0
aF1.0
aa(lp2252
I0
aI0
aa(lp2253
I0
aI0
aa(lp2254
I0
aI0
aa(lp2255
I0
aI0
aa(lp2256
I0
aI0
aa(lp2257
I0
aI0
aa(lp2258
F1.0
aF1.0
aa(lp2259
I0
aI0
aa(lp2260
I0
aI0
aa(lp2261
I0
aI0
aa(lp2262
F1.0
aF1.0
aa(lp2263
F1.0
aI0
aa(lp2264
F1.0
aI0
aa(lp2265
I0
aI0
aa(lp2266
F1.0
aI0
aa(lp2267
F1.0
aF1.0
aa(lp2268
I0
aI0
aa(lp2269
F1.0
aI0
aa(lp2270
I0
aI0
aa(lp2271
I0
aI0
aa(lp2272
F0.0
aF0.0
aa(lp2273
F1.0
aI0
aa(lp2274
I0
aI0
aa(lp2275
F1.0
aI0
aa(lp2276
I0
aI0
aa(lp2277
I0
aI0
aa(lp2278
F1.0
aF1.0
aa(lp2279
F1.0
aI0
aa(lp2280
F1.0
aF1.0
aa(lp2281
I0
aI0
aa(lp2282
F1.0
aI0
aa(lp2283
I0
aI0
aa(lp2284
I0
aI0
aa(lp2285
I0
aI0
aa(lp2286
I0
aI0
aa(lp2287
I0
aI0
aa(lp2288
I0
aI0
aa(lp2289
I0
aI0
aa(lp2290
I0
aI0
aa(lp2291
F1.0
aF1.0
aa(lp2292
F0.9
aF0.8333333333333334
aa(lp2293
F1.0
aF1.0
aa(lp2294
F1.0
aF1.0
aa(lp2295
I0
aI0
aa(lp2296
F1.0
aF1.0
aa(lp2297
F1.0
aF1.0
aa(lp2298
I0
aI0
aa(lp2299
I0
aI0
aa(lp2300
F1.0
aF1.0
aa(lp2301
F1.0
aF1.0
aa(lp2302
I0
aI0
aa(lp2303
F1.0
aF1.0
aa(lp2304
I0
aI0
aa(lp2305
F1.0
aI0
aa(lp2306
I0
aI0
aa(lp2307
I0
aI0
aa(lp2308
F1.0
aF1.0
aa(lp2309
I0
aI0
aa(lp2310
F1.0
aF1.0
aa(lp2311
I0
aI0
aa(lp2312
I0
aI0
aa(lp2313
I0
aI0
aa(lp2314
I0
aI0
aa(lp2315
F0.8888888888888888
aF0.7777777777777778
aa(lp2316
I0
aI0
aa(lp2317
I0
aI0
aa(lp2318
I0
aI0
aa(lp2319
I0
aI0
aa(lp2320
I0
aI0
aa(lp2321
F1.0
aI0
aa(lp2322
F0.9720279720279721
aF0.9615384615384616
aa(lp2323
F1.0
aF1.0
aa(lp2324
F1.0
aF1.0
aa(lp2325
I0
aI0
aa(lp2326
I0
aI0
aa(lp2327
I0
aI0
aa(lp2328
I0
aI0
aa(lp2329
F0.8521367521367524
aF0.6955106621773289
aa(lp2330
I0
aI0
aa(lp2331
F1.0
aI0
aa(lp2332
F0.9
aI0
aa(lp2333
F1.0
aI0
aa(lp2334
F0.0
aF0.0
aa(lp2335
F1.0
aF1.0
aa(lp2336
I0
aI0
aa(lp2337
F1.0
aI0
aa(lp2338
I0
aI0
aa(lp2339
I0
aI0
aa(lp2340
I0
aI0
aa(lp2341
I0
aI0
aa(lp2342
F1.0
aF1.0
aa(lp2343
F1.0
aI0
aa(lp2344
I0
aI0
aa(lp2345
I0
aI0
aa(lp2346
I0
aI0
aa(lp2347
F0.8888888888888888
aF0.8888888888888888
aa(lp2348
I0
aI0
aa(lp2349
I0
aI0
aa(lp2350
I0
aI0
aa(lp2351
I0
aI0
aa(lp2352
I0
aI0
aa(lp2353
I0
aI0
aa(lp2354
I0
aI0
aa(lp2355
I0
aI0
aa(lp2356
I0
aI0
aa(lp2357
I0
aI0
aa(lp2358
I0
aI0
aa(lp2359
I0
aI0
aa(lp2360
F1.0
aF1.0
aa(lp2361
I0
aI0
aa(lp2362
F1.0
aF1.0
aa(lp2363
I0
aI0
aa(lp2364
I0
aI0
aa(lp2365
I0
aI0
aa(lp2366
I0
aI0
aa(lp2367
F1.0
aI0
aa(lp2368
I0
aI0
aa(lp2369
F1.0
aF1.0
aa(lp2370
F0.0
aF0.0
aa(lp2371
F0.0
aI0
aa(lp2372
I0
aI0
aa(lp2373
F1.0
aI0
aa(lp2374
I0
aI0
aa(lp2375
F1.0
aI0
aa(lp2376
I0
aI0
aa(lp2377
F1.0
aI0
aa(lp2378
I0
aI0
aa(lp2379
F1.0
aF1.0
aa(lp2380
I0
aI0
aa(lp2381
I0
aI0
aa(lp2382
I0
aI0
aa(lp2383
F1.0
aI0
aa(lp2384
I0
aI0
aa(lp2385
I0
aI0
aa(lp2386
I0
aI0
aa(lp2387
F1.0
aF1.0
aa(lp2388
I0
aI0
aa(lp2389
I0
aI0
aa(lp2390
I0
aI0
aa(lp2391
F1.0
aI0
aa(lp2392
I0
aI0
aa(lp2393
I0
aI0
aa(lp2394
I0
aI0
aa(lp2395
I0
aI0
aa(lp2396
F1.0
aI0
aa(lp2397
I0
aI0
aa(lp2398
F1.0
aI0
aa(lp2399
F1.0
aF1.0
aa(lp2400
I0
aI0
aa(lp2401
I0
aI0
aa(lp2402
F1.0
aI0
aa(lp2403
I0
aI0
aa(lp2404
I0
aI0
aa(lp2405
F1.0
aI0
aa(lp2406
I0
aI0
aa(lp2407
F1.0
aF1.0
aa(lp2408
I0
aI0
aa(lp2409
F0.0
aI0
aa(lp2410
I0
aI0
aa(lp2411
I0
aI0
aa(lp2412
F1.0
aF1.0
aa(lp2413
F1.0
aF1.0
aa(lp2414
F1.0
aI0
aa(lp2415
F1.0
aI0
aa(lp2416
I0
aI0
aa(lp2417
I0
aI0
aa(lp2418
I0
aI0
aa(lp2419
I0
aI0
aa(lp2420
I0
aI0
aa(lp2421
F1.0
aF1.0
aa(lp2422
I0
aI0
aa(lp2423
I0
aI0
aa(lp2424
F1.0
aF1.0
aa(lp2425
I0
aI0
aa(lp2426
F1.0
aI0
aa(lp2427
I0
aI0
aa(lp2428
I0
aI0
aa(lp2429
F1.0
aI0
aa(lp2430
I0
aI0
aa(lp2431
I0
aI0
aa(lp2432
F1.0
aF1.0
aa(lp2433
F1.0
aI0
aa(lp2434
F1.0
aI0
aa(lp2435
I0
aI0
aa(lp2436
I0
aI0
aa(lp2437
I0
aI0
aa(lp2438
F0.0
aI0
aa(lp2439
F1.0
aI0
aa(lp2440
I0
aI0
aa(lp2441
I0
aI0
aa(lp2442
I0
aI0
aa(lp2443
I0
aI0
aa(lp2444
I0
aI0
aa(lp2445
F0.9583333333333334
aF1.0
aa(lp2446
F1.0
aF1.0
aa(lp2447
F1.0
aF1.0
aa(lp2448
I0
aI0
aa(lp2449
F1.0
aF1.0
aa(lp2450
F1.0
aI0
aa(lp2451
I0
aI0
aa(lp2452
F0.8857142857142858
aF0.8111111111111112
aa(lp2453
I0
aI0
aa(lp2454
I0
aI0
aa(lp2455
I0
aI0
aa(lp2456
F0.8666666666666667
aI0
aa(lp2457
I0
aI0
aa(lp2458
I0
aI0
aa(lp2459
I0
aI0
aa(lp2460
F1.0
aF1.0
aa(lp2461
I0
aI0
aa(lp2462
I0
aI0
aa(lp2463
I0
aI0
aa(lp2464
I0
aI0
aa(lp2465
I0
aI0
aa(lp2466
I0
aI0
aa(lp2467
I0
aI0
aa(lp2468
F1.0
aI0
aa(lp2469
F1.0
aF1.0
aa(lp2470
I0
aI0
aa(lp2471
I0
aI0
aa(lp2472
I0
aI0
aa(lp2473
I0
aI0
aa(lp2474
I0
aI0
aa(lp2475
I0
aI0
aa(lp2476
F1.0
aF1.0
aa(lp2477
F0.9777777777777779
aF1.0
aa(lp2478
I0
aI0
aa(lp2479
I0
aI0
aa(lp2480
I0
aI0
aa(lp2481
I0
aI0
aa(lp2482
I0
aI0
aa(lp2483
I0
aI0
aa(lp2484
F0.0
aF0.0
aa(lp2485
I0
aI0
aa(lp2486
I0
aI0
aa(lp2487
I0
aI0
aa(lp2488
I0
aI0
aa(lp2489
I0
aI0
aa(lp2490
F1.0
aI0
aa(lp2491
F1.0
aI0
aa(lp2492
I0
aI0
aa(lp2493
I0
aI0
aa(lp2494
I0
aI0
aa(lp2495
I0
aI0
aa(lp2496
I0
aI0
aa(lp2497
I0
aI0
aa(lp2498
F1.0
aI0
aa(lp2499
F1.0
aI0
aa(lp2500
I0
aI0
aa(lp2501
I0
aI0
aa(lp2502
I0
aI0
aa(lp2503
I0
aI0
aa(lp2504
I0
aI0
aa(lp2505
F1.0
aI0
aa(lp2506
I0
aI0
aa(lp2507
F0.9384615384615385
aI0
aa(lp2508
I0
aI0
aa(lp2509
F1.0
aF1.0
aa(lp2510
I0
aI0
aa(lp2511
I0
aI0
aa(lp2512
I0
aI0
aa(lp2513
I0
aI0
aa(lp2514
I0
aI0
aa(lp2515
I0
aI0
aa(lp2516
I0
aI0
aa(lp2517
I0
aI0
aa(lp2518
F1.0
aF1.0
aa(lp2519
F1.0
aI0
aa(lp2520
I0
aI0
aa(lp2521
I0
aI0
aa(lp2522
I0
aI0
aa(lp2523
I0
aI0
aa(lp2524
F1.0
aI0
aa(lp2525
I0
aI0
aa(lp2526
F1.0
aF1.0
aa(lp2527
I0
aI0
aa(lp2528
F1.0
aI0
aa(lp2529
I0
aI0
aa(lp2530
F1.0
aI0
aa(lp2531
F1.0
aI0
aa(lp2532
I0
aI0
aa(lp2533
I0
aI0
aa(lp2534
F1.0
aI0
aa(lp2535
I0
aI0
aa(lp2536
I0
aI0
aa(lp2537
F1.0
aF1.0
aa(lp2538
F1.0
aI0
aa(lp2539
I0
aI0
aa(lp2540
I0
aI0
aa(lp2541
I0
aI0
aa(lp2542
F1.0
aI0
aa(lp2543
I0
aI0
aa(lp2544
I0
aI0
aa(lp2545
I0
aI0
aa(lp2546
I0
aI0
aa(lp2547
F1.0
aF1.0
aa(lp2548
I0
aI0
aa(lp2549
F1.0
aF1.0
aa(lp2550
I0
aI0
aa(lp2551
I0
aI0
aa(lp2552
F1.0
aF1.0
aa(lp2553
I0
aI0
aa(lp2554
F1.0
aF1.0
aa(lp2555
I0
aI0
aa(lp2556
I0
aI0
aa(lp2557
I0
aI0
aa(lp2558
I0
aI0
aa(lp2559
I0
aI0
aa(lp2560
I0
aI0
aa(lp2561
I0
aI0
aa(lp2562
I0
aI0
aa(lp2563
I0
aI0
aa(lp2564
I0
aI0
aa(lp2565
F1.0
aI0
aa(lp2566
F1.0
aF1.0
aa(lp2567
I0
aI0
aa(lp2568
I0
aI0
aa(lp2569
I0
aI0
aa(lp2570
I0
aI0
aa(lp2571
I0
aI0
aa(lp2572
I0
aI0
aa(lp2573
I0
aI0
aa(lp2574
F1.0
aF1.0
aa(lp2575
I0
aI0
aa(lp2576
I0
aI0
aa(lp2577
F1.0
aF1.0
aa(lp2578
I0
aI0
aa(lp2579
I0
aI0
aa(lp2580
F1.0
aI0
aa(lp2581
I0
aI0
aa(lp2582
I0
aI0
aa(lp2583
I0
aI0
aa(lp2584
I0
aI0
aa(lp2585
I0
aI0
aa(lp2586
I0
aI0
aa(lp2587
I0
aI0
aa(lp2588
I0
aI0
aa(lp2589
F1.0
aF1.0
aa(lp2590
I0
aI0
aa(lp2591
I0
aI0
aa(lp2592
I0
aI0
aa(lp2593
I0
aI0
aa(lp2594
I0
aI0
aa(lp2595
I0
aI0
aa(lp2596
F1.0
aF1.0
aa(lp2597
F0.8888888888888888
aI0
aa(lp2598
I0
aI0
aa(lp2599
I0
aI0
aa(lp2600
F1.0
aF1.0
aa(lp2601
F1.0
aF1.0
aa(lp2602
I0
aI0
aa(lp2603
I0
aI0
aa(lp2604
I0
aI0
aa(lp2605
I0
aI0
aa(lp2606
F1.0
aF0.9230769230769231
aa(lp2607
I0
aI0
aa(lp2608
I0
aI0
aa(lp2609
I0
aI0
aa(lp2610
I0
aI0
aa(lp2611
I0
aI0
aa(lp2612
I0
aI0
aa(lp2613
I0
aI0
aa(lp2614
F0.5
aF0.5
aa(lp2615
I0
aI0
aa(lp2616
F1.0
aI0
aa(lp2617
F1.0
aF1.0
aa(lp2618
I0
aI0
aa(lp2619
I0
aI0
aa(lp2620
F1.0
aF1.0
aa(lp2621
I0
aI0
aa(lp2622
I0
aI0
aa(lp2623
F0.8181818181818181
aF0.5151515151515151
aa(lp2624
I0
aI0
aa(lp2625
F1.0
aF1.0
aa(lp2626
I0
aI0
aa(lp2627
F1.0
aF1.0
aa(lp2628
F1.0
aF1.0
aa(lp2629
F0.8333333333333334
aF0.3333333333333333
aa(lp2630
F1.0
aF1.0
aa(lp2631
I0
aI0
aa(lp2632
F1.0
aF1.0
aa(lp2633
I0
aI0
aa(lp2634
F0.947530864197531
aF0.9629629629629629
aa(lp2635
I0
aI0
aa(lp2636
I0
aI0
aa(lp2637
I0
aI0
aa(lp2638
F0.9199999999999999
aF0.8400000000000001
aa(lp2639
F0.9692307692307693
aF0.9047619047619048
aa(lp2640
I0
aI0
aa(lp2641
I0
aI0
aa(lp2642
F1.0
aF1.0
aa(lp2643
I0
aI0
aa(lp2644
I0
aI0
aa(lp2645
I0
aI0
aa(lp2646
F0.7083685545224007
aF0.5539754363283775
aa(lp2647
I0
aI0
aa(lp2648
F1.0
aF1.0
aa(lp2649
F1.0
aF0.9663865546218489
aa(lp2650
I0
aI0
aa(lp2651
I0
aI0
aa(lp2652
F0.8636363636363636
aF0.7
aa(lp2653
F1.0
aF1.0
aa(lp2654
F1.0
aF1.0
aa(lp2655
F1.0
aI0
aa(lp2656
F1.0
aF0.9444444444444444
aa(lp2657
F1.0
aF1.0
aa(lp2658
I0
aI0
aa(lp2659
F0.9903846153846154
aF0.9537304800462697
aa(lp2660
I0
aI0
aa(lp2661
I0
aI0
aa(lp2662
F1.0
aI0
aa(lp2663
F1.0
aF1.0
aa(lp2664
I0
aI0
aa(lp2665
F1.0
aF0.893491124260355
aa(lp2666
F1.0
aF1.0
aa(lp2667
I0
aI0
aa(lp2668
I0
aI0
aa(lp2669
F0.5
aF0.0
aa(lp2670
I0
aI0
aa(lp2671
F1.0
aF1.0
aa(lp2672
I0
aI0
aa(lp2673
I0
aI0
aa(lp2674
F1.0
aF1.0
aa(lp2675
F1.0
aF1.0
aa(lp2676
I0
aI0
aa(lp2677
I0
aI0
aa(lp2678
I0
aI0
aa(lp2679
I0
aI0
aa(lp2680
I0
aI0
aa(lp2681
F1.0
aF1.0
aa(lp2682
I0
aI0
aa(lp2683
I0
aI0
aa(lp2684
F1.0
aF1.0
aa(lp2685
F1.0
aF1.0
aa(lp2686
I0
aI0
aa(lp2687
F1.0
aI0
aa(lp2688
F0.9555555555555555
aF0.9444444444444444
aa(lp2689
I0
aI0
aa(lp2690
I0
aI0
aa(lp2691
I0
aI0
aa(lp2692
I0
aI0
aa(lp2693
I0
aI0
aa(lp2694
I0
aI0
aa(lp2695
F1.0
aI0
aa(lp2696
I0
aI0
aa(lp2697
I0
aI0
aa(lp2698
F1.0
aF1.0
aa(lp2699
I0
aI0
aa(lp2700
I0
aI0
aa(lp2701
I0
aI0
aa(lp2702
I0
aI0
aa(lp2703
F1.0
aF1.0
aa(lp2704
I0
aI0
aa(lp2705
F1.0
aI0
aa(lp2706
I0
aI0
aa(lp2707
I0
aI0
aa(lp2708
I0
aI0
aa(lp2709
F1.0
aF1.0
aa(lp2710
I0
aI0
aa(lp2711
I0
aI0
aa(lp2712
F1.0
aF1.0
aa(lp2713
I0
aI0
aa(lp2714
F1.0
aF1.0
aa(lp2715
F0.8212970197566694
aF0.710326797385621
aa(lp2716
I0
aI0
aa(lp2717
I0
aI0
aa(lp2718
I0
aI0
aa(lp2719
I0
aI0
aa(lp2720
I0
aI0
aa(lp2721
I0
aI0
aa(lp2722
F1.0
aF1.0
aa(lp2723
I0
aI0
aa(lp2724
I0
aI0
aa(lp2725
F1.0
aF1.0
aa(lp2726
F1.0
aI0
aa(lp2727
I0
aI0
aa(lp2728
I0
aI0
aa(lp2729
F1.0
aF1.0
aa(lp2730
I0
aI0
aa(lp2731
I0
aI0
aa(lp2732
I0
aI0
aa(lp2733
I0
aI0
aa(lp2734
I0
aI0
aa(lp2735
F1.0
aF1.0
aa(lp2736
I0
aI0
aa(lp2737
I0
aI0
aa(lp2738
F1.0
aI0
aa(lp2739
I0
aI0
aa(lp2740
I0
aI0
aa(lp2741
I0
aI0
aa(lp2742
I0
aI0
aa(lp2743
F1.0
aI0
aa(lp2744
I0
aI0
aa(lp2745
F1.0
aI0
aa(lp2746
F1.0
aI0
aa(lp2747
I0
aI0
aa(lp2748
I0
aI0
aa(lp2749
F1.0
aI0
aa(lp2750
I0
aI0
aa(lp2751
I0
aI0
aa(lp2752
I0
aI0
aa(lp2753
F1.0
aI0
aa(lp2754
I0
aI0
aa(lp2755
F1.0
aI0
aa(lp2756
I0
aI0
aa(lp2757
I0
aI0
aa(lp2758
I0
aI0
aa(lp2759
I0
aI0
aa(lp2760
I0
aI0
aa(lp2761
I0
aI0
aa(lp2762
I0
aI0
aa(lp2763
F1.0
aF1.0
aa(lp2764
I0
aI0
aa(lp2765
F1.0
aF1.0
aa(lp2766
F1.0
aF1.0
aa(lp2767
I0
aI0
aa(lp2768
F1.0
aF1.0
aa(lp2769
I0
aI0
aa(lp2770
I0
aI0
aa(lp2771
F1.0
aI0
aa(lp2772
I0
aI0
aa(lp2773
I0
aI0
aa(lp2774
F1.0
aF1.0
aa(lp2775
F1.0
aF1.0
aa(lp2776
I0
aI0
aa(lp2777
I0
aI0
aa(lp2778
F1.0
aF1.0
aa(lp2779
I0
aI0
aa(lp2780
I0
aI0
aa(lp2781
I0
aI0
aa(lp2782
I0
aI0
aa(lp2783
F1.0
aI0
aa(lp2784
F0.8461538461538461
aF0.8461538461538461
aa(lp2785
F1.0
aF1.0
aa(lp2786
F0.0
aF0.0
aa(lp2787
I0
aI0
aa(lp2788
I0
aI0
aa(lp2789
I0
aI0
aa(lp2790
I0
aI0
aa(lp2791
I0
aI0
aa(lp2792
I0
aI0
aa(lp2793
I0
aI0
aa(lp2794
I0
aI0
aa(lp2795
F1.0
aI0
aa(lp2796
I0
aI0
aa(lp2797
F0.0
aI0
aa(lp2798
I0
aI0
aa(lp2799
F1.0
aI0
aa(lp2800
F1.0
aI0
aa(lp2801
F0.0
aI0
aa(lp2802
F1.0
aI0
aa(lp2803
I0
aI0
aa(lp2804
F1.0
aI0
aa(lp2805
I0
aI0
aa(lp2806
I0
aI0
aa(lp2807
F1.0
aI0
aa(lp2808
F1.0
aI0
aa(lp2809
F1.0
aI0
aa(lp2810
F0.0
aI0
aa(lp2811
F0.8800000000000001
aI0
aa(lp2812
I0
aI0
aa(lp2813
F0.0
aI0
aa(lp2814
F1.0
aF1.0
aa(lp2815
I0
aI0
aa(lp2816
I0
aI0
aa(lp2817
I0
aI0
aa(lp2818
I0
aI0
aa(lp2819
F1.0
aF0.3333333333333333
aa(lp2820
I0
aI0
aa(lp2821
I0
aI0
aa(lp2822
I0
aI0
aa(lp2823
I0
aI0
aa(lp2824
I0
aI0
aa(lp2825
I0
aI0
aa(lp2826
F1.0
aI0
aa(lp2827
F1.0
aI0
aa(lp2828
F1.0
aI0
aa(lp2829
I0
aI0
aa(lp2830
F0.0
aI0
aa(lp2831
I0
aI0
aa(lp2832
I0
aI0
aa(lp2833
I0
aI0
aa(lp2834
I0
aI0
aa(lp2835
F1.0
aI0
aa(lp2836
I0
aI0
aa(lp2837
F1.0
aF1.0
aa(lp2838
I0
aI0
aa(lp2839
I0
aI0
aa(lp2840
I0
aI0
aa(lp2841
I0
aI0
aa(lp2842
F1.0
aI0
aa(lp2843
I0
aI0
aa(lp2844
I0
aI0
aa(lp2845
I0
aI0
aa(lp2846
F1.0
aF1.0
aa(lp2847
I0
aI0
aa(lp2848
I0
aI0
aa(lp2849
I0
aI0
aa(lp2850
I0
aI0
aa(lp2851
F1.0
aI0
aa(lp2852
F1.0
aI0
aa(lp2853
I0
aI0
aa(lp2854
F1.0
aF1.0
aa(lp2855
F1.0
aI0
aa(lp2856
F1.0
aF1.0
aa(lp2857
I0
aI0
aa(lp2858
I0
aI0
aa(lp2859
I0
aI0
aa(lp2860
F1.0
aF1.0
aa(lp2861
I0
aI0
aa(lp2862
I0
aI0
aa(lp2863
I0
aI0
aa(lp2864
I0
aI0
aa(lp2865
F1.0
aF1.0
aa(lp2866
I0
aI0
aa(lp2867
F1.0
aI0
aa(lp2868
I0
aI0
aa(lp2869
I0
aI0
aa(lp2870
F1.0
aI0
aa(lp2871
F1.0
aF1.0
aa(lp2872
F0.0
aI0
aa(lp2873
I0
aI0
aa(lp2874
I0
aI0
aa(lp2875
I0
aI0
aa(lp2876
I0
aI0
aa(lp2877
I0
aI0
aa(lp2878
I0
aI0
aa(lp2879
I0
aI0
aa(lp2880
I0
aI0
aa(lp2881
F1.0
aI0
aa(lp2882
I0
aI0
aa(lp2883
I0
aI0
aa(lp2884
I0
aI0
aa(lp2885
I0
aI0
aa(lp2886
I0
aI0
aa(lp2887
I0
aI0
aa(lp2888
I0
aI0
aa(lp2889
I0
aI0
aa(lp2890
I0
aI0
aa(lp2891
I0
aI0
aa(lp2892
F1.0
aI0
aa(lp2893
I0
aI0
aa(lp2894
F1.0
aF1.0
aa(lp2895
I0
aI0
aa(lp2896
I0
aI0
aa(lp2897
F1.0
aF1.0
aa(lp2898
F1.0
aF1.0
aa(lp2899
I0
aI0
aa(lp2900
I0
aI0
aa(lp2901
I0
aI0
aa(lp2902
I0
aI0
aa(lp2903
I0
aI0
aa(lp2904
F1.0
aI0
aa(lp2905
F1.0
aF1.0
aa(lp2906
I0
aI0
aa(lp2907
F1.0
aI0
aa(lp2908
I0
aI0
aa(lp2909
I0
aI0
aa(lp2910
I0
aI0
aa(lp2911
I0
aI0
aa(lp2912
I0
aI0
aa(lp2913
I0
aI0
aa(lp2914
F1.0
aF1.0
aa(lp2915
I0
aI0
aa(lp2916
I0
aI0
aa(lp2917
F1.0
aI0
aa(lp2918
F1.0
aI0
aa(lp2919
I0
aI0
aa(lp2920
F1.0
aI0
aa(lp2921
I0
aI0
aa(lp2922
I0
aI0
aa(lp2923
F1.0
aF1.0
aa(lp2924
F1.0
aF1.0
aa(lp2925
I0
aI0
aa(lp2926
I0
aI0
aa(lp2927
I0
aI0
aa(lp2928
I0
aI0
aa(lp2929
I0
aI0
aa(lp2930
F1.0
aI0
aa(lp2931
I0
aI0
aa(lp2932
I0
aI0
aa(lp2933
I0
aI0
aa(lp2934
I0
aI0
aa(lp2935
I0
aI0
aa(lp2936
I0
aI0
aa(lp2937
I0
aI0
aa(lp2938
I0
aI0
aa(lp2939
I0
aI0
aa(lp2940
I0
aI0
aa(lp2941
I0
aI0
aa(lp2942
I0
aI0
aa(lp2943
I0
aI0
aa(lp2944
I0
aI0
aa(lp2945
I0
aI0
aa(lp2946
I0
aI0
aa(lp2947
I0
aI0
aa(lp2948
I0
aI0
aa(lp2949
I0
aI0
aa(lp2950
I0
aI0
aa(lp2951
I0
aI0
aa(lp2952
I0
aI0
aa(lp2953
I0
aI0
aa(lp2954
I0
aI0
aa(lp2955
F1.0
aF1.0
aa(lp2956
I0
aI0
aa(lp2957
F1.0
aF1.0
aa(lp2958
F1.0
aF1.0
aa(lp2959
F1.0
aF1.0
aa(lp2960
I0
aI0
aa(lp2961
F1.0
aI0
aa(lp2962
F1.0
aF1.0
aa(lp2963
I0
aI0
aa(lp2964
I0
aI0
aa(lp2965
F1.0
aF1.0
aa(lp2966
I0
aI0
aa(lp2967
F1.0
aI0
aa(lp2968
F1.0
aF1.0
aa(lp2969
F1.0
aI0
aa(lp2970
I0
aI0
aa(lp2971
F0.0
aI0
aa(lp2972
F1.0
aF1.0
aa(lp2973
I0
aI0
aa(lp2974
F1.0
aI0
aa(lp2975
F1.0
aI0
aa(lp2976
I0
aI0
aa(lp2977
I0
aI0
aa(lp2978
I0
aI0
aa(lp2979
F1.0
aI0
aa(lp2980
I0
aI0
aa(lp2981
I0
aI0
aa(lp2982
F1.0
aI0
aa(lp2983
F1.0
aI0
aa(lp2984
I0
aI0
aa(lp2985
I0
aI0
aa(lp2986
I0
aI0
aa(lp2987
I0
aI0
aa(lp2988
F1.0
aI0
aa(lp2989
I0
aI0
aa(lp2990
I0
aI0
aa(lp2991
I0
aI0
aa(lp2992
I0
aI0
aa(lp2993
I0
aI0
aa(lp2994
I0
aI0
aa(lp2995
I0
aI0
aa(lp2996
I0
aI0
aa(lp2997
I0
aI0
aa(lp2998
I0
aI0
aa(lp2999
I0
aI0
aa(lp3000
I0
aI0
aa(lp3001
I0
aI0
aa(lp3002
I0
aI0
aa(lp3003
I0
aI0
aa(lp3004
I0
aI0
aa(lp3005
I0
aI0
aa(lp3006
I0
aI0
aa(lp3007
I0
aI0
aa(lp3008
F1.0
aF1.0
aa(lp3009
I0
aI0
aa(lp3010
F1.0
aI0
aa(lp3011
I0
aI0
aa(lp3012
I0
aI0
aa(lp3013
I0
aI0
aa(lp3014
I0
aI0
aa(lp3015
I0
aI0
aa(lp3016
I0
aI0
aa(lp3017
I0
aI0
aa(lp3018
F1.0
aI0
aa(lp3019
I0
aI0
aa(lp3020
F0.5
aF0.0
aa(lp3021
I0
aI0
aa(lp3022
I0
aI0
aa(lp3023
I0
aI0
aa(lp3024
F1.0
aI0
aa(lp3025
F1.0
aI0
aa(lp3026
F1.0
aI0
aa(lp3027
I0
aI0
aa(lp3028
I0
aI0
aa(lp3029
I0
aI0
aa(lp3030
I0
aI0
aa(lp3031
I0
aI0
aa(lp3032
I0
aI0
aa(lp3033
I0
aI0
aa(lp3034
I0
aI0
aa(lp3035
I0
aI0
aa(lp3036
I0
aI0
aa(lp3037
F1.0
aF1.0
aa(lp3038
I0
aI0
aa(lp3039
I0
aI0
aa(lp3040
I0
aI0
aa(lp3041
F1.0
aI0
aa(lp3042
I0
aI0
aa(lp3043
I0
aI0
aa(lp3044
I0
aI0
aa(lp3045
I0
aI0
aa(lp3046
I0
aI0
aa(lp3047
F1.0
aI0
aa(lp3048
F1.0
aF1.0
aa(lp3049
F1.0
aI0
aa(lp3050
I0
aI0
aa(lp3051
F1.0
aI0
aa(lp3052
F1.0
aF1.0
aa(lp3053
F1.0
aF1.0
aa(lp3054
I0
aI0
aa(lp3055
I0
aI0
aa(lp3056
I0
aI0
aa(lp3057
I0
aI0
aa(lp3058
I0
aI0
aa(lp3059
I0
aI0
aa(lp3060
I0
aI0
aa(lp3061
I0
aI0
aa(lp3062
I0
aI0
aa(lp3063
F1.0
aF1.0
aa(lp3064
F1.0
aF1.0
aa(lp3065
I0
aI0
aa(lp3066
I0
aI0
aa(lp3067
I0
aI0
aa(lp3068
I0
aI0
aa(lp3069
F1.0
aF1.0
aa(lp3070
I0
aI0
aa(lp3071
F1.0
aI0
aa(lp3072
F1.0
aF1.0
aa(lp3073
I0
aI0
aa(lp3074
I0
aI0
aa(lp3075
I0
aI0
aa(lp3076
I0
aI0
aa(lp3077
I0
aI0
aa(lp3078
I0
aI0
aa(lp3079
I0
aI0
aa(lp3080
I0
aI0
aa(lp3081
I0
aI0
aa(lp3082
F1.0
aI0
aa(lp3083
F1.0
aF1.0
aa(lp3084
F1.0
aF1.0
aa(lp3085
I0
aI0
aa(lp3086
I0
aI0
aa(lp3087
I0
aI0
aa(lp3088
I0
aI0
aa(lp3089
I0
aI0
aa(lp3090
I0
aI0
aa(lp3091
F1.0
aI0
aa(lp3092
I0
aI0
aa(lp3093
I0
aI0
aa(lp3094
I0
aI0
aa(lp3095
I0
aI0
aa(lp3096
I0
aI0
aa(lp3097
F1.0
aI0
aa(lp3098
F1.0
aI0
aa(lp3099
I0
aI0
aa(lp3100
F1.0
aI0
aa(lp3101
I0
aI0
aa(lp3102
I0
aI0
aa(lp3103
I0
aI0
aa(lp3104
I0
aI0
aa(lp3105
I0
aI0
aa(lp3106
I0
aI0
aa(lp3107
F1.0
aI0
aa(lp3108
I0
aI0
aa(lp3109
F1.0
aI0
aa(lp3110
I0
aI0
aa(lp3111
F1.0
aI0
aa(lp3112
F1.0
aF1.0
aa(lp3113
I0
aI0
aa(lp3114
F1.0
aI0
aa(lp3115
I0
aI0
aa(lp3116
I0
aI0
aa(lp3117
F1.0
aI0
aa(lp3118
F1.0
aF1.0
aa(lp3119
F1.0
aF1.0
aa(lp3120
I0
aI0
aa(lp3121
I0
aI0
aa(lp3122
I0
aI0
aa(lp3123
I0
aI0
aa(lp3124
I0
aI0
aa(lp3125
I0
aI0
aa(lp3126
F1.0
aF1.0
aa(lp3127
F1.0
aI0
aa(lp3128
I0
aI0
aa(lp3129
I0
aI0
aa(lp3130
I0
aI0
aa(lp3131
F1.0
aF1.0
aa(lp3132
I0
aI0
aa(lp3133
F1.0
aI0
aa(lp3134
F1.0
aF1.0
aa(lp3135
I0
aI0
aa(lp3136
I0
aI0
aa(lp3137
F1.0
aF1.0
aa(lp3138
F0.9166666666666666
aF0.38888888888888884
aa(lp3139
I0
aI0
aa(lp3140
I0
aI0
aa(lp3141
I0
aI0
aa(lp3142
I0
aI0
aa(lp3143
I0
aI0
aa(lp3144
I0
aI0
aa(lp3145
I0
aI0
aa(lp3146
I0
aI0
aa(lp3147
I0
aI0
aa(lp3148
I0
aI0
aa(lp3149
I0
aI0
aa(lp3150
I0
aI0
aa(lp3151
I0
aI0
aa(lp3152
I0
aI0
aa(lp3153
I0
aI0
aa(lp3154
I0
aI0
aa(lp3155
I0
aI0
aa(lp3156
I0
aI0
aa(lp3157
I0
aI0
aa(lp3158
I0
aI0
aa(lp3159
I0
aI0
aa(lp3160
F1.0
aI0
aa(lp3161
F1.0
aI0
aa(lp3162
I0
aI0
aa(lp3163
F1.0
aI0
aa(lp3164
I0
aI0
aa(lp3165
F1.0
aF1.0
aa(lp3166
F1.0
aF1.0
aa(lp3167
I0
aI0
aa(lp3168
I0
aI0
aa(lp3169
F1.0
aF1.0
aa(lp3170
I0
aI0
aa(lp3171
I0
aI0
aa(lp3172
I0
aI0
aa(lp3173
I0
aI0
aa(lp3174
I0
aI0
aa(lp3175
I0
aI0
aa(lp3176
I0
aI0
aa(lp3177
I0
aI0
aa(lp3178
I0
aI0
aa(lp3179
I0
aI0
aa(lp3180
I0
aI0
aa(lp3181
I0
aI0
aa(lp3182
F1.0
aI0
aa(lp3183
I0
aI0
aa(lp3184
I0
aI0
aa(lp3185
I0
aI0
aa(lp3186
I0
aI0
aa(lp3187
F1.0
aF1.0
aa(lp3188
F1.0
aI0
aa(lp3189
I0
aI0
aa(lp3190
F1.0
aI0
aa(lp3191
I0
aI0
aa(lp3192
I0
aI0
aa(lp3193
F0.9646464646464644
aF0.9740740740740742
aa(lp3194
I0
aI0
aa(lp3195
F1.0
aF1.0
aa(lp3196
F1.0
aF1.0
aa(lp3197
I0
aI0
aa(lp3198
I0
aI0
aa(lp3199
I0
aI0
aa(lp3200
F1.0
aI0
aa(lp3201
I0
aI0
aa(lp3202
I0
aI0
aa(lp3203
I0
aI0
aa(lp3204
I0
aI0
aa(lp3205
F0.9285714285714286
aF0.875
aa(lp3206
I0
aI0
aa(lp3207
I0
aI0
aa(lp3208
F1.0
aI0
aa(lp3209
F1.0
aF1.0
aa(lp3210
I0
aI0
aa(lp3211
I0
aI0
aa(lp3212
F1.0
aI0
aa(lp3213
I0
aI0
aa(lp3214
F1.0
aF1.0
aa(lp3215
F1.0
aF0.9444444444444444
aa(lp3216
F1.0
aF1.0
aa(lp3217
I0
aI0
aa(lp3218
I0
aI0
aa(lp3219
F1.0
aF1.0
aa(lp3220
I0
aI0
aa(lp3221
I0
aI0
aa(lp3222
I0
aI0
aa(lp3223
I0
aI0
aa(lp3224
I0
aI0
aa(lp3225
I0
aI0
aa(lp3226
I0
aI0
aa(lp3227
F1.0
aF1.0
aa(lp3228
F1.0
aF1.0
aa(lp3229
I0
aI0
aa(lp3230
I0
aI0
aa(lp3231
I0
aI0
aa(lp3232
F1.0
aI0
aa(lp3233
F1.0
aI0
aa(lp3234
I0
aI0
aa(lp3235
I0
aI0
aa(lp3236
I0
aI0
aa(lp3237
I0
aI0
aa(lp3238
I0
aI0
aa(lp3239
F1.0
aI0
aa(lp3240
I0
aI0
aa(lp3241
I0
aI0
aa(lp3242
I0
aI0
aa(lp3243
F1.0
aF1.0
aa(lp3244
I0
aI0
aa(lp3245
F1.0
aF1.0
aa(lp3246
F1.0
aI0
aa(lp3247
I0
aI0
aa(lp3248
I0
aI0
aa(lp3249
F1.0
aF1.0
aa(lp3250
F1.0
aF1.0
aa(lp3251
F1.0
aF1.0
aa(lp3252
F1.0
aF1.0
aa(lp3253
I0
aI0
aa(lp3254
I0
aI0
aa(lp3255
I0
aI0
aa(lp3256
I0
aI0
aa(lp3257
I0
aI0
aa(lp3258
I0
aI0
aa(lp3259
I0
aI0
aa(lp3260
I0
aI0
aa(lp3261
I0
aI0
aa(lp3262
I0
aI0
aa(lp3263
I0
aI0
aa(lp3264
I0
aI0
aa(lp3265
I0
aI0
aa(lp3266
I0
aI0
aa(lp3267
I0
aI0
aa(lp3268
I0
aI0
aa(lp3269
F0.0
aI0
aa(lp3270
I0
aI0
aa(lp3271
I0
aI0
aa(lp3272
F1.0
aF1.0
aa(lp3273
F1.0
aF1.0
aa(lp3274
F1.0
aF1.0
aa(lp3275
F1.0
aF1.0
aa(lp3276
F1.0
aF1.0
aa(lp3277
I0
aI0
aa(lp3278
F1.0
aI0
aa(lp3279
I0
aI0
aa(lp3280
I0
aI0
aa(lp3281
I0
aI0
aa(lp3282
F0.0
aI0
aa(lp3283
I0
aI0
aa(lp3284
F1.0
aF1.0
aa(lp3285
F1.0
aF1.0
aa(lp3286
I0
aI0
aa(lp3287
F1.0
aI0
aa(lp3288
I0
aI0
aa(lp3289
I0
aI0
aa(lp3290
F1.0
aI0
aa(lp3291
I0
aI0
aa(lp3292
I0
aI0
aa(lp3293
I0
aI0
aa(lp3294
F1.0
aI0
aa(lp3295
I0
aI0
aa(lp3296
I0
aI0
aa(lp3297
I0
aI0
aa(lp3298
I0
aI0
aa(lp3299
I0
aI0
aa(lp3300
F1.0
aF1.0
aa(lp3301
I0
aI0
aa(lp3302
I0
aI0
aa(lp3303
I0
aI0
aa(lp3304
F1.0
aI0
aa(lp3305
I0
aI0
aa(lp3306
I0
aI0
aa(lp3307
F1.0
aF1.0
aa(lp3308
I0
aI0
aa(lp3309
I0
aI0
aa(lp3310
F1.0
aF1.0
aa(lp3311
I0
aI0
aa(lp3312
I0
aI0
aa(lp3313
F0.9166666666666666
aF0.9629629629629629
aa(lp3314
I0
aI0
aa(lp3315
F1.0
aF1.0
aa(lp3316
I0
aI0
aa(lp3317
I0
aI0
aa(lp3318
I0
aI0
aa(lp3319
I0
aI0
aa(lp3320
I0
aI0
aa(lp3321
I0
aI0
aa(lp3322
I0
aI0
aa(lp3323
F1.0
aF1.0
aa(lp3324
I0
aI0
aa(lp3325
I0
aI0
aa(lp3326
I0
aI0
aa(lp3327
I0
aI0
aa(lp3328
I0
aI0
aa(lp3329
I0
aI0
aa(lp3330
I0
aI0
aa(lp3331
F1.0
aI0
aa(lp3332
I0
aI0
aa(lp3333
F1.0
aI0
aa(lp3334
I0
aI0
aa(lp3335
F1.0
aI0
aa(lp3336
I0
aI0
aa(lp3337
I0
aI0
aa(lp3338
I0
aI0
aa(lp3339
I0
aI0
aa(lp3340
F1.0
aF1.0
aa(lp3341
F1.0
aI0
aa(lp3342
I0
aI0
aa(lp3343
I0
aI0
aa(lp3344
I0
aI0
aa(lp3345
I0
aI0
aa(lp3346
I0
aI0
aa(lp3347
I0
aI0
aa(lp3348
I0
aI0
aa(lp3349
I0
aI0
aa(lp3350
F1.0
aI0
aa(lp3351
I0
aI0
aa(lp3352
I0
aI0
aa(lp3353
I0
aI0
aa(lp3354
I0
aI0
aa(lp3355
I0
aI0
aa(lp3356
F1.0
aF1.0
aa(lp3357
I0
aI0
aa(lp3358
I0
aI0
aa(lp3359
I0
aI0
aa(lp3360
I0
aI0
aa(lp3361
I0
aI0
aa(lp3362
I0
aI0
aa(lp3363
I0
aI0
aa(lp3364
I0
aI0
aa(lp3365
I0
aI0
aa(lp3366
I0
aI0
aa(lp3367
I0
aI0
aa(lp3368
I0
aI0
aa(lp3369
I0
aI0
aa(lp3370
F0.0
aF0.0
aa(lp3371
F1.0
aI0
aa(lp3372
F1.0
aF1.0
aa(lp3373
I0
aI0
aa(lp3374
I0
aI0
aa(lp3375
F1.0
aF1.0
aa(lp3376
I0
aI0
aa(lp3377
I0
aI0
aa(lp3378
I0
aI0
aa(lp3379
I0
aI0
aa(lp3380
F1.0
aF1.0
aa(lp3381
I0
aI0
aa(lp3382
I0
aI0
aa(lp3383
F1.0
aI0
aa(lp3384
F1.0
aF1.0
aa(lp3385
I0
aI0
aa(lp3386
I0
aI0
aa(lp3387
I0
aI0
aa(lp3388
F1.0
aI0
aa(lp3389
I0
aI0
aa(lp3390
F1.0
aF1.0
aa(lp3391
F1.0
aI0
aa(lp3392
I0
aI0
aa(lp3393
I0
aI0
aa(lp3394
I0
aI0
aa(lp3395
I0
aI0
aa(lp3396
I0
aI0
aa(lp3397
F1.0
aF1.0
aa(lp3398
I0
aI0
aa(lp3399
I0
aI0
aa(lp3400
F1.0
aI0
aa(lp3401
I0
aI0
aa(lp3402
I0
aI0
aa(lp3403
F0.0
aI0
aa(lp3404
F1.0
aI0
aa(lp3405
I0
aI0
aa(lp3406
I0
aI0
aa(lp3407
I0
aI0
aa(lp3408
I0
aI0
aa(lp3409
I0
aI0
aa(lp3410
I0
aI0
aa(lp3411
I0
aI0
aa(lp3412
I0
aI0
aa(lp3413
F1.0
aI0
aa(lp3414
I0
aI0
aa(lp3415
I0
aI0
aa(lp3416
I0
aI0
aa(lp3417
I0
aI0
aa(lp3418
I0
aI0
aa(lp3419
I0
aI0
aa(lp3420
F1.0
aF1.0
aa(lp3421
I0
aI0
aa(lp3422
F1.0
aI0
aa(lp3423
I0
aI0
aa(lp3424
F1.0
aI0
aa(lp3425
F1.0
aI0
aa(lp3426
I0
aI0
aa(lp3427
I0
aI0
aa(lp3428
I0
aI0
aa(lp3429
I0
aI0
aa(lp3430
I0
aI0
aa(lp3431
F1.0
aI0
aa(lp3432
I0
aI0
aa(lp3433
I0
aI0
aa(lp3434
I0
aI0
aa(lp3435
I0
aI0
aa(lp3436
I0
aI0
aa(lp3437
I0
aI0
aa(lp3438
I0
aI0
aa(lp3439
I0
aI0
aa(lp3440
I0
aI0
aa(lp3441
I0
aI0
aa(lp3442
I0
aI0
aa(lp3443
F1.0
aI0
aa(lp3444
I0
aI0
aa(lp3445
I0
aI0
aa(lp3446
I0
aI0
aa(lp3447
I0
aI0
aa(lp3448
F1.0
aF1.0
aa(lp3449
F1.0
aI0
aa(lp3450
I0
aI0
aa(lp3451
I0
aI0
aa(lp3452
I0
aI0
aa(lp3453
I0
aI0
aa(lp3454
I0
aI0
aa(lp3455
I0
aI0
aa(lp3456
I0
aI0
aa(lp3457
I0
aI0
aa(lp3458
I0
aI0
aa(lp3459
I0
aI0
aa(lp3460
F1.0
aF1.0
aa(lp3461
I0
aI0
aa(lp3462
I0
aI0
aa(lp3463
I0
aI0
aa(lp3464
I0
aI0
aa(lp3465
I0
aI0
aa(lp3466
I0
aI0
aa(lp3467
I0
aI0
aa(lp3468
I0
aI0
aa(lp3469
I0
aI0
aa(lp3470
F1.0
aI0
aa(lp3471
I0
aI0
aa(lp3472
F1.0
aF1.0
aa(lp3473
I0
aI0
aa(lp3474
I0
aI0
aa(lp3475
F1.0
aF1.0
aa(lp3476
I0
aI0
aa(lp3477
I0
aI0
aa(lp3478
I0
aI0
aa(lp3479
F1.0
aF1.0
aa(lp3480
I0
aI0
aa(lp3481
I0
aI0
aa(lp3482
F1.0
aI0
aa(lp3483
I0
aI0
aa(lp3484
F0.0
aI0
aa(lp3485
I0
aI0
aa(lp3486
F1.0
aF1.0
aa(lp3487
F1.0
aF1.0
aa(lp3488
I0
aI0
aa(lp3489
I0
aI0
aa(lp3490
F1.0
aI0
aa(lp3491
I0
aI0
aa(lp3492
I0
aI0
aa(lp3493
I0
aI0
aa(lp3494
F1.0
aF1.0
aa(lp3495
F1.0
aF1.0
aa(lp3496
I0
aI0
aa(lp3497
I0
aI0
aa(lp3498
F0.9
aF0.8
aa(lp3499
I0
aI0
aa(lp3500
I0
aI0
aa(lp3501
F1.0
aF1.0
aa(lp3502
I0
aI0
aa(lp3503
I0
aI0
aa(lp3504
I0
aI0
aa(lp3505
I0
aI0
aa(lp3506
I0
aI0
aa(lp3507
I0
aI0
aa(lp3508
I0
aI0
aa(lp3509
I0
aI0
aa(lp3510
I0
aI0
aa(lp3511
I0
aI0
aa(lp3512
I0
aI0
aa(lp3513
I0
aI0
aa(lp3514
I0
aI0
aa(lp3515
I0
aI0
aa(lp3516
I0
aI0
aa(lp3517
I0
aI0
aa(lp3518
I0
aI0
aa(lp3519
I0
aI0
aa(lp3520
I0
aI0
aa(lp3521
I0
aI0
aa(lp3522
I0
aI0
aa(lp3523
I0
aI0
aa(lp3524
I0
aI0
aa(lp3525
I0
aI0
aa(lp3526
I0
aI0
aa(lp3527
I0
aI0
aa(lp3528
I0
aI0
aa(lp3529
F1.0
aF0.29411764705882354
aa(lp3530
F1.0
aF1.0
aa(lp3531
F1.0
aF0.6799999999999999
aa(lp3532
F0.7352272727272726
aF0.625
aa(lp3533
I0
aI0
aa(lp3534
I0
aI0
aa(lp3535
I0
aI0
aa(lp3536
F1.0
aI0
aa(lp3537
I0
aI0
aa(lp3538
F0.75
aF0.75
aa(lp3539
I0
aI0
aa(lp3540
F1.0
aI0
aa(lp3541
F1.0
aI0
aa(lp3542
I0
aI0
aa(lp3543
F1.0
aF1.0
aa(lp3544
F1.0
aI0
aa(lp3545
F1.0
aI0
aa(lp3546
I0
aI0
aa(lp3547
I0
aI0
aa(lp3548
I0
aI0
aa(lp3549
I0
aI0
aa(lp3550
I0
aI0
aa(lp3551
I0
aI0
aa(lp3552
I0
aI0
aa(lp3553
I0
aI0
aa(lp3554
F1.0
aI0
aa(lp3555
I0
aI0
aa(lp3556
I0
aI0
aa(lp3557
I0
aI0
aa(lp3558
I0
aI0
aa(lp3559
F1.0
aI0
aa(lp3560
I0
aI0
aa(lp3561
I0
aI0
aa(lp3562
I0
aI0
aa(lp3563
I0
aI0
aa(lp3564
I0
aI0
aa(lp3565
I0
aI0
aa(lp3566
I0
aI0
aa(lp3567
I0
aI0
aa(lp3568
I0
aI0
aa(lp3569
F1.0
aF1.0
aa(lp3570
F1.0
aF1.0
aa(lp3571
I0
aI0
aa(lp3572
I0
aI0
aa(lp3573
F1.0
aI0
aa(lp3574
I0
aI0
aa(lp3575
I0
aI0
aa(lp3576
F1.0
aI0
aa(lp3577
F1.0
aI0
aa(lp3578
I0
aI0
aa(lp3579
F1.0
aF1.0
aa(lp3580
F0.9428571428571428
aF0.8666666666666667
aa(lp3581
F1.0
aI0
aa(lp3582
F0.0
aF0.0
aa(lp3583
I0
aI0
aa(lp3584
I0
aI0
aa(lp3585
F0.0
aI0
aa(lp3586
I0
aI0
aa(lp3587
I0
aI0
aa(lp3588
I0
aI0
aa(lp3589
I0
aI0
aa(lp3590
I0
aI0
aa(lp3591
I0
aI0
aa(lp3592
I0
aI0
aa(lp3593
I0
aI0
aa(lp3594
I0
aI0
aa(lp3595
F1.0
aF1.0
aa(lp3596
F1.0
aI0
aa(lp3597
F1.0
aI0
aa(lp3598
I0
aI0
aa(lp3599
I0
aI0
aa(lp3600
I0
aI0
aa(lp3601
I0
aI0
aa(lp3602
F1.0
aI0
aa(lp3603
F0.9375
aF0.875
aa(lp3604
F0.8857142857142858
aF0.8
aa(lp3605
I0
aI0
aa(lp3606
I0
aI0
aa(lp3607
I0
aI0
aa(lp3608
I0
aI0
aa(lp3609
I0
aI0
aa(lp3610
I0
aI0
aa(lp3611
F1.0
aI0
aa(lp3612
F1.0
aI0
aa(lp3613
I0
aI0
aa(lp3614
F1.0
aI0
aa(lp3615
I0
aI0
aa(lp3616
I0
aI0
aa(lp3617
F0.0
aI0
aa(lp3618
I0
aI0
aa(lp3619
I0
aI0
aa(lp3620
I0
aI0
aa(lp3621
F1.0
aF1.0
aa(lp3622
I0
aI0
aa(lp3623
I0
aI0
aa(lp3624
I0
aI0
aa(lp3625
F1.0
aI0
aa(lp3626
I0
aI0
aa(lp3627
I0
aI0
aa(lp3628
I0
aI0
aa(lp3629
I0
aI0
aa(lp3630
I0
aI0
aa(lp3631
F1.0
aI0
aa(lp3632
I0
aI0
aa(lp3633
I0
aI0
aa(lp3634
I0
aI0
aa(lp3635
F1.0
aI0
aa(lp3636
F1.0
aF1.0
aa(lp3637
I0
aI0
aa(lp3638
I0
aI0
aa(lp3639
I0
aI0
aa(lp3640
I0
aI0
aa(lp3641
I0
aI0
aa(lp3642
I0
aI0
aa(lp3643
I0
aI0
aa(lp3644
I0
aI0
aa(lp3645
F1.0
aI0
aa(lp3646
I0
aI0
aa(lp3647
I0
aI0
aa(lp3648
I0
aI0
aa(lp3649
F1.0
aI0
aa(lp3650
F1.0
aF1.0
aa(lp3651
I0
aI0
aa(lp3652
F0.8395061728395061
aF0.8222222222222222
aa(lp3653
F1.0
aF1.0
aa(lp3654
F0.9428571428571428
aF0.9199999999999999
aa(lp3655
F1.0
aF1.0
aa(lp3656
F1.0
aI0
aa(lp3657
I0
aI0
aa(lp3658
F0.9259259259259259
aF0.8888888888888888
aa(lp3659
F0.8907734406062165
aF0.7663879598662207
aa(lp3660
I0
aI0
aa(lp3661
I0
aI0
aa(lp3662
I0
aI0
aa(lp3663
F1.0
aI0
aa(lp3664
F1.0
aI0
aa(lp3665
I0
aI0
aa(lp3666
F1.0
aF1.0
aa(lp3667
I0
aI0
aa(lp3668
F1.0
aF1.0
aa(lp3669
F1.0
aI0
aa(lp3670
I0
aI0
aa(lp3671
I0
aI0
aa(lp3672
I0
aI0
aa(lp3673
F1.0
aI0
aa(lp3674
F1.0
aF1.0
aa(lp3675
I0
aI0
aa(lp3676
I0
aI0
aa(lp3677
I0
aI0
aa(lp3678
I0
aI0
aa(lp3679
I0
aI0
aa(lp3680
F1.0
aI0
aa(lp3681
I0
aI0
aa(lp3682
I0
aI0
aa(lp3683
F1.0
aF1.0
aa(lp3684
I0
aI0
aa(lp3685
F1.0
aI0
aa(lp3686
I0
aI0
aa(lp3687
F1.0
aI0
aa(lp3688
F1.0
aF1.0
aa(lp3689
F1.0
aF1.0
aa(lp3690
I0
aI0
aa(lp3691
I0
aI0
aa(lp3692
I0
aI0
aa(lp3693
I0
aI0
aa(lp3694
I0
aI0
aa(lp3695
I0
aI0
aa(lp3696
I0
aI0
aa(lp3697
I0
aI0
aa(lp3698
F1.0
aI0
aa(lp3699
I0
aI0
aa(lp3700
I0
aI0
aa(lp3701
I0
aI0
aa(lp3702
I0
aI0
aa(lp3703
I0
aI0
aa(lp3704
I0
aI0
aa(lp3705
I0
aI0
aa(lp3706
I0
aI0
aa(lp3707
F1.0
aI0
aa(lp3708
F1.0
aI0
aa(lp3709
I0
aI0
aa(lp3710
F1.0
aI0
aa(lp3711
I0
aI0
aa(lp3712
F1.0
aI0
aa(lp3713
I0
aI0
aa(lp3714
F1.0
aI0
aa(lp3715
F1.0
aF1.0
aa(lp3716
I0
aI0
aa(lp3717
I0
aI0
aa(lp3718
F0.9487179487179488
aF0.9230769230769231
aa(lp3719
I0
aI0
aa(lp3720
I0
aI0
aa(lp3721
I0
aI0
aa(lp3722
I0
aI0
aa(lp3723
I0
aI0
aa(lp3724
I0
aI0
aa(lp3725
I0
aI0
aa(lp3726
I0
aI0
aa(lp3727
I0
aI0
aa(lp3728
I0
aI0
aa(lp3729
I0
aI0
aa(lp3730
I0
aI0
aa(lp3731
F1.0
aF1.0
aa(lp3732
I0
aI0
aa(lp3733
F1.0
aF1.0
aa(lp3734
I0
aI0
aa(lp3735
I0
aI0
aa(lp3736
I0
aI0
aa(lp3737
I0
aI0
aa(lp3738
F1.0
aF1.0
aa(lp3739
I0
aI0
aa(lp3740
F0.0
aI0
aa(lp3741
I0
aI0
aa(lp3742
I0
aI0
aa(lp3743
F0.5555555555555555
aF0.5555555555555555
aa(lp3744
I0
aI0
aa(lp3745
I0
aI0
aa(lp3746
F1.0
aF1.0
aa(lp3747
I0
aI0
aa(lp3748
F0.8888888888888888
aF0.8888888888888888
aa(lp3749
I0
aI0
aa(lp3750
I0
aI0
aa(lp3751
I0
aI0
aa(lp3752
F1.0
aF1.0
aa(lp3753
F1.0
aF1.0
aa(lp3754
I0
aI0
aa(lp3755
I0
aI0
aa(lp3756
F1.0
aF1.0
aa(lp3757
I0
aI0
aa(lp3758
F1.0
aI0
aa(lp3759
I0
aI0
aa(lp3760
I0
aI0
aa(lp3761
I0
aI0
aa(lp3762
I0
aI0
aa(lp3763
I0
aI0
aa(lp3764
I0
aI0
aa(lp3765
I0
aI0
aa(lp3766
I0
aI0
aa(lp3767
F0.8888888888888888
aF1.0
aa(lp3768
I0
aI0
aa(lp3769
I0
aI0
aa(lp3770
F1.0
aF1.0
aa(lp3771
I0
aI0
aa(lp3772
I0
aI0
aa(lp3773
I0
aI0
aa(lp3774
I0
aI0
aa(lp3775
I0
aI0
aa(lp3776
I0
aI0
aa(lp3777
I0
aI0
aa(lp3778
I0
aI0
aa(lp3779
I0
aI0
aa(lp3780
I0
aI0
aa(lp3781
I0
aI0
aa(lp3782
I0
aI0
aa(lp3783
F1.0
aI0
aa(lp3784
I0
aI0
aa(lp3785
I0
aI0
aa(lp3786
F1.0
aI0
aa(lp3787
I0
aI0
aa(lp3788
I0
aI0
aa(lp3789
I0
aI0
aa(lp3790
F1.0
aF1.0
aa(lp3791
I0
aI0
aa(lp3792
F0.0
aF0.0
aa(lp3793
I0
aI0
aa(lp3794
F1.0
aI0
aa(lp3795
I0
aI0
aa(lp3796
I0
aI0
aa(lp3797
F1.0
aF1.0
aa(lp3798
F1.0
aI0
aa(lp3799
F0.9230769230769231
aI0
aa(lp3800
F1.0
aI0
aa(lp3801
F1.0
aI0
aa(lp3802
I0
aI0
aa(lp3803
I0
aI0
aa(lp3804
I0
aI0
aa(lp3805
I0
aI0
aa(lp3806
F1.0
aI0
aa(lp3807
I0
aI0
aa(lp3808
I0
aI0
aa(lp3809
I0
aI0
aa(lp3810
F1.0
aF1.0
aa(lp3811
I0
aI0
aa(lp3812
I0
aI0
aa(lp3813
I0
aI0
aa(lp3814
I0
aI0
aa(lp3815
F1.0
aF1.0
aa(lp3816
I0
aI0
aa(lp3817
F1.0
aF1.0
aa(lp3818
I0
aI0
aa(lp3819
I0
aI0
aa(lp3820
I0
aI0
aa(lp3821
F1.0
aI0
aa(lp3822
I0
aI0
aa(lp3823
F1.0
aI0
aa(lp3824
I0
aI0
aa(lp3825
I0
aI0
aa(lp3826
I0
aI0
aa(lp3827
I0
aI0
aa(lp3828
I0
aI0
aa(lp3829
F1.0
aF1.0
aa(lp3830
F1.0
aI0
aa(lp3831
I0
aI0
aa(lp3832
F1.0
aI0
aa(lp3833
I0
aI0
aa(lp3834
F1.0
aF1.0
aa(lp3835
F1.0
aI0
aa(lp3836
I0
aI0
aa(lp3837
F1.0
aI0
aa(lp3838
F1.0
aF1.0
aa(lp3839
I0
aI0
aa(lp3840
I0
aI0
aa(lp3841
F1.0
aI0
aa(lp3842
I0
aI0
aa(lp3843
F1.0
aF0.1111111111111111
aa(lp3844
F1.0
aI0
aa(lp3845
I0
aI0
aa(lp3846
F1.0
aI0
aa(lp3847
I0
aI0
aa(lp3848
I0
aI0
aa(lp3849
I0
aI0
aa(lp3850
I0
aI0
aa(lp3851
I0
aI0
aa(lp3852
F1.0
aF1.0
aa(lp3853
F1.0
aF1.0
aa(lp3854
I0
aI0
aa(lp3855
I0
aI0
aa(lp3856
I0
aI0
aa(lp3857
I0
aI0
aa(lp3858
I0
aI0
aa(lp3859
I0
aI0
aa(lp3860
I0
aI0
aa(lp3861
I0
aI0
aa(lp3862
I0
aI0
aa(lp3863
F0.0
aF0.0
aa(lp3864
I0
aI0
aa(lp3865
I0
aI0
aa(lp3866
I0
aI0
aa(lp3867
I0
aI0
aa(lp3868
F1.0
aI0
aa(lp3869
I0
aI0
aa(lp3870
F1.0
aI0
aa(lp3871
F0.888888888888889
aF-1.2666666666666666
aa(lp3872
F1.0
aF1.0
aa(lp3873
F1.0
aF1.0
aa(lp3874
I0
aI0
aa(lp3875
I0
aI0
aa(lp3876
F1.0
aI0
aa(lp3877
I0
aI0
aa(lp3878
F1.0
aI0
aa(lp3879
F1.0
aF1.0
aa(lp3880
F1.0
aF1.0
aa(lp3881
I0
aI0
aa(lp3882
I0
aI0
aa(lp3883
F0.0
aF0.0
aa(lp3884
F1.0
aF1.0
aa(lp3885
I0
aI0
aa(lp3886
I0
aI0
aa(lp3887
I0
aI0
aa(lp3888
I0
aI0
aa(lp3889
I0
aI0
aa(lp3890
F1.0
aF1.0
aa(lp3891
F1.0
aF1.0
aa(lp3892
I0
aI0
aa(lp3893
I0
aI0
aa(lp3894
F1.0
aI0
aa(lp3895
I0
aI0
aa(lp3896
I0
aI0
aa(lp3897
F1.0
aF1.0
aa(lp3898
I0
aI0
aa(lp3899
F1.0
aF1.0
aa(lp3900
I0
aI0
aa(lp3901
F0.9375
aF0.9166666666666666
aa(lp3902
I0
aI0
aa(lp3903
F1.0
aF1.0
aa(lp3904
I0
aI0
aa(lp3905
F1.0
aI0
aa(lp3906
F1.0
aI0
aa(lp3907
I0
aI0
aa(lp3908
I0
aI0
aa(lp3909
I0
aI0
aa(lp3910
F1.0
aI0
aa(lp3911
I0
aI0
aa(lp3912
F1.0
aI0
aa(lp3913
I0
aI0
aa(lp3914
F1.0
aI0
aa(lp3915
I0
aI0
aa(lp3916
I0
aI0
aa(lp3917
I0
aI0
aa(lp3918
I0
aI0
aa(lp3919
I0
aI0
aa(lp3920
F1.0
aI0
aa(lp3921
F1.0
aF1.0
aa(lp3922
I0
aI0
aa(lp3923
I0
aI0
aa(lp3924
I0
aI0
aa(lp3925
I0
aI0
aa(lp3926
I0
aI0
aa(lp3927
I0
aI0
aa(lp3928
F1.0
aF1.0
aa(lp3929
I0
aI0
aa(lp3930
I0
aI0
aa(lp3931
F1.0
aI0
aa(lp3932
I0
aI0
aa(lp3933
I0
aI0
aa(lp3934
F1.0
aI0
aa(lp3935
I0
aI0
aa(lp3936
I0
aI0
aa(lp3937
I0
aI0
aa(lp3938
I0
aI0
aa(lp3939
I0
aI0
aa(lp3940
I0
aI0
aa(lp3941
F1.0
aI0
aa(lp3942
I0
aI0
aa(lp3943
I0
aI0
aa(lp3944
I0
aI0
aa(lp3945
I0
aI0
aa(lp3946
F1.0
aF1.0
aa(lp3947
F1.0
aI0
aa(lp3948
I0
aI0
aa(lp3949
F1.0
aF1.0
aa(lp3950
I0
aI0
aa(lp3951
F1.0
aI0
aa(lp3952
F1.0
aI0
aa(lp3953
I0
aI0
aa(lp3954
I0
aI0
aa(lp3955
F1.0
aI0
aa(lp3956
I0
aI0
aa(lp3957
I0
aI0
aa(lp3958
F1.0
aI0
aa(lp3959
I0
aI0
aa(lp3960
I0
aI0
aa(lp3961
I0
aI0
aa(lp3962
I0
aI0
aa(lp3963
F1.0
aF1.0
aa(lp3964
I0
aI0
aa(lp3965
I0
aI0
aa(lp3966
I0
aI0
aa(lp3967
I0
aI0
aa(lp3968
I0
aI0
aa(lp3969
I0
aI0
aa(lp3970
F1.0
aI0
aa(lp3971
I0
aI0
aa(lp3972
I0
aI0
aa(lp3973
I0
aI0
aa(lp3974
I0
aI0
aa(lp3975
I0
aI0
aa(lp3976
I0
aI0
aa(lp3977
F1.0
aI0
aa(lp3978
F1.0
aI0
aa(lp3979
I0
aI0
aa(lp3980
F1.0
aI0
aa(lp3981
I0
aI0
aa(lp3982
I0
aI0
aa(lp3983
I0
aI0
aa(lp3984
I0
aI0
aa(lp3985
I0
aI0
aa(lp3986
I0
aI0
aa(lp3987
F1.0
aF1.0
aa(lp3988
I0
aI0
aa(lp3989
F0.9130434782608695
aI0
aa(lp3990
F1.0
aI0
aa(lp3991
I0
aI0
aa(lp3992
I0
aI0
aa(lp3993
I0
aI0
aa(lp3994
I0
aI0
aa(lp3995
I0
aI0
aa(lp3996
I0
aI0
aa(lp3997
I0
aI0
aa(lp3998
I0
aI0
aa(lp3999
F1.0
aF1.0
aa(lp4000
I0
aI0
aa(lp4001
I0
aI0
aa(lp4002
I0
aI0
aa(lp4003
I0
aI0
aa(lp4004
I0
aI0
aa(lp4005
I0
aI0
aa(lp4006
F1.0
aF1.0
aa(lp4007
I0
aI0
aa(lp4008
I0
aI0
aa(lp4009
I0
aI0
aa(lp4010
I0
aI0
aa(lp4011
I0
aI0
aa(lp4012
I0
aI0
aa(lp4013
I0
aI0
aa(lp4014
I0
aI0
aa(lp4015
I0
aI0
aa(lp4016
I0
aI0
aa(lp4017
F1.0
aF1.0
aa(lp4018
F1.0
aF1.0
aa(lp4019
F1.0
aI0
aa(lp4020
I0
aI0
aa(lp4021
I0
aI0
aa(lp4022
I0
aI0
aa(lp4023
I0
aI0
aa(lp4024
I0
aI0
aa(lp4025
I0
aI0
aa(lp4026
F1.0
aI0
aa(lp4027
I0
aI0
aa(lp4028
I0
aI0
aa(lp4029
I0
aI0
aa(lp4030
F0.95
aF0.9333333333333332
aa(lp4031
F0.33825944170771755
aF0.010351966873706004
aa(lp4032
I0
aI0
aa(lp4033
F1.0
aI0
aa(lp4034
I0
aI0
aa(lp4035
I0
aI0
aa(lp4036
F1.0
aI0
aa(lp4037
I0
aI0
aa(lp4038
F1.0
aI0
aa(lp4039
I0
aI0
aa(lp4040
I0
aI0
aa(lp4041
F1.0
aF1.0
aa(lp4042
I0
aI0
aa(lp4043
F1.0
aI0
aa(lp4044
I0
aI0
aa(lp4045
F1.0
aF1.0
aa(lp4046
I0
aI0
aa(lp4047
I0
aI0
aa(lp4048
I0
aI0
aa(lp4049
F1.0
aF1.0
aa(lp4050
F0.9183673469387755
aF0.8095238095238096
aa(lp4051
F1.0
aI0
aa(lp4052
F0.9629629629629629
aF0.9629629629629629
aa(lp4053
I0
aI0
aa(lp4054
F1.0
aF1.0
aa(lp4055
F1.0
aF1.0
aa(lp4056
F1.0
aI0
aa(lp4057
F1.0
aF1.0
aa(lp4058
F1.0
aI0
aa(lp4059
I0
aI0
aa(lp4060
F1.0
aF1.0
aa(lp4061
F1.0
aF0.975
aa(lp4062
F1.0
aF1.0
aa(lp4063
F1.0
aF1.0
aa(lp4064
F1.0
aF1.0
aa(lp4065
F1.0
aF1.0
aa(lp4066
I0
aI0
aa(lp4067
I0
aI0
aa(lp4068
I0
aI0
aa(lp4069
F0.976851851851852
aF0.9691358024691357
aa(lp4070
F1.0
aI0
aa(lp4071
F1.0
aF1.0
aa(lp4072
F1.0
aF1.0
aa(lp4073
I0
aI0
aa(lp4074
F0.9487179487179488
aF0.9230769230769231
aa(lp4075
F0.0
aF0.0
aa(lp4076
F1.0
aF1.0
aa(lp4077
I0
aI0
aa(lp4078
I0
aI0
aa(lp4079
I0
aI0
aa(lp4080
I0
aI0
aa(lp4081
I0
aI0
aa(lp4082
F1.0
aI0
aa(lp4083
F1.0
aF1.0
aa(lp4084
I0
aI0
aa(lp4085
I0
aI0
aa(lp4086
I0
aI0
aa(lp4087
I0
aI0
aa(lp4088
F1.0
aI0
aa(lp4089
I0
aI0
aa(lp4090
I0
aI0
aa(lp4091
F1.0
aF1.0
aa(lp4092
I0
aI0
aa(lp4093
I0
aI0
aa(lp4094
F1.0
aI0
aa(lp4095
I0
aI0
aa(lp4096
I0
aI0
aa(lp4097
F1.0
aI0
aa(lp4098
F1.0
aI0
aa(lp4099
F1.0
aF1.0
aa(lp4100
I0
aI0
aa(lp4101
I0
aI0
aa(lp4102
I0
aI0
aa(lp4103
I0
aI0
aa(lp4104
F1.0
aF1.0
aa(lp4105
I0
aI0
aa(lp4106
I0
aI0
aa(lp4107
I0
aI0
aa(lp4108
I0
aI0
aa(lp4109
I0
aI0
aa(lp4110
I0
aI0
aa(lp4111
F1.0
aI0
aa(lp4112
I0
aI0
aa(lp4113
F0.0
aI0
aa(lp4114
I0
aI0
aa(lp4115
I0
aI0
aa(lp4116
I0
aI0
aa(lp4117
F0.0
aI0
aa(lp4118
I0
aI0
aa(lp4119
I0
aI0
aa(lp4120
F1.0
aF1.0
aa(lp4121
F1.0
aF1.0
aa(lp4122
I0
aI0
aa(lp4123
I0
aI0
aa(lp4124
F1.0
aI0
aa(lp4125
I0
aI0
aa(lp4126
I0
aI0
aa(lp4127
F1.0
aI0
aa(lp4128
I0
aI0
aa(lp4129
I0
aI0
aa(lp4130
F1.0
aI0
aa(lp4131
F1.0
aF1.0
aa(lp4132
F1.0
aF1.0
aa(lp4133
I0
aI0
aa(lp4134
I0
aI0
aa(lp4135
I0
aI0
aa(lp4136
I0
aI0
aa(lp4137
I0
aI0
aa(lp4138
I0
aI0
aa(lp4139
I0
aI0
aa(lp4140
I0
aI0
aa(lp4141
I0
aI0
aa(lp4142
F0.0
aI0
aa(lp4143
F1.0
aI0
aa(lp4144
F1.0
aF1.0
aa(lp4145
F0.0
aF0.0
aa(lp4146
F1.0
aF1.0
aa(lp4147
I0
aI0
aa(lp4148
F1.0
aF1.0
aa(lp4149
I0
aI0
aa(lp4150
I0
aI0
aa(lp4151
I0
aI0
aa(lp4152
F1.0
aI0
aa(lp4153
I0
aI0
aa(lp4154
I0
aI0
aa(lp4155
F1.0
aI0
aa(lp4156
I0
aI0
aa(lp4157
F1.0
aF1.0
aa(lp4158
I0
aI0
aa(lp4159
I0
aI0
aa(lp4160
F1.0
aI0
aa(lp4161
I0
aI0
aa(lp4162
I0
aI0
aa(lp4163
F1.0
aI0
aa(lp4164
F1.0
aI0
aa(lp4165
F0.9375
aF0.875
aa(lp4166
F0.0
aI0
aa(lp4167
I0
aI0
aa(lp4168
I0
aI0
aa(lp4169
I0
aI0
aa(lp4170
F1.0
aI0
aa(lp4171
I0
aI0
aa(lp4172
I0
aI0
aa(lp4173
F1.0
aF1.0
aa(lp4174
I0
aI0
aa(lp4175
F1.0
aF1.0
aa(lp4176
I0
aI0
aa(lp4177
I0
aI0
aa(lp4178
I0
aI0
aa(lp4179
I0
aI0
aa(lp4180
I0
aI0
aa(lp4181
F1.0
aF1.0
aa(lp4182
I0
aI0
aa(lp4183
I0
aI0
aa(lp4184
I0
aI0
aa(lp4185
I0
aI0
aa(lp4186
I0
aI0
aa(lp4187
I0
aI0
aa(lp4188
I0
aI0
aa(lp4189
I0
aI0
aa(lp4190
I0
aI0
aa(lp4191
F1.0
aF1.0
aa(lp4192
I0
aI0
aa(lp4193
I0
aI0
aa(lp4194
I0
aI0
aa(lp4195
I0
aI0
aa(lp4196
I0
aI0
aa(lp4197
F1.0
aI0
aa(lp4198
I0
aI0
aa(lp4199
F1.0
aF1.0
aa(lp4200
F1.0
aI0
aa(lp4201
I0
aI0
aa(lp4202
I0
aI0
aa(lp4203
I0
aI0
aa(lp4204
F1.0
aF1.0
aa(lp4205
F1.0
aF1.0
aa(lp4206
I0
aI0
aa(lp4207
F1.0
aI0
aa(lp4208
I0
aI0
aa(lp4209
I0
aI0
aa(lp4210
I0
aI0
aa(lp4211
F0.75
aF0.75
aa(lp4212
I0
aI0
aa(lp4213
I0
aI0
aa(lp4214
I0
aI0
aa(lp4215
I0
aI0
aa(lp4216
F1.0
aF1.0
aa(lp4217
F1.0
aI0
aa(lp4218
I0
aI0
aa(lp4219
I0
aI0
aa(lp4220
I0
aI0
aa(lp4221
I0
aI0
aa(lp4222
F1.0
aF1.0
aa(lp4223
I0
aI0
aa(lp4224
I0
aI0
aa(lp4225
I0
aI0
aa(lp4226
I0
aI0
aa(lp4227
I0
aI0
aa(lp4228
I0
aI0
aa(lp4229
F1.0
aF1.0
aa(lp4230
I0
aI0
aa(lp4231
I0
aI0
aa(lp4232
I0
aI0
aa(lp4233
I0
aI0
aa(lp4234
I0
aI0
aa(lp4235
F1.0
aI0
aa(lp4236
F1.0
aI0
aa(lp4237
F1.0
aI0
aa(lp4238
I0
aI0
aa(lp4239
I0
aI0
aa(lp4240
I0
aI0
aa(lp4241
I0
aI0
aa(lp4242
F1.0
aI0
aa(lp4243
I0
aI0
aa(lp4244
F1.0
aI0
aa(lp4245
I0
aI0
aa(lp4246
I0
aI0
aa(lp4247
I0
aI0
aa(lp4248
I0
aI0
aa(lp4249
F1.0
aF1.0
aa(lp4250
I0
aI0
aa(lp4251
I0
aI0
aa(lp4252
I0
aI0
aa(lp4253
I0
aI0
aa(lp4254
I0
aI0
aa(lp4255
I0
aI0
aa(lp4256
I0
aI0
aa(lp4257
I0
aI0
aa(lp4258
I0
aI0
aa(lp4259
I0
aI0
aa(lp4260
I0
aI0
aa(lp4261
F1.0
aF1.0
aa(lp4262
I0
aI0
aa(lp4263
I0
aI0
aa(lp4264
F1.0
aI0
aa(lp4265
F1.0
aF1.0
aa(lp4266
I0
aI0
aa(lp4267
I0
aI0
aa(lp4268
I0
aI0
aa(lp4269
I0
aI0
aa(lp4270
F1.0
aI0
aa(lp4271
I0
aI0
aa(lp4272
I0
aI0
aa(lp4273
I0
aI0
aa(lp4274
F1.0
aI0
aa(lp4275
F1.0
aF1.0
aa(lp4276
I0
aI0
aa(lp4277
I0
aI0
aa(lp4278
I0
aI0
aa(lp4279
F0.0
aF0.0
aa(lp4280
F1.0
aI0
aa(lp4281
I0
aI0
aa(lp4282
F0.9166666666666666
aF0.8333333333333333
aa(lp4283
F1.0
aF1.0
aa(lp4284
I0
aI0
aa(lp4285
I0
aI0
aa(lp4286
I0
aI0
aa(lp4287
I0
aI0
aa(lp4288
F1.0
aF1.0
aa(lp4289
I0
aI0
aa(lp4290
I0
aI0
aa(lp4291
I0
aI0
aa(lp4292
I0
aI0
aa(lp4293
I0
aI0
aa(lp4294
I0
aI0
aa(lp4295
I0
aI0
aa(lp4296
I0
aI0
aa(lp4297
I0
aI0
aa(lp4298
I0
aI0
aa(lp4299
I0
aI0
aa(lp4300
F0.8
aF0.8
aa(lp4301
I0
aI0
aa(lp4302
I0
aI0
aa(lp4303
I0
aI0
aa(lp4304
I0
aI0
aa(lp4305
I0
aI0
aa(lp4306
I0
aI0
aa(lp4307
I0
aI0
aa(lp4308
I0
aI0
aa(lp4309
I0
aI0
aa(lp4310
I0
aI0
aa(lp4311
I0
aI0
aa(lp4312
F1.0
aI0
aa(lp4313
I0
aI0
aa(lp4314
I0
aI0
aa(lp4315
I0
aI0
aa(lp4316
F1.0
aF1.0
aa(lp4317
I0
aI0
aa(lp4318
I0
aI0
aa(lp4319
I0
aI0
aa(lp4320
F1.0
aI0
aa(lp4321
F1.0
aF1.0
aa(lp4322
I0
aI0
aa(lp4323
F1.0
aI0
aa(lp4324
I0
aI0
aa(lp4325
I0
aI0
aa(lp4326
I0
aI0
aa(lp4327
I0
aI0
aa(lp4328
I0
aI0
aa(lp4329
F1.0
aF1.0
aa(lp4330
F1.0
aF1.0
aa(lp4331
I0
aI0
aa(lp4332
I0
aI0
aa(lp4333
I0
aI0
aa(lp4334
F1.0
aI0
aa(lp4335
I0
aI0
aa(lp4336
I0
aI0
aa(lp4337
I0
aI0
aa(lp4338
I0
aI0
aa(lp4339
F1.0
aI0
aa(lp4340
I0
aI0
aa(lp4341
I0
aI0
aa(lp4342
F1.0
aF1.0
aa(lp4343
F1.0
aF1.0
aa(lp4344
I0
aI0
aa(lp4345
I0
aI0
aa(lp4346
I0
aI0
aa(lp4347
I0
aI0
aa(lp4348
F0.9487179487179488
aF0.7948717948717948
aa(lp4349
I0
aI0
aa(lp4350
I0
aI0
aa(lp4351
I0
aI0
aa(lp4352
I0
aI0
aa(lp4353
F1.0
aF1.0
aa(lp4354
I0
aI0
aa(lp4355
I0
aI0
aa(lp4356
F1.0
aF1.0
aa(lp4357
I0
aI0
aa(lp4358
I0
aI0
aa(lp4359
I0
aI0
aa(lp4360
I0
aI0
aa(lp4361
F1.0
aF1.0
aa(lp4362
F1.0
aI0
aa(lp4363
I0
aI0
aa(lp4364
F1.0
aI0
aa(lp4365
I0
aI0
aa(lp4366
I0
aI0
aa(lp4367
I0
aI0
aa(lp4368
F1.0
aI0
aa(lp4369
F1.0
aF0.75
aa(lp4370
F1.0
aI0
aa(lp4371
F1.0
aI0
aa(lp4372
F0.8888888888888888
aF0.8888888888888888
aa(lp4373
I0
aI0
aa(lp4374
I0
aI0
aa(lp4375
I0
aI0
aa(lp4376
I0
aI0
aa(lp4377
F1.0
aI0
aa(lp4378
I0
aI0
aa(lp4379
F0.25
aF0.25
aa(lp4380
I0
aI0
aa(lp4381
I0
aI0
aa(lp4382
I0
aI0
aa(lp4383
I0
aI0
aa(lp4384
F1.0
aI0
aa(lp4385
I0
aI0
aa(lp4386
I0
aI0
aa(lp4387
I0
aI0
aa(lp4388
I0
aI0
aa(lp4389
I0
aI0
aa(lp4390
F0.0
aI0
aa(lp4391
I0
aI0
aa(lp4392
I0
aI0
aa(lp4393
F1.0
aI0
aa(lp4394
I0
aI0
aa(lp4395
I0
aI0
aa(lp4396
I0
aI0
aa(lp4397
F1.0
aF1.0
aa(lp4398
I0
aI0
aa(lp4399
F1.0
aF1.0
aa(lp4400
F1.0
aI0
aa(lp4401
I0
aI0
aa(lp4402
F1.0
aI0
aa(lp4403
I0
aI0
aa(lp4404
F1.0
aI0
aa(lp4405
I0
aI0
aa(lp4406
I0
aI0
aa(lp4407
F1.0
aF1.0
aa(lp4408
I0
aI0
aa(lp4409
I0
aI0
aa(lp4410
I0
aI0
aa(lp4411
I0
aI0
aa(lp4412
I0
aI0
aa(lp4413
I0
aI0
aa(lp4414
F1.0
aI0
aa(lp4415
F1.0
aI0
aa(lp4416
I0
aI0
aa(lp4417
I0
aI0
aa(lp4418
I0
aI0
aa(lp4419
I0
aI0
aa(lp4420
I0
aI0
aa(lp4421
I0
aI0
aa(lp4422
I0
aI0
aa(lp4423
I0
aI0
aa(lp4424
I0
aI0
aa(lp4425
I0
aI0
aa(lp4426
I0
aI0
aa(lp4427
I0
aI0
aa(lp4428
F1.0
aI0
aa(lp4429
I0
aI0
aa(lp4430
I0
aI0
aa(lp4431
F1.0
aI0
aa(lp4432
I0
aI0
aa(lp4433
I0
aI0
aa(lp4434
I0
aI0
aa(lp4435
F1.0
aI0
aa(lp4436
I0
aI0
aa(lp4437
F1.0
aF1.0
aa(lp4438
F1.0
aF1.0
aa(lp4439
F1.0
aI0
aa(lp4440
I0
aI0
aa(lp4441
F1.0
aI0
aa(lp4442
F1.0
aF1.0
aa(lp4443
I0
aI0
aa(lp4444
I0
aI0
aa(lp4445
I0
aI0
aa(lp4446
I0
aI0
aa(lp4447
I0
aI0
aa(lp4448
F1.0
aI0
aa(lp4449
I0
aI0
aa(lp4450
I0
aI0
aa(lp4451
F1.0
aF1.0
aa(lp4452
I0
aI0
aa(lp4453
F1.0
aI0
aa(lp4454
I0
aI0
aa(lp4455
I0
aI0
aa(lp4456
I0
aI0
aa(lp4457
F1.0
aI0
aa(lp4458
F1.0
aI0
aa(lp4459
F1.0
aF1.0
aa(lp4460
I0
aI0
aa(lp4461
I0
aI0
aa(lp4462
I0
aI0
aa(lp4463
I0
aI0
aa(lp4464
I0
aI0
aa(lp4465
F0.978021978021978
aF0.9230769230769231
aa(lp4466
F1.0
aF1.0
aa(lp4467
I0
aI0
aa(lp4468
I0
aI0
aa(lp4469
I0
aI0
aa(lp4470
I0
aI0
aa(lp4471
I0
aI0
aa(lp4472
F1.0
aF1.0
aa(lp4473
F1.0
aF1.0
aa(lp4474
F1.0
aI0
aa(lp4475
I0
aI0
aa(lp4476
I0
aI0
aa(lp4477
F1.0
aF1.0
aa(lp4478
F1.0
aF1.0
aa(lp4479
F0.7777777777777778
aF0.7777777777777778
aa(lp4480
I0
aI0
aa(lp4481
I0
aI0
aa(lp4482
I0
aI0
aa(lp4483
F1.0
aF1.0
aa(lp4484
I0
aI0
aa(lp4485
F1.0
aF1.0
aa(lp4486
I0
aI0
aa(lp4487
I0
aI0
aa(lp4488
I0
aI0
aa(lp4489
I0
aI0
aa(lp4490
I0
aI0
aa(lp4491
F1.0
aF1.0
aa(lp4492
I0
aI0
aa(lp4493
F1.0
aI0
aa(lp4494
F0.18181818181818182
aI0
aa(lp4495
I0
aI0
aa(lp4496
I0
aI0
aa(lp4497
I0
aI0
aa(lp4498
I0
aI0
aa(lp4499
I0
aI0
aa(lp4500
I0
aI0
aa(lp4501
I0
aI0
aa(lp4502
I0
aI0
aa(lp4503
F1.0
aI0
aa(lp4504
I0
aI0
aa(lp4505
I0
aI0
aa(lp4506
I0
aI0
aa(lp4507
I0
aI0
aa(lp4508
F1.0
aF1.0
aa(lp4509
I0
aI0
aa(lp4510
F1.0
aF1.0
aa(lp4511
I0
aI0
aa(lp4512
F1.0
aF1.0
aa(lp4513
I0
aI0
aa(lp4514
F1.0
aI0
aa(lp4515
F1.0
aF1.0
aa(lp4516
F1.0
aI0
aa(lp4517
I0
aI0
aa(lp4518
I0
aI0
aa(lp4519
F0.9889807162534435
aF0.9757575757575758
aa(lp4520
I0
aI0
aa(lp4521
F1.0
aF1.0
aa(lp4522
I0
aI0
aa(lp4523
F1.0
aF1.0
aa(lp4524
F1.0
aI0
aa(lp4525
F1.0
aI0
aa(lp4526
F1.0
aF1.0
aa(lp4527
F1.0
aF1.0
aa(lp4528
I0
aI0
aa(lp4529
F1.0
aI0
aa(lp4530
I0
aI0
aa(lp4531
I0
aI0
aa(lp4532
I0
aI0
aa(lp4533
I0
aI0
aa(lp4534
F1.0
aI0
aa(lp4535
I0
aI0
aa(lp4536
I0
aI0
aa(lp4537
I0
aI0
aa(lp4538
F1.0
aF1.0
aa(lp4539
F1.0
aI0
aa(lp4540
I0
aI0
aa(lp4541
I0
aI0
aa(lp4542
I0
aI0
aa(lp4543
I0
aI0
aa(lp4544
I0
aI0
aa(lp4545
I0
aI0
aa(lp4546
I0
aI0
aa(lp4547
F1.0
aI0
aa(lp4548
F1.0
aI0
aa(lp4549
I0
aI0
aa(lp4550
I0
aI0
aa(lp4551
I0
aI0
aa(lp4552
I0
aI0
aa(lp4553
I0
aI0
aa(lp4554
I0
aI0
aa(lp4555
I0
aI0
aa(lp4556
I0
aI0
aa(lp4557
F1.0
aF1.0
aa(lp4558
I0
aI0
aa(lp4559
I0
aI0
aa(lp4560
I0
aI0
aa(lp4561
F1.0
aI0
aa(lp4562
I0
aI0
aa(lp4563
I0
aI0
aa(lp4564
I0
aI0
aa(lp4565
I0
aI0
aa(lp4566
I0
aI0
aa(lp4567
I0
aI0
aa(lp4568
I0
aI0
aa(lp4569
I0
aI0
aa(lp4570
I0
aI0
aa(lp4571
I0
aI0
aa(lp4572
I0
aI0
aa(lp4573
I0
aI0
aa(lp4574
I0
aI0
aa(lp4575
F1.0
aI0
aa(lp4576
I0
aI0
aa(lp4577
I0
aI0
aa(lp4578
F1.0
aI0
aa(lp4579
I0
aI0
aa(lp4580
I0
aI0
aa(lp4581
I0
aI0
aa(lp4582
F1.0
aI0
aa(lp4583
I0
aI0
aa(lp4584
I0
aI0
aa(lp4585
I0
aI0
aa(lp4586
I0
aI0
aa(lp4587
F0.8461538461538461
aF1.0
aa(lp4588
I0
aI0
aa(lp4589
F1.0
aF1.0
aa(lp4590
F1.0
aI0
aa(lp4591
F0.9538461538461538
aF0.9076923076923077
aa(lp4592
F1.0
aF1.0
aa(lp4593
I0
aI0
aa(lp4594
F1.0
aI0
aa(lp4595
I0
aI0
aa(lp4596
I0
aI0
aa(lp4597
F1.0
aF1.0
aa(lp4598
I0
aI0
aa(lp4599
F1.0
aF1.0
aa(lp4600
F1.0
aI0
aa(lp4601
I0
aI0
aa(lp4602
I0
aI0
aa(lp4603
I0
aI0
aa(lp4604
I0
aI0
aa(lp4605
F1.0
aF1.0
aa(lp4606
I0
aI0
aa(lp4607
I0
aI0
aa(lp4608
I0
aI0
aa(lp4609
I0
aI0
aa(lp4610
I0
aI0
aa(lp4611
F1.0
aI0
aa(lp4612
I0
aI0
aa(lp4613
I0
aI0
aa(lp4614
F1.0
aI0
aa(lp4615
I0
aI0
aa(lp4616
F1.0
aF1.0
aa(lp4617
F1.0
aF1.0
aa(lp4618
I0
aI0
aa(lp4619
I0
aI0
aa(lp4620
I0
aI0
aa(lp4621
F1.0
aF1.0
aa(lp4622
I0
aI0
aa(lp4623
I0
aI0
aa(lp4624
I0
aI0
aa(lp4625
I0
aI0
aa(lp4626
I0
aI0
aa(lp4627
I0
aI0
aa(lp4628
I0
aI0
aa(lp4629
I0
aI0
aa(lp4630
I0
aI0
aa(lp4631
I0
aI0
aa(lp4632
I0
aI0
aa(lp4633
F1.0
aI0
aa(lp4634
I0
aI0
aa(lp4635
I0
aI0
aa(lp4636
I0
aI0
aa(lp4637
I0
aI0
aa(lp4638
I0
aI0
aa(lp4639
I0
aI0
aa(lp4640
F1.0
aI0
aa(lp4641
I0
aI0
aa(lp4642
I0
aI0
aa(lp4643
F1.0
aF1.0
aa(lp4644
F1.0
aF1.0
aa(lp4645
I0
aI0
aa(lp4646
I0
aI0
aa(lp4647
I0
aI0
aa(lp4648
I0
aI0
aa(lp4649
F1.0
aI0
aa(lp4650
I0
aI0
aa(lp4651
I0
aI0
aa(lp4652
I0
aI0
aa(lp4653
I0
aI0
aa(lp4654
I0
aI0
aa(lp4655
I0
aI0
aa(lp4656
I0
aI0
aa(lp4657
I0
aI0
aa(lp4658
I0
aI0
aa(lp4659
I0
aI0
aa(lp4660
I0
aI0
aa(lp4661
F1.0
aF1.0
aa(lp4662
F1.0
aI0
aa(lp4663
I0
aI0
aa(lp4664
I0
aI0
aa(lp4665
I0
aI0
aa(lp4666
I0
aI0
aa(lp4667
F0.7777777777777777
aF0.6666666666666666
aa(lp4668
F1.0
aF1.0
aa(lp4669
I0
aI0
aa(lp4670
I0
aI0
aa(lp4671
F1.0
aF1.0
aa(lp4672
I0
aI0
aa(lp4673
I0
aI0
aa(lp4674
I0
aI0
aa(lp4675
F1.0
aI0
aa(lp4676
I0
aI0
aa(lp4677
I0
aI0
aa(lp4678
I0
aI0
aa(lp4679
I0
aI0
aa(lp4680
I0
aI0
aa(lp4681
I0
aI0
aa(lp4682
I0
aI0
aa(lp4683
I0
aI0
aa(lp4684
I0
aI0
aa(lp4685
F1.0
aI0
aa(lp4686
F1.0
aI0
aa(lp4687
I0
aI0
aa(lp4688
F1.0
aF1.0
aa(lp4689
I0
aI0
aa(lp4690
I0
aI0
aa(lp4691
I0
aI0
aa(lp4692
F1.0
aF1.0
aa(lp4693
I0
aI0
aa(lp4694
F1.0
aI0
aa(lp4695
I0
aI0
aa(lp4696
I0
aI0
aa(lp4697
I0
aI0
aa(lp4698
I0
aI0
aa(lp4699
I0
aI0
aa(lp4700
I0
aI0
aa(lp4701
I0
aI0
aa(lp4702
I0
aI0
aa(lp4703
I0
aI0
aa(lp4704
I0
aI0
aa(lp4705
I0
aI0
aa(lp4706
F1.0
aI0
aa(lp4707
F0.9259259259259259
aF0.7777777777777778
aa(lp4708
I0
aI0
aa(lp4709
I0
aI0
aa(lp4710
I0
aI0
aa(lp4711
I0
aI0
aa(lp4712
I0
aI0
aa(lp4713
I0
aI0
aa(lp4714
I0
aI0
aa(lp4715
I0
aI0
aa(lp4716
I0
aI0
aa(lp4717
I0
aI0
aa(lp4718
I0
aI0
aa(lp4719
I0
aI0
aa(lp4720
I0
aI0
aa(lp4721
I0
aI0
aa(lp4722
I0
aI0
aa(lp4723
F1.0
aI0
aa(lp4724
I0
aI0
aa(lp4725
I0
aI0
aa(lp4726
F1.0
aI0
aa(lp4727
I0
aI0
aa(lp4728
I0
aI0
aa(lp4729
I0
aI0
aa(lp4730
I0
aI0
aa(lp4731
F1.0
aF1.0
aa(lp4732
I0
aI0
aa(lp4733
I0
aI0
aa(lp4734
I0
aI0
aa(lp4735
I0
aI0
aa(lp4736
F1.0
aI0
aa(lp4737
F1.0
aI0
aa(lp4738
F1.0
aI0
aa(lp4739
I0
aI0
aa(lp4740
F1.0
aI0
aa(lp4741
I0
aI0
aa(lp4742
I0
aI0
aa(lp4743
F1.0
aI0
aa(lp4744
I0
aI0
aa(lp4745
I0
aI0
aa(lp4746
F1.0
aI0
aa(lp4747
F1.0
aI0
aa(lp4748
I0
aI0
aa(lp4749
I0
aI0
aa(lp4750
I0
aI0
aa(lp4751
F1.0
aI0
aa(lp4752
I0
aI0
aa(lp4753
I0
aI0
aa(lp4754
I0
aI0
aa(lp4755
I0
aI0
aa(lp4756
F1.0
aF1.0
aa(lp4757
F1.0
aI0
aa(lp4758
F1.0
aI0
aa(lp4759
I0
aI0
aa(lp4760
I0
aI0
aa(lp4761
I0
aI0
aa(lp4762
I0
aI0
aa(lp4763
I0
aI0
aa(lp4764
F1.0
aF1.0
aa(lp4765
F1.0
aF1.0
aa(lp4766
I0
aI0
aa(lp4767
F0.0
aF0.0
aa(lp4768
I0
aI0
aa(lp4769
F1.0
aF1.0
aa(lp4770
F1.0
aI0
aa(lp4771
F1.0
aI0
aa(lp4772
I0
aI0
aa(lp4773
F1.0
aI0
aa(lp4774
I0
aI0
aa(lp4775
I0
aI0
aa(lp4776
I0
aI0
aa(lp4777
I0
aI0
aa(lp4778
I0
aI0
aa(lp4779
I0
aI0
aa(lp4780
I0
aI0
aa(lp4781
I0
aI0
aa(lp4782
I0
aI0
aa(lp4783
I0
aI0
aa(lp4784
I0
aI0
aa(lp4785
I0
aI0
aa(lp4786
I0
aI0
aa(lp4787
I0
aI0
aa(lp4788
I0
aI0
aa(lp4789
F1.0
aF1.0
aa(lp4790
I0
aI0
aa(lp4791
I0
aI0
aa(lp4792
F1.0
aF1.0
aa(lp4793
I0
aI0
aa(lp4794
I0
aI0
aa(lp4795
I0
aI0
aa(lp4796
I0
aI0
aa(lp4797
I0
aI0
aa(lp4798
I0
aI0
aa(lp4799
F1.0
aI0
aa(lp4800
I0
aI0
aa(lp4801
I0
aI0
aa(lp4802
I0
aI0
aa(lp4803
F1.0
aF1.0
aa(lp4804
F1.0
aF1.0
aa(lp4805
I0
aI0
aa(lp4806
I0
aI0
aa(lp4807
I0
aI0
aa(lp4808
F1.0
aF1.0
aa(lp4809
I0
aI0
aa(lp4810
I0
aI0
aa(lp4811
I0
aI0
aa(lp4812
F1.0
aF1.0
aa(lp4813
I0
aI0
aa(lp4814
I0
aI0
aa(lp4815
I0
aI0
aa(lp4816
I0
aI0
aa(lp4817
I0
aI0
aa(lp4818
I0
aI0
aa(lp4819
F0.8666666666666667
aI0
aa(lp4820
I0
aI0
aa(lp4821
I0
aI0
aa(lp4822
F0.0
aI0
aa(lp4823
F1.0
aF1.0
aa(lp4824
I0
aI0
aa(lp4825
I0
aI0
aa(lp4826
I0
aI0
aa(lp4827
I0
aI0
aa(lp4828
F1.0
aI0
aa(lp4829
I0
aI0
aa(lp4830
I0
aI0
aa(lp4831
I0
aI0
aa(lp4832
F1.0
aI0
aa(lp4833
F1.0
aF1.0
aa(lp4834
F1.0
aI0
aa(lp4835
I0
aI0
aa(lp4836
I0
aI0
aa(lp4837
I0
aI0
aa(lp4838
I0
aI0
aa(lp4839
I0
aI0
aa(lp4840
I0
aI0
aa(lp4841
I0
aI0
aa(lp4842
F1.0
aI0
aa(lp4843
I0
aI0
aa(lp4844
I0
aI0
aa(lp4845
I0
aI0
aa(lp4846
F1.0
aI0
aa(lp4847
I0
aI0
aa(lp4848
I0
aI0
aa(lp4849
F1.0
aF1.0
aa(lp4850
F1.0
aF1.0
aa(lp4851
I0
aI0
aa(lp4852
I0
aI0
aa(lp4853
I0
aI0
aa(lp4854
I0
aI0
aa(lp4855
F1.0
aF1.0
aa(lp4856
F1.0
aF1.0
aa(lp4857
F1.0
aF1.0
aa(lp4858
I0
aI0
aa(lp4859
F1.0
aF1.0
aa(lp4860
F1.0
aI0
aa(lp4861
I0
aI0
aa(lp4862
F1.0
aF0.9555555555555555
aa(lp4863
I0
aI0
aa(lp4864
F1.0
aI0
aa(lp4865
I0
aI0
aa(lp4866
I0
aI0
aa(lp4867
I0
aI0
aa(lp4868
F0.0
aI0
aa(lp4869
F1.0
aF0.8571428571428571
aa(lp4870
F1.0
aI0
aa(lp4871
F0.7692307692307693
aF0.03921568627450981
aa(lp4872
I0
aI0
aa(lp4873
F1.0
aF1.0
aa(lp4874
F1.0
aF1.0
aa(lp4875
I0
aI0
aa(lp4876
F0.5
aI0
aa(lp4877
I0
aI0
aa(lp4878
I0
aI0
aa(lp4879
I0
aI0
aa(lp4880
I0
aI0
aa(lp4881
I0
aI0
aa(lp4882
F1.0
aF1.0
aa(lp4883
I0
aI0
aa(lp4884
I0
aI0
aa(lp4885
I0
aI0
aa(lp4886
I0
aI0
aa(lp4887
I0
aI0
aa(lp4888
I0
aI0
aa(lp4889
I0
aI0
aa(lp4890
I0
aI0
aa(lp4891
I0
aI0
aa(lp4892
I0
aI0
aa(lp4893
F0.0
aF0.0
aa(lp4894
I0
aI0
aa(lp4895
F1.0
aF1.0
aa(lp4896
I0
aI0
aa(lp4897
F1.0
aI0
aa(lp4898
I0
aI0
aa(lp4899
I0
aI0
aa(lp4900
I0
aI0
aa(lp4901
I0
aI0
aa(lp4902
I0
aI0
aa(lp4903
I0
aI0
aa(lp4904
I0
aI0
aa(lp4905
I0
aI0
aa(lp4906
F1.0
aI0
aa(lp4907
F1.0
aF1.0
aa(lp4908
F1.0
aI0
aa(lp4909
F1.0
aF1.0
aa(lp4910
F1.0
aF1.0
aa(lp4911
F1.0
aI0
aa(lp4912
I0
aI0
aa(lp4913
F0.7333333333333334
aF0.6
aa(lp4914
F0.788961038961039
aF0.4480769230769231
aa(lp4915
I0
aI0
aa(lp4916
F1.0
aI0
aa(lp4917
F0.0
aI0
aa(lp4918
F1.0
aI0
aa(lp4919
F1.0
aI0
aa(lp4920
I0
aI0
aa(lp4921
I0
aI0
aa(lp4922
I0
aI0
aa(lp4923
F1.0
aF1.0
aa(lp4924
I0
aI0
aa(lp4925
I0
aI0
aa(lp4926
F0.7409863945578231
aF0.5098214285714285
aa(lp4927
F1.0
aF1.0
aa(lp4928
F1.0
aI0
aa(lp4929
F1.0
aI0
aa(lp4930
I0
aI0
aa(lp4931
I0
aI0
aa(lp4932
I0
aI0
aa(lp4933
I0
aI0
aa(lp4934
F1.0
aI0
aa(lp4935
I0
aI0
aa(lp4936
I0
aI0
aa(lp4937
I0
aI0
aa(lp4938
I0
aI0
aa(lp4939
I0
aI0
aa(lp4940
F1.0
aI0
aa(lp4941
I0
aI0
aa(lp4942
I0
aI0
aa(lp4943
F0.0
aF0.0
aa(lp4944
I0
aI0
aa(lp4945
I0
aI0
aa(lp4946
I0
aI0
aa(lp4947
F1.0
aF1.0
aa(lp4948
I0
aI0
aa(lp4949
I0
aI0
aa(lp4950
I0
aI0
aa(lp4951
I0
aI0
aa(lp4952
F1.0
aF1.0
aa(lp4953
I0
aI0
aa(lp4954
I0
aI0
aa(lp4955
I0
aI0
aa(lp4956
F1.0
aF0.3333333333333333
aa(lp4957
F1.0
aF0.38051282051282054
aa(lp4958
F1.0
aF1.0
aa(lp4959
I0
aI0
aa(lp4960
F1.0
aF1.0
aa(lp4961
I0
aI0
aa(lp4962
I0
aI0
aa(lp4963
I0
aI0
aa(lp4964
I0
aI0
aa(lp4965
I0
aI0
aa(lp4966
F1.0
aF1.0
aa(lp4967
F1.0
aF1.0
aa(lp4968
I0
aI0
aa(lp4969
I0
aI0
aa(lp4970
F1.0
aI0
aa(lp4971
I0
aI0
aa(lp4972
I0
aI0
aa(lp4973
F1.0
aI0
aa(lp4974
F1.0
aF1.0
aa(lp4975
I0
aI0
aa(lp4976
F1.0
aF1.0
aa(lp4977
F1.0
aI0
aa(lp4978
I0
aI0
aa(lp4979
F1.0
aI0
aa(lp4980
I0
aI0
aa(lp4981
F1.0
aF1.0
aa(lp4982
F1.0
aF1.0
aa(lp4983
F0.0
aI0
aa(lp4984
I0
aI0
aa(lp4985
F1.0
aF1.0
aa(lp4986
I0
aI0
aa(lp4987
I0
aI0
aa(lp4988
I0
aI0
aa(lp4989
F1.0
aF1.0
aa(lp4990
F0.0
aI0
aa(lp4991
F1.0
aI0
aa(lp4992
I0
aI0
aa(lp4993
I0
aI0
aa(lp4994
I0
aI0
aa(lp4995
I0
aI0
aa(lp4996
F0.5
aI0
aa(lp4997
I0
aI0
aa(lp4998
F1.0
aF1.0
aa(lp4999
I0
aI0
aa(lp5000
I0
aI0
aa(lp5001
I0
aI0
aa(lp5002
I0
aI0
aa(lp5003
I0
aI0
aa(lp5004
F1.0
aF1.0
aa(lp5005
F1.0
aF1.0
aa(lp5006
F1.0
aI0
aa(lp5007
F1.0
aI0
aa(lp5008
I0
aI0
aa(lp5009
I0
aI0
aa(lp5010
I0
aI0
aa(lp5011
I0
aI0
aa(lp5012
F1.0
aF1.0
aa(lp5013
I0
aI0
aa(lp5014
I0
aI0
aa(lp5015
I0
aI0
aa(lp5016
I0
aI0
aa(lp5017
I0
aI0
aa(lp5018
I0
aI0
aa(lp5019
I0
aI0
aa(lp5020
F1.0
aF1.0
aa(lp5021
I0
aI0
aa(lp5022
F1.0
aI0
aa(lp5023
I0
aI0
aa(lp5024
I0
aI0
aa(lp5025
F1.0
aI0
aa(lp5026
I0
aI0
aa(lp5027
I0
aI0
aa(lp5028
I0
aI0
aa(lp5029
I0
aI0
aa(lp5030
I0
aI0
aa(lp5031
F1.0
aI0
aa(lp5032
I0
aI0
aa(lp5033
I0
aI0
aa(lp5034
I0
aI0
aa(lp5035
F1.0
aI0
aa(lp5036
I0
aI0
aa(lp5037
I0
aI0
aa(lp5038
I0
aI0
aa(lp5039
F1.0
aI0
aa(lp5040
I0
aI0
aa(lp5041
F1.0
aI0
aa(lp5042
I0
aI0
aa(lp5043
F1.0
aF1.0
aa(lp5044
F1.0
aI0
aa(lp5045
I0
aI0
aa(lp5046
I0
aI0
aa(lp5047
I0
aI0
aa(lp5048
I0
aI0
aa(lp5049
I0
aI0
aa(lp5050
I0
aI0
aa(lp5051
I0
aI0
aa(lp5052
F1.0
aI0
aa(lp5053
F1.0
aI0
aa(lp5054
F1.0
aF1.0
aa(lp5055
F0.9649122807017544
aF0.9438596491228071
aa(lp5056
I0
aI0
aa(lp5057
I0
aI0
aa(lp5058
F1.0
aF1.0
aa(lp5059
I0
aI0
aa(lp5060
F1.0
aI0
aa(lp5061
F1.0
aF1.0
aa(lp5062
F1.0
aF1.0
aa(lp5063
I0
aI0
aa(lp5064
I0
aI0
aa(lp5065
F1.0
aI0
aa(lp5066
F1.0
aI0
aa(lp5067
F1.0
aF1.0
aa(lp5068
I0
aI0
aa(lp5069
I0
aI0
aa(lp5070
I0
aI0
aa(lp5071
F1.0
aI0
aa(lp5072
I0
aI0
aa(lp5073
I0
aI0
aa(lp5074
I0
aI0
aa(lp5075
F1.0
aF1.0
aa(lp5076
I0
aI0
aa(lp5077
I0
aI0
aa(lp5078
I0
aI0
aa(lp5079
F1.0
aI0
aa(lp5080
I0
aI0
aa(lp5081
I0
aI0
aa(lp5082
I0
aI0
aa(lp5083
I0
aI0
aa(lp5084
I0
aI0
aa(lp5085
F1.0
aF1.0
aa(lp5086
I0
aI0
aa(lp5087
I0
aI0
aa(lp5088
F1.0
aI0
aa(lp5089
F1.0
aI0
aa(lp5090
I0
aI0
aa(lp5091
I0
aI0
aa(lp5092
I0
aI0
aa(lp5093
I0
aI0
aa(lp5094
I0
aI0
aa(lp5095
I0
aI0
aa(lp5096
I0
aI0
aa(lp5097
I0
aI0
aa(lp5098
I0
aI0
aa(lp5099
I0
aI0
aa(lp5100
I0
aI0
aa(lp5101
F1.0
aI0
aa(lp5102
I0
aI0
aa(lp5103
I0
aI0
aa(lp5104
F0.0
aI0
aa(lp5105
I0
aI0
aa(lp5106
I0
aI0
aa(lp5107
F1.0
aI0
aa(lp5108
F1.0
aF1.0
aa(lp5109
I0
aI0
aa(lp5110
F1.0
aF1.0
aa(lp5111
F0.8666666666666667
aI0
aa(lp5112
I0
aI0
aa(lp5113
I0
aI0
aa(lp5114
I0
aI0
aa(lp5115
F1.0
aI0
aa(lp5116
I0
aI0
aa(lp5117
I0
aI0
aa(lp5118
F1.0
aI0
aa(lp5119
I0
aI0
aa(lp5120
F1.0
aF1.0
aa(lp5121
F1.0
aI0
aa(lp5122
I0
aI0
aa(lp5123
I0
aI0
aa(lp5124
F1.0
aF1.0
aa(lp5125
F1.0
aI0
aa(lp5126
I0
aI0
aa(lp5127
I0
aI0
aa(lp5128
I0
aI0
aa(lp5129
F1.0
aI0
aa(lp5130
I0
aI0
aa(lp5131
I0
aI0
aa(lp5132
I0
aI0
aa(lp5133
F1.0
aF1.0
aa(lp5134
F0.9658119658119659
aF1.0
aa(lp5135
I0
aI0
aa(lp5136
F1.0
aI0
aa(lp5137
I0
aI0
aa(lp5138
I0
aI0
aa(lp5139
F1.0
aF1.0
aa(lp5140
I0
aI0
aa(lp5141
I0
aI0
aa(lp5142
F1.0
aI0
aa(lp5143
I0
aI0
aa(lp5144
I0
aI0
aa(lp5145
I0
aI0
aa(lp5146
I0
aI0
aa(lp5147
I0
aI0
aa(lp5148
I0
aI0
aa(lp5149
I0
aI0
aa(lp5150
I0
aI0
aa(lp5151
F1.0
aI0
aa(lp5152
F0.75
aF0.6666666666666666
aa(lp5153
I0
aI0
aa(lp5154
I0
aI0
aa(lp5155
I0
aI0
aa(lp5156
I0
aI0
aa(lp5157
I0
aI0
aa(lp5158
I0
aI0
aa(lp5159
I0
aI0
aa(lp5160
I0
aI0
aa(lp5161
I0
aI0
aa(lp5162
F1.0
aI0
aa(lp5163
F1.0
aF1.0
aa(lp5164
I0
aI0
aa(lp5165
I0
aI0
aa(lp5166
I0
aI0
aa(lp5167
I0
aI0
aa(lp5168
I0
aI0
aa(lp5169
I0
aI0
aa(lp5170
I0
aI0
aa(lp5171
I0
aI0
aa(lp5172
I0
aI0
aa(lp5173
I0
aI0
aa(lp5174
I0
aI0
aa(lp5175
I0
aI0
aa(lp5176
I0
aI0
aa(lp5177
F1.0
aI0
aa(lp5178
F1.0
aI0
aa(lp5179
I0
aI0
aa(lp5180
I0
aI0
aa(lp5181
I0
aI0
aa(lp5182
I0
aI0
aa(lp5183
I0
aI0
aa(lp5184
F1.0
aI0
aa(lp5185
I0
aI0
aa(lp5186
I0
aI0
aa(lp5187
I0
aI0
aa(lp5188
I0
aI0
aa(lp5189
F1.0
aI0
aa(lp5190
I0
aI0
aa(lp5191
I0
aI0
aa(lp5192
I0
aI0
aa(lp5193
I0
aI0
aa(lp5194
I0
aI0
aa(lp5195
I0
aI0
aa(lp5196
I0
aI0
aa(lp5197
I0
aI0
aa(lp5198
I0
aI0
aa(lp5199
I0
aI0
aa(lp5200
F1.0
aI0
aa(lp5201
I0
aI0
aa(lp5202
I0
aI0
aa(lp5203
F1.0
aF1.0
aa(lp5204
I0
aI0
aa(lp5205
I0
aI0
aa(lp5206
I0
aI0
aa(lp5207
I0
aI0
aa(lp5208
I0
aI0
aa(lp5209
F1.0
aF1.0
aa(lp5210
F0.20714285714285716
aF-0.041666666666666664
aa(lp5211
F1.0
aF1.0
aa(lp5212
I0
aI0
aa(lp5213
I0
aI0
aa(lp5214
I0
aI0
aa(lp5215
I0
aI0
aa(lp5216
I0
aI0
aa(lp5217
I0
aI0
aa(lp5218
F1.0
aF1.0
aa(lp5219
I0
aI0
aa(lp5220
I0
aI0
aa(lp5221
I0
aI0
aa(lp5222
I0
aI0
aa(lp5223
I0
aI0
aa(lp5224
F1.0
aI0
aa(lp5225
I0
aI0
aa(lp5226
F0.0
aI0
aa(lp5227
I0
aI0
aa(lp5228
F1.0
aI0
aa(lp5229
F1.0
aF1.0
aa(lp5230
I0
aI0
aa(lp5231
I0
aI0
aa(lp5232
F1.0
aF1.0
aa(lp5233
I0
aI0
aa(lp5234
I0
aI0
aa(lp5235
F1.0
aI0
aa(lp5236
I0
aI0
aa(lp5237
I0
aI0
aa(lp5238
F0.0
aI0
aa(lp5239
F1.0
aF1.0
aa(lp5240
F1.0
aF1.0
aa(lp5241
I0
aI0
aa(lp5242
I0
aI0
aa(lp5243
I0
aI0
aa(lp5244
I0
aI0
aa(lp5245
F1.0
aF1.0
aa(lp5246
I0
aI0
aa(lp5247
I0
aI0
aa(lp5248
I0
aI0
aa(lp5249
F1.0
aI0
aa(lp5250
F1.0
aF1.0
aa(lp5251
I0
aI0
aa(lp5252
I0
aI0
aa(lp5253
I0
aI0
aa(lp5254
I0
aI0
aa(lp5255
F1.0
aI0
aa(lp5256
I0
aI0
aa(lp5257
I0
aI0
aa(lp5258
I0
aI0
aa(lp5259
I0
aI0
aa(lp5260
I0
aI0
aa(lp5261
I0
aI0
aa(lp5262
I0
aI0
aa(lp5263
I0
aI0
aa(lp5264
F1.0
aF-0.2
aa(lp5265
F1.0
aF1.0
aa(lp5266
I0
aI0
aa(lp5267
F0.9907407407407408
aF1.0
aa(lp5268
I0
aI0
aa(lp5269
I0
aI0
aa(lp5270
F0.0
aI0
aa(lp5271
F1.0
aF1.0
aa(lp5272
I0
aI0
aa(lp5273
F0.8461538461538461
aF0.8461538461538461
aa(lp5274
F1.0
aI0
aa(lp5275
F1.0
aI0
aa(lp5276
I0
aI0
aa(lp5277
I0
aI0
aa(lp5278
I0
aI0
aa(lp5279
F1.0
aI0
aa(lp5280
I0
aI0
aa(lp5281
I0
aI0
aa(lp5282
I0
aI0
aa(lp5283
I0
aI0
aa(lp5284
I0
aI0
aa(lp5285
I0
aI0
aa(lp5286
F1.0
aF1.0
aa(lp5287
I0
aI0
aa(lp5288
I0
aI0
aa(lp5289
I0
aI0
aa(lp5290
F1.0
aI0
aa(lp5291
I0
aI0
aa(lp5292
F1.0
aI0
aa(lp5293
F1.0
aF1.0
aa(lp5294
I0
aI0
aa(lp5295
I0
aI0
aa(lp5296
F1.0
aF1.0
aa(lp5297
I0
aI0
aa(lp5298
I0
aI0
aa(lp5299
I0
aI0
aa(lp5300
I0
aI0
aa(lp5301
I0
aI0
aa(lp5302
I0
aI0
aa(lp5303
I0
aI0
aa(lp5304
I0
aI0
aa(lp5305
I0
aI0
aa(lp5306
I0
aI0
aa(lp5307
I0
aI0
aa(lp5308
I0
aI0
aa(lp5309
I0
aI0
aa(lp5310
I0
aI0
aa(lp5311
I0
aI0
aa(lp5312
F0.9166666666666666
aF0.95
aa(lp5313
F1.0
aI0
aa(lp5314
I0
aI0
aa(lp5315
F1.0
aF1.0
aa(lp5316
F1.0
aF1.0
aa(lp5317
I0
aI0
aa(lp5318
I0
aI0
aa(lp5319
F1.0
aF1.0
aa(lp5320
I0
aI0
aa(lp5321
F1.0
aI0
aa(lp5322
F1.0
aI0
aa(lp5323
F1.0
aF1.0
aa(lp5324
I0
aI0
aa(lp5325
I0
aI0
aa(lp5326
I0
aI0
aa(lp5327
F1.0
aF1.0
aa(lp5328
I0
aI0
aa(lp5329
I0
aI0
aa(lp5330
I0
aI0
aa(lp5331
I0
aI0
aa(lp5332
I0
aI0
aa(lp5333
I0
aI0
aa(lp5334
F0.0
aI0
aa(lp5335
I0
aI0
aa(lp5336
F1.0
aI0
aa(lp5337
F1.0
aF1.0
aa(lp5338
I0
aI0
aa(lp5339
I0
aI0
aa(lp5340
I0
aI0
aa(lp5341
I0
aI0
aa(lp5342
I0
aI0
aa(lp5343
I0
aI0
aa(lp5344
I0
aI0
aa(lp5345
I0
aI0
aa(lp5346
I0
aI0
aa(lp5347
I0
aI0
aa(lp5348
I0
aI0
aa(lp5349
F1.0
aI0
aa(lp5350
I0
aI0
aa(lp5351
F1.0
aI0
aa(lp5352
I0
aI0
aa(lp5353
F1.0
aI0
aa(lp5354
F1.0
aI0
aa(lp5355
F1.0
aF1.0
aa(lp5356
I0
aI0
aa(lp5357
F0.0
aF0.0
aa(lp5358
I0
aI0
aa(lp5359
I0
aI0
aa(lp5360
I0
aI0
aa(lp5361
I0
aI0
aa(lp5362
F1.0
aF1.0
aa(lp5363
I0
aI0
aa(lp5364
F0.8974358974358975
aF0.6923076923076923
aa(lp5365
I0
aI0
aa(lp5366
I0
aI0
aa(lp5367
I0
aI0
aa(lp5368
F0.6
aF0.6
aa(lp5369
I0
aI0
aa(lp5370
I0
aI0
aa(lp5371
F1.0
aF1.0
aa(lp5372
F1.0
aF1.0
aa(lp5373
F1.0
aF1.0
aa(lp5374
F1.0
aF1.0
aa(lp5375
F0.9333333333333332
aF0.8333333333333333
aa(lp5376
F0.5
aF1.0
aa(lp5377
F0.6666666666666666
aI0
aa(lp5378
I0
aI0
aa(lp5379
I0
aI0
aa(lp5380
I0
aI0
aa(lp5381
I0
aI0
aa(lp5382
I0
aI0
aa(lp5383
F1.0
aI0
aa(lp5384
I0
aI0
aa(lp5385
I0
aI0
aa(lp5386
F1.0
aI0
aa(lp5387
I0
aI0
aa(lp5388
F0.9345615624685392
aF0.9317591499409682
aa(lp5389
F0.6666666666666666
aF0.5
aa(lp5390
F1.0
aI0
aa(lp5391
I0
aI0
aa(lp5392
F1.0
aF1.0
aa(lp5393
F0.0
aI0
aa(lp5394
I0
aI0
aa(lp5395
I0
aI0
aa(lp5396
I0
aI0
aa(lp5397
F1.0
aF1.0
aa(lp5398
I0
aI0
aa(lp5399
I0
aI0
aa(lp5400
F1.0
aI0
aa(lp5401
I0
aI0
aa(lp5402
I0
aI0
aa(lp5403
I0
aI0
aa(lp5404
I0
aI0
aa(lp5405
I0
aI0
aa(lp5406
F1.0
aF1.0
aa(lp5407
I0
aI0
aa(lp5408
I0
aI0
aa(lp5409
I0
aI0
aa(lp5410
F1.0
aF1.0
aa(lp5411
I0
aI0
aa(lp5412
I0
aI0
aa(lp5413
I0
aI0
aa(lp5414
I0
aI0
aa(lp5415
F1.0
aI0
aa(lp5416
F1.0
aF1.0
aa(lp5417
I0
aI0
aa(lp5418
F1.0
aF1.0
aa(lp5419
F1.0
aI0
aa(lp5420
F1.0
aF1.0
aa(lp5421
I0
aI0
aa(lp5422
I0
aI0
aa(lp5423
I0
aI0
aa(lp5424
F1.0
aF1.0
aa(lp5425
F1.0
aF1.0
aa(lp5426
I0
aI0
aa(lp5427
F1.0
aI0
aa(lp5428
I0
aI0
aa(lp5429
I0
aI0
aa(lp5430
I0
aI0
aa(lp5431
I0
aI0
aa(lp5432
I0
aI0
aa(lp5433
I0
aI0
aa(lp5434
F1.0
aI0
aa(lp5435
F1.0
aI0
aa(lp5436
F1.0
aI0
aa(lp5437
F1.0
aF1.0
aa(lp5438
I0
aI0
aa(lp5439
I0
aI0
aa(lp5440
I0
aI0
aa(lp5441
F1.0
aF1.0
aa(lp5442
I0
aI0
aa(lp5443
I0
aI0
aa(lp5444
F0.939799331103679
aF1.0
aa(lp5445
F1.0
aF1.0
aa(lp5446
I0
aI0
aa(lp5447
F1.0
aF1.0
aa(lp5448
I0
aI0
aa(lp5449
I0
aI0
aa(lp5450
I0
aI0
aa(lp5451
F1.0
aI0
aa(lp5452
I0
aI0
aa(lp5453
I0
aI0
aa(lp5454
I0
aI0
aa(lp5455
F1.0
aI0
aa(lp5456
F1.0
aF1.0
aa(lp5457
F1.0
aI0
aa(lp5458
I0
aI0
aa(lp5459
I0
aI0
aa(lp5460
F1.0
aI0
aa(lp5461
I0
aI0
aa(lp5462
F1.0
aI0
aa(lp5463
F1.0
aI0
aa(lp5464
I0
aI0
aa(lp5465
F1.0
aF1.0
aa(lp5466
I0
aI0
aa(lp5467
I0
aI0
aa(lp5468
F1.0
aI0
aa(lp5469
I0
aI0
aa(lp5470
I0
aI0
aa(lp5471
F1.0
aF1.0
aa(lp5472
F1.0
aI0
aa(lp5473
I0
aI0
aa(lp5474
I0
aI0
aa(lp5475
I0
aI0
aa(lp5476
I0
aI0
aa(lp5477
I0
aI0
aa(lp5478
I0
aI0
aa(lp5479
I0
aI0
aa(lp5480
F1.0
aF1.0
aa(lp5481
I0
aI0
aa(lp5482
I0
aI0
aa(lp5483
I0
aI0
aa(lp5484
I0
aI0
aa(lp5485
F1.0
aF1.0
aa(lp5486
I0
aI0
aa(lp5487
I0
aI0
aa(lp5488
F1.0
aI0
aa(lp5489
I0
aI0
aa(lp5490
F0.0
aI0
aa(lp5491
I0
aI0
aa(lp5492
I0
aI0
aa(lp5493
I0
aI0
aa(lp5494
I0
aI0
aa(lp5495
I0
aI0
aa(lp5496
F1.0
aI0
aa(lp5497
I0
aI0
aa(lp5498
F1.0
aF1.0
aa(lp5499
F0.0
aF0.0
aa(lp5500
I0
aI0
aa(lp5501
I0
aI0
aa(lp5502
I0
aI0
aa(lp5503
F1.0
aF1.0
aa(lp5504
I0
aI0
aa(lp5505
I0
aI0
aa(lp5506
I0
aI0
aa(lp5507
F1.0
aI0
aa(lp5508
I0
aI0
aa(lp5509
I0
aI0
aa(lp5510
I0
aI0
aa(lp5511
I0
aI0
aa(lp5512
F1.0
aF1.0
aa(lp5513
F1.0
aI0
aa(lp5514
I0
aI0
aa(lp5515
F1.0
aI0
aa(lp5516
F1.0
aI0
aa(lp5517
I0
aI0
aa(lp5518
I0
aI0
aa(lp5519
I0
aI0
aa(lp5520
F0.9166666666666666
aF0.8333333333333333
aa(lp5521
I0
aI0
aa(lp5522
F1.0
aF1.0
aa(lp5523
I0
aI0
aa(lp5524
F1.0
aI0
aa(lp5525
F1.0
aF1.0
aa(lp5526
F0.0
aF0.0
aa(lp5527
I0
aI0
aa(lp5528
I0
aI0
aa(lp5529
I0
aI0
aa(lp5530
I0
aI0
aa(lp5531
I0
aI0
aa(lp5532
I0
aI0
aa(lp5533
I0
aI0
aa(lp5534
I0
aI0
aa(lp5535
F1.0
aI0
aa(lp5536
I0
aI0
aa(lp5537
I0
aI0
aa(lp5538
F1.0
aF1.0
aa(lp5539
I0
aI0
aa(lp5540
I0
aI0
aa(lp5541
I0
aI0
aa(lp5542
F1.0
aI0
aa(lp5543
I0
aI0
aa(lp5544
F1.0
aI0
aa(lp5545
I0
aI0
aa(lp5546
F1.0
aF1.0
aa(lp5547
I0
aI0
aa(lp5548
I0
aI0
aa(lp5549
F1.0
aF1.0
aa(lp5550
F1.0
aF1.0
aa(lp5551
I0
aI0
aa(lp5552
F0.9285714285714286
aF0.8571428571428572
aa(lp5553
F1.0
aF0.7777777777777778
aa(lp5554
F1.0
aI0
aa(lp5555
I0
aI0
aa(lp5556
F1.0
aI0
aa(lp5557
F1.0
aF1.0
aa(lp5558
F1.0
aF1.0
aa(lp5559
I0
aI0
aa(lp5560
I0
aI0
aa(lp5561
F0.9595959595959597
aF0.9272727272727274
aa(lp5562
I0
aI0
aa(lp5563
I0
aI0
aa(lp5564
I0
aI0
aa(lp5565
I0
aI0
aa(lp5566
I0
aI0
aa(lp5567
I0
aI0
aa(lp5568
I0
aI0
aa(lp5569
I0
aI0
aa(lp5570
I0
aI0
aa(lp5571
I0
aI0
aa(lp5572
F1.0
aI0
aa(lp5573
I0
aI0
aa(lp5574
I0
aI0
aa(lp5575
I0
aI0
aa(lp5576
F1.0
aI0
aa(lp5577
I0
aI0
aa(lp5578
I0
aI0
aa(lp5579
I0
aI0
aa(lp5580
I0
aI0
aa(lp5581
F1.0
aF1.0
aa(lp5582
I0
aI0
aa(lp5583
I0
aI0
aa(lp5584
I0
aI0
aa(lp5585
I0
aI0
aa(lp5586
F1.0
aF1.0
aa(lp5587
I0
aI0
aa(lp5588
F0.9
aF0.8
aa(lp5589
I0
aI0
aa(lp5590
I0
aI0
aa(lp5591
I0
aI0
aa(lp5592
F1.0
aF1.0
aa(lp5593
I0
aI0
aa(lp5594
I0
aI0
aa(lp5595
I0
aI0
aa(lp5596
I0
aI0
aa(lp5597
I0
aI0
aa(lp5598
I0
aI0
aa(lp5599
F1.0
aI0
aa(lp5600
I0
aI0
aa(lp5601
I0
aI0
aa(lp5602
F1.0
aF1.0
aa(lp5603
F1.0
aF1.0
aa(lp5604
I0
aI0
aa(lp5605
I0
aI0
aa(lp5606
I0
aI0
aa(lp5607
I0
aI0
aa(lp5608
F1.0
aF1.0
aa(lp5609
I0
aI0
aa(lp5610
I0
aI0
aa(lp5611
I0
aI0
aa(lp5612
F1.0
aF0.6651162790697674
aa(lp5613
I0
aI0
aa(lp5614
F0.9118773946360152
aF0.1111111111111111
aa(lp5615
F1.0
aI0
aa(lp5616
F0.0
aF0.0
aa(lp5617
F1.0
aI0
aa(lp5618
F1.0
aI0
aa(lp5619
F1.0
aF1.0
aa(lp5620
I0
aI0
aa(lp5621
I0
aI0
aa(lp5622
I0
aI0
aa(lp5623
I0
aI0
aa(lp5624
I0
aI0
aa(lp5625
F1.0
aI0
aa(lp5626
I0
aI0
aa(lp5627
I0
aI0
aa(lp5628
F1.0
aF1.0
aa(lp5629
I0
aI0
aa(lp5630
I0
aI0
aa(lp5631
I0
aI0
aa(lp5632
F1.0
aF1.0
aa(lp5633
I0
aI0
aa(lp5634
I0
aI0
aa(lp5635
F0.5
aF0.5
aa(lp5636
I0
aI0
aa(lp5637
I0
aI0
aa(lp5638
F0.0
aF0.0
aa(lp5639
I0
aI0
aa(lp5640
F1.0
aI0
aa(lp5641
I0
aI0
aa(lp5642
I0
aI0
aa(lp5643
F1.0
aI0
aa(lp5644
I0
aI0
aa(lp5645
I0
aI0
aa(lp5646
F0.7777777777777778
aF0.7777777777777778
aa(lp5647
I0
aI0
aa(lp5648
I0
aI0
aa(lp5649
I0
aI0
aa(lp5650
I0
aI0
aa(lp5651
I0
aI0
aa(lp5652
I0
aI0
aa(lp5653
F1.0
aI0
aa(lp5654
I0
aI0
aa(lp5655
F1.0
aI0
aa(lp5656
I0
aI0
aa(lp5657
I0
aI0
aa(lp5658
I0
aI0
aa(lp5659
F1.0
aI0
aa(lp5660
F1.0
aI0
aa(lp5661
F1.0
aF1.0
aa(lp5662
F1.0
aI0
aa(lp5663
I0
aI0
aa(lp5664
I0
aI0
aa(lp5665
I0
aI0
aa(lp5666
I0
aI0
aa(lp5667
I0
aI0
aa(lp5668
I0
aI0
aa(lp5669
F1.0
aI0
aa(lp5670
F1.0
aF1.0
aa(lp5671
F1.0
aI0
aa(lp5672
I0
aI0
aa(lp5673
I0
aI0
aa(lp5674
F1.0
aI0
aa(lp5675
I0
aI0
aa(lp5676
I0
aI0
aa(lp5677
F1.0
aI0
aa(lp5678
I0
aI0
aa(lp5679
I0
aI0
aa(lp5680
I0
aI0
aa(lp5681
I0
aI0
aa(lp5682
I0
aI0
aa(lp5683
I0
aI0
aa(lp5684
F1.0
aI0
aa(lp5685
I0
aI0
aa(lp5686
I0
aI0
aa(lp5687
I0
aI0
aa(lp5688
I0
aI0
aa(lp5689
F1.0
aF1.0
aa(lp5690
I0
aI0
aa(lp5691
I0
aI0
aa(lp5692
F1.0
aI0
aa(lp5693
I0
aI0
aa(lp5694
F1.0
aI0
aa(lp5695
I0
aI0
aa(lp5696
I0
aI0
aa(lp5697
I0
aI0
aa(lp5698
I0
aI0
aa(lp5699
F1.0
aF1.0
aa(lp5700
I0
aI0
aa(lp5701
I0
aI0
aa(lp5702
I0
aI0
aa(lp5703
I0
aI0
aa(lp5704
F1.0
aI0
aa(lp5705
I0
aI0
aa(lp5706
I0
aI0
aa(lp5707
I0
aI0
aa(lp5708
I0
aI0
aa(lp5709
I0
aI0
aa(lp5710
I0
aI0
aa(lp5711
I0
aI0
aa(lp5712
I0
aI0
aa(lp5713
I0
aI0
aa(lp5714
I0
aI0
aa(lp5715
I0
aI0
aa(lp5716
I0
aI0
aa(lp5717
F1.0
aF1.0
aa(lp5718
F1.0
aI0
aa(lp5719
I0
aI0
aa(lp5720
I0
aI0
aa(lp5721
F1.0
aI0
aa(lp5722
I0
aI0
aa(lp5723
F0.9076923076923077
aF0.8461538461538461
aa(lp5724
I0
aI0
aa(lp5725
I0
aI0
aa(lp5726
I0
aI0
aa(lp5727
F1.0
aF1.0
aa(lp5728
I0
aI0
aa(lp5729
I0
aI0
aa(lp5730
F0.8
aF0.47692307692307695
aa(lp5731
I0
aI0
aa(lp5732
I0
aI0
aa(lp5733
F1.0
aF1.0
aa(lp5734
I0
aI0
aa(lp5735
F1.0
aF0.7777777777777777
aa(lp5736
I0
aI0
aa(lp5737
I0
aI0
aa(lp5738
I0
aI0
aa(lp5739
F1.0
aF1.0
aa(lp5740
I0
aI0
aa(lp5741
F1.0
aI0
aa(lp5742
I0
aI0
aa(lp5743
I0
aI0
aa(lp5744
I0
aI0
aa(lp5745
F1.0
aI0
aa(lp5746
I0
aI0
aa(lp5747
I0
aI0
aa(lp5748
I0
aI0
aa(lp5749
F0.0
aI0
aa(lp5750
I0
aI0
aa(lp5751
F1.0
aF1.0
aa(lp5752
I0
aI0
aa(lp5753
F1.0
aI0
aa(lp5754
I0
aI0
aa(lp5755
F1.0
aF1.0
aa(lp5756
F1.0
aI0
aa(lp5757
I0
aI0
aa(lp5758
I0
aI0
aa(lp5759
F1.0
aF1.0
aa(lp5760
I0
aI0
aa(lp5761
I0
aI0
aa(lp5762
I0
aI0
aa(lp5763
I0
aI0
aa(lp5764
I0
aI0
aa(lp5765
F1.0
aI0
aa(lp5766
I0
aI0
aa(lp5767
I0
aI0
aa(lp5768
I0
aI0
aa(lp5769
F1.0
aF1.0
aa(lp5770
I0
aI0
aa(lp5771
F1.0
aI0
aa(lp5772
I0
aI0
aa(lp5773
I0
aI0
aa(lp5774
F1.0
aF1.0
aa(lp5775
I0
aI0
aa(lp5776
I0
aI0
aa(lp5777
I0
aI0
aa(lp5778
I0
aI0
aa(lp5779
I0
aI0
aa(lp5780
F1.0
aI0
aa(lp5781
I0
aI0
aa(lp5782
I0
aI0
aa(lp5783
I0
aI0
aa(lp5784
I0
aI0
aa(lp5785
I0
aI0
aa(lp5786
I0
aI0
aa(lp5787
F1.0
aI0
aa(lp5788
I0
aI0
aa(lp5789
F1.0
aI0
aa(lp5790
F1.0
aI0
aa(lp5791
F1.0
aI0
aa(lp5792
F1.0
aI0
aa(lp5793
F1.0
aF1.0
aa(lp5794
I0
aI0
aa(lp5795
F1.0
aF1.0
aa(lp5796
F1.0
aI0
aa(lp5797
I0
aI0
aa(lp5798
I0
aI0
aa(lp5799
I0
aI0
aa(lp5800
I0
aI0
aa(lp5801
F1.0
aF1.0
aa(lp5802
I0
aI0
aa(lp5803
I0
aI0
aa(lp5804
I0
aI0
aa(lp5805
I0
aI0
aa(lp5806
F1.0
aI0
aa(lp5807
I0
aI0
aa(lp5808
I0
aI0
aa(lp5809
I0
aI0
aa(lp5810
I0
aI0
aa(lp5811
I0
aI0
aa(lp5812
F1.0
aF1.0
aa(lp5813
I0
aI0
aa(lp5814
F0.0
aI0
aa(lp5815
I0
aI0
aa(lp5816
I0
aI0
aa(lp5817
F0.0
aF0.0
aa(lp5818
I0
aI0
aa(lp5819
I0
aI0
aa(lp5820
F1.0
aF1.0
aa(lp5821
I0
aI0
aa(lp5822
I0
aI0
aa(lp5823
I0
aI0
aa(lp5824
I0
aI0
aa(lp5825
I0
aI0
aa(lp5826
I0
aI0
aa(lp5827
F1.0
aF1.0
aa(lp5828
I0
aI0
aa(lp5829
I0
aI0
aa(lp5830
I0
aI0
aa(lp5831
I0
aI0
aa(lp5832
F1.0
aI0
aa(lp5833
I0
aI0
aa(lp5834
I0
aI0
aa(lp5835
I0
aI0
aa(lp5836
F1.0
aF1.0
aa(lp5837
F1.0
aI0
aa(lp5838
I0
aI0
aa(lp5839
F1.0
aI0
aa(lp5840
F1.0
aF1.0
aa(lp5841
F1.0
aI0
aa(lp5842
I0
aI0
aa(lp5843
F1.0
aF1.0
aa(lp5844
I0
aI0
aa(lp5845
F1.0
aF1.0
aa(lp5846
I0
aI0
aa(lp5847
F1.0
aF1.0
aa(lp5848
F0.9638009049773757
aF0.7948717948717948
aa(lp5849
I0
aI0
aa(lp5850
F1.0
aF1.0
aa(lp5851
I0
aI0
aa(lp5852
F1.0
aF1.0
aa(lp5853
I0
aI0
aa(lp5854
F1.0
aF1.0
aa(lp5855
F1.0
aF1.0
aa(lp5856
I0
aI0
aa(lp5857
I0
aI0
aa(lp5858
I0
aI0
aa(lp5859
I0
aI0
aa(lp5860
I0
aI0
aa(lp5861
I0
aI0
aa(lp5862
I0
aI0
aa(lp5863
I0
aI0
aa(lp5864
I0
aI0
aa(lp5865
I0
aI0
aa(lp5866
I0
aI0
aa(lp5867
I0
aI0
aa(lp5868
I0
aI0
aa(lp5869
I0
aI0
aa(lp5870
I0
aI0
aa(lp5871
I0
aI0
aa(lp5872
I0
aI0
aa(lp5873
I0
aI0
aa(lp5874
I0
aI0
aa(lp5875
I0
aI0
aa(lp5876
I0
aI0
aa(lp5877
F1.0
aF1.0
aa(lp5878
F1.0
aF1.0
aa(lp5879
I0
aI0
aa(lp5880
F0.0
aI0
aa(lp5881
F1.0
aI0
aa(lp5882
F1.0
aF1.0
aa(lp5883
F1.0
aF1.0
aa(lp5884
F1.0
aI0
aa(lp5885
I0
aI0
aa(lp5886
I0
aI0
aa(lp5887
I0
aI0
aa(lp5888
I0
aI0
aa(lp5889
I0
aI0
aa(lp5890
I0
aI0
aa(lp5891
I0
aI0
aa(lp5892
I0
aI0
aa(lp5893
I0
aI0
aa(lp5894
I0
aI0
aa(lp5895
I0
aI0
aa(lp5896
F1.0
aF1.0
aa(lp5897
F1.0
aF1.0
aa(lp5898
I0
aI0
aa(lp5899
F0.0
aF0.0
aa(lp5900
I0
aI0
aa(lp5901
I0
aI0
aa(lp5902
I0
aI0
aa(lp5903
I0
aI0
aa(lp5904
I0
aI0
aa(lp5905
I0
aI0
aa(lp5906
I0
aI0
aa(lp5907
I0
aI0
aa(lp5908
I0
aI0
aa(lp5909
I0
aI0
aa(lp5910
F1.0
aF1.0
aa(lp5911
I0
aI0
aa(lp5912
I0
aI0
aa(lp5913
I0
aI0
aa(lp5914
I0
aI0
aa(lp5915
I0
aI0
aa(lp5916
I0
aI0
aa(lp5917
I0
aI0
aa(lp5918
I0
aI0
aa(lp5919
F0.0
aF0.0
aa(lp5920
F1.0
aI0
aa(lp5921
I0
aI0
aa(lp5922
I0
aI0
aa(lp5923
F1.0
aF1.0
aa(lp5924
F1.0
aF1.0
aa(lp5925
F1.0
aF1.0
aa(lp5926
I0
aI0
aa(lp5927
I0
aI0
aa(lp5928
F1.0
aF1.0
aa(lp5929
F0.9444444444444444
aF0.9444444444444444
aa(lp5930
I0
aI0
aa(lp5931
I0
aI0
aa(lp5932
I0
aI0
aa(lp5933
F1.0
aF1.0
aa(lp5934
F0.9285714285714286
aF0.8857142857142858
aa(lp5935
I0
aI0
aa(lp5936
F1.0
aF1.0
aa(lp5937
F1.0
aI0
aa(lp5938
I0
aI0
aa(lp5939
I0
aI0
aa(lp5940
I0
aI0
aa(lp5941
I0
aI0
aa(lp5942
F1.0
aF1.0
aa(lp5943
F1.0
aF1.0
aa(lp5944
I0
aI0
aa(lp5945
I0
aI0
aa(lp5946
I0
aI0
aa(lp5947
I0
aI0
aa(lp5948
I0
aI0
aa(lp5949
F1.0
aF1.0
aa(lp5950
I0
aI0
aa(lp5951
I0
aI0
aa(lp5952
F1.0
aI0
aa(lp5953
I0
aI0
aa(lp5954
F1.0
aI0
aa(lp5955
I0
aI0
aa(lp5956
I0
aI0
aa(lp5957
F1.0
aF1.0
aa(lp5958
F1.0
aF1.0
aa(lp5959
I0
aI0
aa(lp5960
I0
aI0
aa(lp5961
I0
aI0
aa(lp5962
F1.0
aF1.0
aa(lp5963
F1.0
aI0
aa(lp5964
F1.0
aI0
aa(lp5965
I0
aI0
aa(lp5966
I0
aI0
aa(lp5967
I0
aI0
aa(lp5968
I0
aI0
aa(lp5969
F1.0
aI0
aa(lp5970
I0
aI0
aa(lp5971
I0
aI0
aa(lp5972
F1.0
aF1.0
aa(lp5973
I0
aI0
aa(lp5974
I0
aI0
aa(lp5975
I0
aI0
aa(lp5976
I0
aI0
aa(lp5977
F1.0
aI0
aa(lp5978
I0
aI0
aa(lp5979
I0
aI0
aa(lp5980
F1.0
aI0
aa(lp5981
I0
aI0
aa(lp5982
F1.0
aI0
aa(lp5983
I0
aI0
aa(lp5984
I0
aI0
aa(lp5985
F1.0
aI0
aa(lp5986
F1.0
aI0
aa(lp5987
I0
aI0
aa(lp5988
F1.0
aI0
aa(lp5989
I0
aI0
aa(lp5990
F1.0
aI0
aa(lp5991
I0
aI0
aa(lp5992
F1.0
aF1.0
aa(lp5993
F1.0
aF1.0
aa(lp5994
I0
aI0
aa(lp5995
I0
aI0
aa(lp5996
I0
aI0
aa(lp5997
F1.0
aI0
aa(lp5998
I0
aI0
aa(lp5999
I0
aI0
aa(lp6000
F1.0
aI0
aa(lp6001
I0
aI0
aa(lp6002
I0
aI0
aa(lp6003
F1.0
aI0
aa(lp6004
F1.0
aF1.0
aa(lp6005
I0
aI0
aa(lp6006
I0
aI0
aa(lp6007
F1.0
aF1.0
aa(lp6008
I0
aI0
aa(lp6009
I0
aI0
aa(lp6010
I0
aI0
aa(lp6011
I0
aI0
aa(lp6012
I0
aI0
aa(lp6013
F1.0
aI0
aa(lp6014
I0
aI0
aa(lp6015
I0
aI0
aa(lp6016
I0
aI0
aa(lp6017
I0
aI0
aa(lp6018
I0
aI0
aa(lp6019
I0
aI0
aa(lp6020
F1.0
aI0
aa(lp6021
I0
aI0
aa(lp6022
I0
aI0
aa(lp6023
F0.2857142857142857
aF0.4
aa(lp6024
F1.0
aF1.0
aa(lp6025
I0
aI0
aa(lp6026
F0.42857142857142855
aF0.4
aa(lp6027
I0
aI0
aa(lp6028
I0
aI0
aa(lp6029
F1.0
aF1.0
aa(lp6030
I0
aI0
aa(lp6031
F1.0
aF1.0
aa(lp6032
I0
aI0
aa(lp6033
I0
aI0
aa(lp6034
I0
aI0
aa(lp6035
I0
aI0
aa(lp6036
I0
aI0
aa(lp6037
I0
aI0
aa(lp6038
F1.0
aI0
aa(lp6039
I0
aI0
aa(lp6040
I0
aI0
aa(lp6041
I0
aI0
aa(lp6042
I0
aI0
aa(lp6043
I0
aI0
aa(lp6044
I0
aI0
aa(lp6045
F1.0
aI0
aa(lp6046
I0
aI0
aa(lp6047
I0
aI0
aa(lp6048
I0
aI0
aa(lp6049
I0
aI0
aa(lp6050
I0
aI0
aa(lp6051
I0
aI0
aa(lp6052
F1.0
aI0
aa(lp6053
F0.0
aI0
aa(lp6054
I0
aI0
aa(lp6055
I0
aI0
aa(lp6056
I0
aI0
aa(lp6057
I0
aI0
aa(lp6058
F1.0
aI0
aa(lp6059
I0
aI0
aa(lp6060
I0
aI0
aa(lp6061
I0
aI0
aa(lp6062
I0
aI0
aa(lp6063
I0
aI0
aa(lp6064
I0
aI0
aa(lp6065
F1.0
aI0
aa(lp6066
I0
aI0
aa(lp6067
I0
aI0
aa(lp6068
F1.0
aI0
aa(lp6069
I0
aI0
aa(lp6070
F1.0
aF1.0
aa(lp6071
I0
aI0
aa(lp6072
I0
aI0
aa(lp6073
I0
aI0
aa(lp6074
I0
aI0
aa(lp6075
I0
aI0
aa(lp6076
F1.0
aF1.0
aa(lp6077
F1.0
aF1.0
aa(lp6078
F1.0
aF1.0
aa(lp6079
I0
aI0
aa(lp6080
I0
aI0
aa(lp6081
F1.0
aI0
aa(lp6082
F1.0
aI0
aa(lp6083
F1.0
aF1.0
aa(lp6084
F1.0
aI0
aa(lp6085
I0
aI0
aa(lp6086
F1.0
aI0
aa(lp6087
I0
aI0
aa(lp6088
I0
aI0
aa(lp6089
I0
aI0
aa(lp6090
I0
aI0
aa(lp6091
I0
aI0
aa(lp6092
I0
aI0
aa(lp6093
F1.0
aI0
aa(lp6094
I0
aI0
aa(lp6095
I0
aI0
aa(lp6096
I0
aI0
aa(lp6097
I0
aI0
aa(lp6098
I0
aI0
aa(lp6099
I0
aI0
aa(lp6100
I0
aI0
aa(lp6101
F1.0
aI0
aa(lp6102
I0
aI0
aa(lp6103
I0
aI0
aa(lp6104
I0
aI0
aa(lp6105
F1.0
aF1.0
aa(lp6106
F1.0
aF1.0
aa(lp6107
I0
aI0
aa(lp6108
I0
aI0
aa(lp6109
I0
aI0
aa(lp6110
I0
aI0
aa(lp6111
I0
aI0
aa(lp6112
F1.0
aF1.0
aa(lp6113
I0
aI0
aa(lp6114
I0
aI0
aa(lp6115
I0
aI0
aa(lp6116
I0
aI0
aa(lp6117
F1.0
aI0
aa(lp6118
I0
aI0
aa(lp6119
F0.9841897233201581
aF0.9
aa(lp6120
I0
aI0
aa(lp6121
I0
aI0
aa(lp6122
I0
aI0
aa(lp6123
I0
aI0
aa(lp6124
I0
aI0
aa(lp6125
I0
aI0
aa(lp6126
I0
aI0
aa(lp6127
F0.0
aI0
aa(lp6128
I0
aI0
aa(lp6129
F1.0
aI0
aa(lp6130
I0
aI0
aa(lp6131
I0
aI0
aa(lp6132
F1.0
aI0
aa(lp6133
I0
aI0
aa(lp6134
I0
aI0
aa(lp6135
I0
aI0
aa(lp6136
I0
aI0
aa(lp6137
I0
aI0
aa(lp6138
F1.0
aI0
aa(lp6139
F1.0
aI0
aa(lp6140
I0
aI0
aa(lp6141
I0
aI0
aa(lp6142
I0
aI0
aa(lp6143
F1.0
aI0
aa(lp6144
I0
aI0
aa(lp6145
I0
aI0
aa(lp6146
I0
aI0
aa(lp6147
I0
aI0
aa(lp6148
I0
aI0
aa(lp6149
I0
aI0
aa(lp6150
I0
aI0
aa(lp6151
F1.0
aF1.0
aa(lp6152
I0
aI0
aa(lp6153
I0
aI0
aa(lp6154
F1.0
aI0
aa(lp6155
F1.0
aI0
aa(lp6156
I0
aI0
aa(lp6157
I0
aI0
aa(lp6158
I0
aI0
aa(lp6159
F1.0
aF1.0
aa(lp6160
I0
aI0
aa(lp6161
I0
aI0
aa(lp6162
F1.0
aF1.0
aa(lp6163
F0.0
aF0.0
aa(lp6164
F1.0
aF1.0
aa(lp6165
I0
aI0
aa(lp6166
F1.0
aF1.0
aa(lp6167
F1.0
aF1.0
aa(lp6168
I0
aI0
aa(lp6169
I0
aI0
aa(lp6170
F1.0
aI0
aa(lp6171
I0
aI0
aa(lp6172
F1.0
aF1.0
aa(lp6173
I0
aI0
aa(lp6174
I0
aI0
aa(lp6175
I0
aI0
aa(lp6176
F1.0
aI0
aa(lp6177
I0
aI0
aa(lp6178
I0
aI0
aa(lp6179
I0
aI0
aa(lp6180
F1.0
aI0
aa(lp6181
I0
aI0
aa(lp6182
I0
aI0
aa(lp6183
I0
aI0
aa(lp6184
I0
aI0
aa(lp6185
F1.0
aF1.0
aa(lp6186
F1.0
aI0
aa(lp6187
I0
aI0
aa(lp6188
F1.0
aI0
aa(lp6189
I0
aI0
aa(lp6190
I0
aI0
aa(lp6191
I0
aI0
aa(lp6192
I0
aI0
aa(lp6193
F1.0
aF1.0
aa(lp6194
I0
aI0
aa(lp6195
I0
aI0
aa(lp6196
I0
aI0
aa(lp6197
I0
aI0
aa(lp6198
I0
aI0
aa(lp6199
I0
aI0
aa(lp6200
I0
aI0
aa(lp6201
I0
aI0
aa(lp6202
I0
aI0
aa(lp6203
F1.0
aI0
aa(lp6204
I0
aI0
aa(lp6205
F1.0
aI0
aa(lp6206
F0.0
aI0
aa(lp6207
I0
aI0
aa(lp6208
I0
aI0
aa(lp6209
I0
aI0
aa(lp6210
I0
aI0
aa(lp6211
F1.0
aI0
aa(lp6212
F1.0
aF1.0
aa(lp6213
F1.0
aI0
aa(lp6214
I0
aI0
aa(lp6215
I0
aI0
aa(lp6216
I0
aI0
aa(lp6217
F1.0
aF1.0
aa(lp6218
I0
aI0
aa(lp6219
I0
aI0
aa(lp6220
I0
aI0
aa(lp6221
I0
aI0
aa(lp6222
I0
aI0
aa(lp6223
I0
aI0
aa(lp6224
I0
aI0
aa(lp6225
I0
aI0
aa(lp6226
F1.0
aF1.0
aa(lp6227
F1.0
aI0
aa(lp6228
F1.0
aI0
aa(lp6229
I0
aI0
aa(lp6230
I0
aI0
aa(lp6231
I0
aI0
aa(lp6232
I0
aI0
aa(lp6233
I0
aI0
aa(lp6234
I0
aI0
aa(lp6235
I0
aI0
aa(lp6236
I0
aI0
aa(lp6237
I0
aI0
aa(lp6238
I0
aI0
aa(lp6239
F1.0
aF1.0
aa(lp6240
F1.0
aI0
aa(lp6241
F0.0
aF0.0
aa(lp6242
F1.0
aI0
aa(lp6243
I0
aI0
aa(lp6244
I0
aI0
aa(lp6245
I0
aI0
aa(lp6246
I0
aI0
aa(lp6247
F1.0
aI0
aa(lp6248
I0
aI0
aa(lp6249
I0
aI0
aa(lp6250
F1.0
aI0
aa(lp6251
I0
aI0
aa(lp6252
I0
aI0
aa(lp6253
F1.0
aF1.0
aa(lp6254
I0
aI0
aa(lp6255
I0
aI0
aa(lp6256
I0
aI0
aa(lp6257
I0
aI0
aa(lp6258
I0
aI0
aa(lp6259
F1.0
aF1.0
aa(lp6260
I0
aI0
aa(lp6261
I0
aI0
aa(lp6262
F1.0
aI0
aa(lp6263
I0
aI0
aa(lp6264
I0
aI0
aa(lp6265
I0
aI0
aa(lp6266
F1.0
aI0
aa(lp6267
F1.0
aI0
aa(lp6268
F1.0
aF1.0
aa(lp6269
F1.0
aI0
aa(lp6270
I0
aI0
aa(lp6271
I0
aI0
aa(lp6272
I0
aI0
aa(lp6273
I0
aI0
aa(lp6274
I0
aI0
aa(lp6275
I0
aI0
aa(lp6276
I0
aI0
aa(lp6277
I0
aI0
aa(lp6278
I0
aI0
aa(lp6279
I0
aI0
aa(lp6280
I0
aI0
aa(lp6281
I0
aI0
aa(lp6282
I0
aI0
aa(lp6283
I0
aI0
aa(lp6284
F0.0
aF0.0
aa(lp6285
F1.0
aI0
aa(lp6286
I0
aI0
aa(lp6287
I0
aI0
aa(lp6288
I0
aI0
aa(lp6289
I0
aI0
aa(lp6290
I0
aI0
aa(lp6291
I0
aI0
aa(lp6292
I0
aI0
aa(lp6293
F1.0
aI0
aa(lp6294
I0
aI0
aa(lp6295
I0
aI0
aa(lp6296
I0
aI0
aa(lp6297
I0
aI0
aa(lp6298
I0
aI0
aa(lp6299
I0
aI0
aa(lp6300
F1.0
aF1.0
aa(lp6301
I0
aI0
aa(lp6302
I0
aI0
aa(lp6303
I0
aI0
aa(lp6304
I0
aI0
aa(lp6305
I0
aI0
aa(lp6306
I0
aI0
aa(lp6307
I0
aI0
aa(lp6308
I0
aI0
aa(lp6309
F1.0
aI0
aa(lp6310
I0
aI0
aa(lp6311
I0
aI0
aa(lp6312
I0
aI0
aa(lp6313
I0
aI0
aa(lp6314
I0
aI0
aa(lp6315
I0
aI0
aa(lp6316
I0
aI0
aa(lp6317
I0
aI0
aa(lp6318
I0
aI0
aa(lp6319
I0
aI0
aa(lp6320
F0.0
aF0.0
aa(lp6321
I0
aI0
aa(lp6322
I0
aI0
aa(lp6323
F1.0
aI0
aa(lp6324
F1.0
aF1.0
aa(lp6325
I0
aI0
aa(lp6326
F1.0
aF1.0
aa(lp6327
F1.0
aF1.0
aa(lp6328
I0
aI0
aa(lp6329
I0
aI0
aa(lp6330
I0
aI0
aa(lp6331
F1.0
aF1.0
aa(lp6332
F1.0
aI0
aa(lp6333
I0
aI0
aa(lp6334
I0
aI0
aa(lp6335
I0
aI0
aa(lp6336
F1.0
aF1.0
aa(lp6337
I0
aI0
aa(lp6338
I0
aI0
aa(lp6339
I0
aI0
aa(lp6340
I0
aI0
aa(lp6341
F1.0
aF1.0
aa(lp6342
I0
aI0
aa(lp6343
I0
aI0
aa(lp6344
I0
aI0
aa(lp6345
I0
aI0
aa(lp6346
I0
aI0
aa(lp6347
F1.0
aF1.0
aa(lp6348
I0
aI0
aa(lp6349
F0.0
aF0.0
aa(lp6350
F1.0
aF1.0
aa(lp6351
I0
aI0
aa(lp6352
I0
aI0
aa(lp6353
I0
aI0
aa(lp6354
F1.0
aF1.0
aa(lp6355
I0
aI0
aa(lp6356
I0
aI0
aa(lp6357
I0
aI0
aa(lp6358
I0
aI0
aa(lp6359
F1.0
aI0
aa(lp6360
F1.0
aI0
aa(lp6361
F1.0
aI0
aa(lp6362
I0
aI0
aa(lp6363
I0
aI0
aa(lp6364
I0
aI0
aa(lp6365
I0
aI0
aa(lp6366
I0
aI0
aa(lp6367
F1.0
aF1.0
aa(lp6368
I0
aI0
aa(lp6369
F1.0
aF1.0
aa(lp6370
F1.0
aI0
aa(lp6371
I0
aI0
aa(lp6372
I0
aI0
aa(lp6373
F1.0
aI0
aa(lp6374
F1.0
aI0
aa(lp6375
I0
aI0
aa(lp6376
F1.0
aI0
aa(lp6377
F1.0
aI0
aa(lp6378
I0
aI0
aa(lp6379
I0
aI0
aa(lp6380
I0
aI0
aa(lp6381
I0
aI0
aa(lp6382
I0
aI0
aa(lp6383
F1.0
aI0
aa(lp6384
F1.0
aF1.0
aa(lp6385
I0
aI0
aa(lp6386
F1.0
aI0
aa(lp6387
I0
aI0
aa(lp6388
I0
aI0
aa(lp6389
I0
aI0
aa(lp6390
I0
aI0
aa(lp6391
F1.0
aF1.0
aa(lp6392
I0
aI0
aa(lp6393
I0
aI0
aa(lp6394
I0
aI0
aa(lp6395
F1.0
aF1.0
aa(lp6396
I0
aI0
aa(lp6397
F1.0
aF1.0
aa(lp6398
I0
aI0
aa(lp6399
I0
aI0
aa(lp6400
F1.0
aI0
aa(lp6401
I0
aI0
aa(lp6402
I0
aI0
aa(lp6403
I0
aI0
aa(lp6404
I0
aI0
aa(lp6405
I0
aI0
aa(lp6406
F1.0
aI0
aa(lp6407
I0
aI0
aa(lp6408
I0
aI0
aa(lp6409
I0
aI0
aa(lp6410
I0
aI0
aa(lp6411
I0
aI0
aa(lp6412
F1.0
aI0
aa(lp6413
I0
aI0
aa(lp6414
F1.0
aI0
aa(lp6415
I0
aI0
aa(lp6416
I0
aI0
aa(lp6417
I0
aI0
aa(lp6418
I0
aI0
aa(lp6419
I0
aI0
aa(lp6420
I0
aI0
aa(lp6421
I0
aI0
aa(lp6422
I0
aI0
aa(lp6423
I0
aI0
aa(lp6424
F1.0
aI0
aa(lp6425
F1.0
aI0
aa(lp6426
I0
aI0
aa(lp6427
I0
aI0
aa(lp6428
I0
aI0
aa(lp6429
I0
aI0
aa(lp6430
I0
aI0
aa(lp6431
I0
aI0
aa(lp6432
I0
aI0
aa(lp6433
I0
aI0
aa(lp6434
F1.0
aI0
aa(lp6435
F1.0
aI0
aa(lp6436
F1.0
aI0
aa(lp6437
I0
aI0
aa(lp6438
I0
aI0
aa(lp6439
F1.0
aI0
aa(lp6440
I0
aI0
aa(lp6441
F1.0
aI0
aa(lp6442
I0
aI0
aa(lp6443
I0
aI0
aa(lp6444
I0
aI0
aa(lp6445
I0
aI0
aa(lp6446
F1.0
aI0
aa(lp6447
I0
aI0
aa(lp6448
F1.0
aI0
aa(lp6449
I0
aI0
aa(lp6450
F1.0
aF1.0
aa(lp6451
I0
aI0
aa(lp6452
I0
aI0
aa(lp6453
I0
aI0
aa(lp6454
F1.0
aI0
aa(lp6455
I0
aI0
aa(lp6456
I0
aI0
aa(lp6457
F1.0
aF1.0
aa(lp6458
I0
aI0
aa(lp6459
I0
aI0
aa(lp6460
F1.0
aI0
aa(lp6461
I0
aI0
aa(lp6462
I0
aI0
aa(lp6463
F1.0
aF1.0
aa(lp6464
I0
aI0
aa(lp6465
I0
aI0
aa(lp6466
I0
aI0
aa(lp6467
I0
aI0
aa(lp6468
I0
aI0
aa(lp6469
F0.0
aI0
aa(lp6470
I0
aI0
aa(lp6471
I0
aI0
aa(lp6472
F1.0
aI0
aa(lp6473
I0
aI0
aa(lp6474
I0
aI0
aa(lp6475
F1.0
aI0
aa(lp6476
F1.0
aI0
aa(lp6477
I0
aI0
aa(lp6478
I0
aI0
aa(lp6479
F1.0
aF1.0
aa(lp6480
I0
aI0
aa(lp6481
I0
aI0
aa(lp6482
F1.0
aI0
aa(lp6483
I0
aI0
aa(lp6484
I0
aI0
aa(lp6485
F1.0
aI0
aa(lp6486
I0
aI0
aa(lp6487
I0
aI0
aa(lp6488
I0
aI0
aa(lp6489
I0
aI0
aa(lp6490
F1.0
aI0
aa(lp6491
I0
aI0
aa(lp6492
I0
aI0
aa(lp6493
I0
aI0
aa(lp6494
I0
aI0
aa(lp6495
I0
aI0
aa(lp6496
F1.0
aF1.0
aa(lp6497
I0
aI0
aa(lp6498
I0
aI0
aa(lp6499
I0
aI0
aa(lp6500
I0
aI0
aa(lp6501
I0
aI0
aa(lp6502
I0
aI0
aa(lp6503
F1.0
aI0
aa(lp6504
I0
aI0
aa(lp6505
I0
aI0
aa(lp6506
I0
aI0
aa(lp6507
I0
aI0
aa(lp6508
I0
aI0
aa(lp6509
I0
aI0
aa(lp6510
F1.0
aI0
aa(lp6511
F1.0
aF1.0
aa(lp6512
I0
aI0
aa(lp6513
I0
aI0
aa(lp6514
I0
aI0
aa(lp6515
F1.0
aF1.0
aa(lp6516
I0
aI0
aa(lp6517
I0
aI0
aa(lp6518
F1.0
aF1.0
aa(lp6519
I0
aI0
aa(lp6520
I0
aI0
aa(lp6521
I0
aI0
aa(lp6522
I0
aI0
aa(lp6523
I0
aI0
aa(lp6524
I0
aI0
aa(lp6525
I0
aI0
aa(lp6526
F1.0
aF1.0
aa(lp6527
I0
aI0
aa(lp6528
F1.0
aI0
aa(lp6529
I0
aI0
aa(lp6530
I0
aI0
aa(lp6531
I0
aI0
aa(lp6532
I0
aI0
aa(lp6533
I0
aI0
aa(lp6534
I0
aI0
aa(lp6535
I0
aI0
aa(lp6536
I0
aI0
aa(lp6537
I0
aI0
aa(lp6538
I0
aI0
aa(lp6539
I0
aI0
aa(lp6540
I0
aI0
aa(lp6541
I0
aI0
aa(lp6542
I0
aI0
aa(lp6543
F1.0
aF1.0
aa(lp6544
F1.0
aI0
aa(lp6545
I0
aI0
aa(lp6546
F1.0
aF1.0
aa(lp6547
I0
aI0
aa(lp6548
F1.0
aF1.0
aa(lp6549
I0
aI0
aa(lp6550
I0
aI0
aa(lp6551
I0
aI0
aa(lp6552
F1.0
aF0.9259259259259259
aa(lp6553
I0
aI0
aa(lp6554
F1.0
aF1.0
aa(lp6555
I0
aI0
aa(lp6556
I0
aI0
aa(lp6557
I0
aI0
aa(lp6558
I0
aI0
aa(lp6559
F1.0
aI0
aa(lp6560
F1.0
aI0
aa(lp6561
I0
aI0
aa(lp6562
I0
aI0
aa(lp6563
I0
aI0
aa(lp6564
F1.0
aI0
aa(lp6565
I0
aI0
aa(lp6566
I0
aI0
aa(lp6567
I0
aI0
aa(lp6568
F1.0
aI0
aa(lp6569
F1.0
aF1.0
aa(lp6570
F1.0
aF1.0
aa(lp6571
F0.0
aI0
aa(lp6572
I0
aI0
aa(lp6573
I0
aI0
aa(lp6574
F1.0
aF1.0
aa(lp6575
F1.0
aF1.0
aa(lp6576
I0
aI0
aa(lp6577
I0
aI0
aa(lp6578
I0
aI0
aa(lp6579
I0
aI0
aa(lp6580
F1.0
aI0
aa(lp6581
I0
aI0
aa(lp6582
I0
aI0
aa(lp6583
F1.0
aF1.0
aa(lp6584
F1.0
aI0
aa(lp6585
I0
aI0
aa(lp6586
F1.0
aF1.0
aa(lp6587
F1.0
aF1.0
aa(lp6588
F0.5
aF0.0
aa(lp6589
I0
aI0
aa(lp6590
I0
aI0
aa(lp6591
I0
aI0
aa(lp6592
F1.0
aF1.0
aa(lp6593
I0
aI0
aa(lp6594
F1.0
aI0
aa(lp6595
I0
aI0
aa(lp6596
F1.0
aI0
aa(lp6597
I0
aI0
aa(lp6598
F0.0
aI0
aa(lp6599
I0
aI0
aa(lp6600
I0
aI0
aa(lp6601
I0
aI0
aa(lp6602
I0
aI0
aa(lp6603
I0
aI0
aa(lp6604
F1.0
aI0
aa(lp6605
I0
aI0
aa(lp6606
I0
aI0
aa(lp6607
F1.0
aI0
aa(lp6608
I0
aI0
aa(lp6609
F1.0
aI0
aa(lp6610
I0
aI0
aa(lp6611
I0
aI0
aa(lp6612
I0
aI0
aa(lp6613
I0
aI0
aa(lp6614
I0
aI0
aa(lp6615
F0.0
aF0.0
aa(lp6616
I0
aI0
aa(lp6617
I0
aI0
aa(lp6618
I0
aI0
aa(lp6619
I0
aI0
aa(lp6620
I0
aI0
aa(lp6621
F1.0
aI0
aa(lp6622
I0
aI0
aa(lp6623
I0
aI0
aa(lp6624
I0
aI0
aa(lp6625
I0
aI0
aa(lp6626
I0
aI0
aa(lp6627
I0
aI0
aa(lp6628
F1.0
aI0
aa(lp6629
I0
aI0
aa(lp6630
I0
aI0
aa(lp6631
I0
aI0
aa(lp6632
I0
aI0
aa(lp6633
I0
aI0
aa(lp6634
I0
aI0
aa(lp6635
F1.0
aF1.0
aa(lp6636
I0
aI0
aa(lp6637
I0
aI0
aa(lp6638
I0
aI0
aa(lp6639
I0
aI0
aa(lp6640
F1.0
aI0
aa(lp6641
I0
aI0
aa(lp6642
I0
aI0
aa(lp6643
I0
aI0
aa(lp6644
F1.0
aF1.0
aa(lp6645
F1.0
aF1.0
aa(lp6646
I0
aI0
aa(lp6647
I0
aI0
aa(lp6648
I0
aI0
aa(lp6649
F1.0
aI0
aa(lp6650
F1.0
aI0
aa(lp6651
I0
aI0
aa(lp6652
I0
aI0
aa(lp6653
I0
aI0
aa(lp6654
F0.0
aI0
aa(lp6655
I0
aI0
aa(lp6656
I0
aI0
aa(lp6657
I0
aI0
aa(lp6658
F1.0
aI0
aa(lp6659
F1.0
aF1.0
aa(lp6660
I0
aI0
aa(lp6661
F1.0
aI0
aa(lp6662
F1.0
aI0
aa(lp6663
F1.0
aI0
aa(lp6664
F1.0
aI0
aa(lp6665
F1.0
aF1.0
aa(lp6666
F1.0
aI0
aa(lp6667
I0
aI0
aa(lp6668
I0
aI0
aa(lp6669
F1.0
aI0
aa(lp6670
I0
aI0
aa(lp6671
I0
aI0
aa(lp6672
F1.0
aF1.0
aa(lp6673
I0
aI0
aa(lp6674
F1.0
aF1.0
aa(lp6675
F1.0
aF1.0
aa(lp6676
F1.0
aI0
aa(lp6677
I0
aI0
aa(lp6678
I0
aI0
aa(lp6679
I0
aI0
aa(lp6680
I0
aI0
aa(lp6681
F1.0
aI0
aa(lp6682
I0
aI0
aa(lp6683
I0
aI0
aa(lp6684
F1.0
aI0
aa(lp6685
I0
aI0
aa(lp6686
I0
aI0
aa(lp6687
F1.0
aI0
aa(lp6688
F1.0
aI0
aa(lp6689
F1.0
aF1.0
aa(lp6690
I0
aI0
aa(lp6691
I0
aI0
aa(lp6692
I0
aI0
aa(lp6693
I0
aI0
aa(lp6694
I0
aI0
aa(lp6695
I0
aI0
aa(lp6696
I0
aI0
aa(lp6697
I0
aI0
aa(lp6698
I0
aI0
aa(lp6699
I0
aI0
aa(lp6700
I0
aI0
aa(lp6701
I0
aI0
aa(lp6702
I0
aI0
aa(lp6703
I0
aI0
aa(lp6704
I0
aI0
aa(lp6705
I0
aI0
aa(lp6706
I0
aI0
aa(lp6707
I0
aI0
aa(lp6708
I0
aI0
aa(lp6709
I0
aI0
aa(lp6710
I0
aI0
aa(lp6711
I0
aI0
aa(lp6712
I0
aI0
aa(lp6713
F1.0
aI0
aa(lp6714
F1.0
aF1.0
aa(lp6715
I0
aI0
aa(lp6716
I0
aI0
aa(lp6717
F1.0
aF1.0
aa(lp6718
I0
aI0
aa(lp6719
F1.0
aF1.0
aa(lp6720
I0
aI0
aa(lp6721
I0
aI0
aa(lp6722
I0
aI0
aa(lp6723
I0
aI0
aa(lp6724
I0
aI0
aa(lp6725
I0
aI0
aa(lp6726
I0
aI0
aa(lp6727
F1.0
aF1.0
aa(lp6728
I0
aI0
aa(lp6729
I0
aI0
aa(lp6730
I0
aI0
aa(lp6731
I0
aI0
aa(lp6732
I0
aI0
aa(lp6733
I0
aI0
aa(lp6734
I0
aI0
aa(lp6735
I0
aI0
aa(lp6736
F1.0
aF1.0
aa(lp6737
I0
aI0
aa(lp6738
I0
aI0
aa(lp6739
F1.0
aI0
aa(lp6740
I0
aI0
aa(lp6741
I0
aI0
aa(lp6742
F1.0
aF1.0
aa(lp6743
I0
aI0
aa(lp6744
F1.0
aI0
aa(lp6745
I0
aI0
aa(lp6746
I0
aI0
aa(lp6747
I0
aI0
aa(lp6748
I0
aI0
aa(lp6749
I0
aI0
aa(lp6750
I0
aI0
aa(lp6751
I0
aI0
aa(lp6752
I0
aI0
aa(lp6753
F1.0
aF1.0
aa(lp6754
I0
aI0
aa(lp6755
F1.0
aF1.0
aa(lp6756
I0
aI0
aa(lp6757
I0
aI0
aa(lp6758
F0.875
aF0.024999999999999994
aa(lp6759
I0
aI0
aa(lp6760
I0
aI0
aa(lp6761
I0
aI0
aa(lp6762
I0
aI0
aa(lp6763
F1.0
aF1.0
aa(lp6764
I0
aI0
aa(lp6765
I0
aI0
aa(lp6766
I0
aI0
aa(lp6767
I0
aI0
aa(lp6768
I0
aI0
aa(lp6769
I0
aI0
aa(lp6770
I0
aI0
aa(lp6771
F1.0
aI0
aa(lp6772
F1.0
aF1.0
aa(lp6773
I0
aI0
aa(lp6774
I0
aI0
aa(lp6775
I0
aI0
aa(lp6776
I0
aI0
aa(lp6777
I0
aI0
aa(lp6778
F1.0
aF1.0
aa(lp6779
I0
aI0
aa(lp6780
I0
aI0
aa(lp6781
F1.0
aI0
aa(lp6782
F1.0
aI0
aa(lp6783
F1.0
aI0
aa(lp6784
F1.0
aI0
aa(lp6785
F0.9444444444444444
aI0
aa(lp6786
F1.0
aF1.0
aa(lp6787
I0
aI0
aa(lp6788
I0
aI0
aa(lp6789
I0
aI0
aa(lp6790
I0
aI0
aa(lp6791
F1.0
aI0
aa(lp6792
I0
aI0
aa(lp6793
I0
aI0
aa(lp6794
I0
aI0
aa(lp6795
I0
aI0
aa(lp6796
I0
aI0
aa(lp6797
F0.8800000000000001
aF1.0
aa(lp6798
I0
aI0
aa(lp6799
I0
aI0
aa(lp6800
I0
aI0
aa(lp6801
I0
aI0
aa(lp6802
I0
aI0
aa(lp6803
I0
aI0
aa(lp6804
I0
aI0
aa(lp6805
F1.0
aI0
aa(lp6806
I0
aI0
aa(lp6807
I0
aI0
aa(lp6808
I0
aI0
aa(lp6809
I0
aI0
aa(lp6810
I0
aI0
aa(lp6811
I0
aI0
aa(lp6812
I0
aI0
aa(lp6813
I0
aI0
aa(lp6814
I0
aI0
aa(lp6815
I0
aI0
aa(lp6816
I0
aI0
aa(lp6817
I0
aI0
aa(lp6818
I0
aI0
aa(lp6819
I0
aI0
aa(lp6820
I0
aI0
aa(lp6821
I0
aI0
aa(lp6822
I0
aI0
aa(lp6823
F1.0
aF1.0
aa(lp6824
I0
aI0
aa(lp6825
F0.0
aF0.0
aa(lp6826
I0
aI0
aa(lp6827
I0
aI0
aa(lp6828
I0
aI0
aa(lp6829
F1.0
aI0
aa(lp6830
F1.0
aF1.0
aa(lp6831
I0
aI0
aa(lp6832
I0
aI0
aa(lp6833
I0
aI0
aa(lp6834
F1.0
aF1.0
aa(lp6835
F0.9629629629629629
aI0
aa(lp6836
I0
aI0
aa(lp6837
I0
aI0
aa(lp6838
I0
aI0
aa(lp6839
I0
aI0
aa(lp6840
F0.0
aI0
aa(lp6841
I0
aI0
aa(lp6842
I0
aI0
aa(lp6843
F1.0
aI0
aa(lp6844
I0
aI0
aa(lp6845
I0
aI0
aa(lp6846
I0
aI0
aa(lp6847
I0
aI0
aa(lp6848
F1.0
aI0
aa(lp6849
I0
aI0
aa(lp6850
F1.0
aI0
aa(lp6851
I0
aI0
aa(lp6852
I0
aI0
aa(lp6853
F1.0
aI0
aa(lp6854
I0
aI0
aa(lp6855
I0
aI0
aa(lp6856
I0
aI0
aa(lp6857
I0
aI0
aa(lp6858
F1.0
aF1.0
aa(lp6859
I0
aI0
aa(lp6860
I0
aI0
aa(lp6861
I0
aI0
aa(lp6862
I0
aI0
aa(lp6863
F1.0
aF1.0
aa(lp6864
I0
aI0
aa(lp6865
I0
aI0
aa(lp6866
I0
aI0
aa(lp6867
F1.0
aI0
aa(lp6868
I0
aI0
aa(lp6869
F1.0
aF1.0
aa(lp6870
I0
aI0
aa(lp6871
I0
aI0
aa(lp6872
I0
aI0
aa(lp6873
I0
aI0
aa(lp6874
F0.9444444444444444
aF1.0
aa(lp6875
I0
aI0
aa(lp6876
F0.0
aF0.0
aa(lp6877
I0
aI0
aa(lp6878
F1.0
aF1.0
aa(lp6879
F1.0
aI0
aa(lp6880
F1.0
aF1.0
aa(lp6881
I0
aI0
aa(lp6882
I0
aI0
aa(lp6883
I0
aI0
aa(lp6884
I0
aI0
aa(lp6885
I0
aI0
aa(lp6886
F1.0
aI0
aa(lp6887
F1.0
aI0
aa(lp6888
I0
aI0
aa(lp6889
F1.0
aI0
aa(lp6890
I0
aI0
aa(lp6891
F1.0
aI0
aa(lp6892
I0
aI0
aa(lp6893
F1.0
aI0
aa(lp6894
F1.0
aI0
aa(lp6895
I0
aI0
aa(lp6896
I0
aI0
aa(lp6897
I0
aI0
aa(lp6898
I0
aI0
aa(lp6899
I0
aI0
aa(lp6900
I0
aI0
aa(lp6901
I0
aI0
aa(lp6902
I0
aI0
aa(lp6903
I0
aI0
aa(lp6904
I0
aI0
aa(lp6905
I0
aI0
aa(lp6906
I0
aI0
aa(lp6907
I0
aI0
aa(lp6908
F1.0
aF1.0
aa(lp6909
I0
aI0
aa(lp6910
I0
aI0
aa(lp6911
I0
aI0
aa(lp6912
I0
aI0
aa(lp6913
I0
aI0
aa(lp6914
I0
aI0
aa(lp6915
I0
aI0
aa(lp6916
I0
aI0
aa(lp6917
I0
aI0
aa(lp6918
I0
aI0
aa(lp6919
F0.75
aF0.25
aa(lp6920
I0
aI0
aa(lp6921
F1.0
aI0
aa(lp6922
I0
aI0
aa(lp6923
F1.0
aI0
aa(lp6924
I0
aI0
aa(lp6925
F1.0
aF1.0
aa(lp6926
F1.0
aI0
aa(lp6927
I0
aI0
aa(lp6928
I0
aI0
aa(lp6929
I0
aI0
aa(lp6930
I0
aI0
aa(lp6931
I0
aI0
aa(lp6932
I0
aI0
aa(lp6933
I0
aI0
aa(lp6934
F1.0
aF1.0
aa(lp6935
I0
aI0
aa(lp6936
I0
aI0
aa(lp6937
F1.0
aI0
aa(lp6938
I0
aI0
aa(lp6939
I0
aI0
aa(lp6940
F1.0
aI0
aa(lp6941
F1.0
aI0
aa(lp6942
I0
aI0
aa(lp6943
I0
aI0
aa(lp6944
I0
aI0
aa(lp6945
I0
aI0
aa(lp6946
I0
aI0
aa(lp6947
F1.0
aI0
aa(lp6948
F1.0
aI0
aa(lp6949
F1.0
aI0
aa(lp6950
I0
aI0
aa(lp6951
I0
aI0
aa(lp6952
I0
aI0
aa(lp6953
I0
aI0
aa(lp6954
I0
aI0
aa(lp6955
I0
aI0
aa(lp6956
I0
aI0
aa(lp6957
F1.0
aF1.0
aa(lp6958
F0.0
aI0
aa(lp6959
I0
aI0
aa(lp6960
F0.42857142857142855
aF0.42857142857142855
aa(lp6961
I0
aI0
aa(lp6962
I0
aI0
aa(lp6963
I0
aI0
aa(lp6964
I0
aI0
aa(lp6965
I0
aI0
aa(lp6966
F1.0
aF0.8333333333333334
aa(lp6967
F0.9076923076923077
aF0.9038461538461537
aa(lp6968
I0
aI0
aa(lp6969
F1.0
aF1.0
aa(lp6970
I0
aI0
aa(lp6971
I0
aI0
aa(lp6972
F1.0
aF1.0
aa(lp6973
I0
aI0
aa(lp6974
I0
aI0
aa(lp6975
F1.0
aI0
aa(lp6976
F1.0
aF1.0
aa(lp6977
I0
aI0
aa(lp6978
I0
aI0
aa(lp6979
I0
aI0
aa(lp6980
F1.0
aF0.5555555555555556
aa(lp6981
I0
aI0
aa(lp6982
I0
aI0
aa(lp6983
I0
aI0
aa(lp6984
F0.929951690821256
aF0.8726287262872628
aa(lp6985
I0
aI0
aa(lp6986
F1.0
aF1.0
aa(lp6987
I0
aI0
aa(lp6988
F0.0
aF0.0
aa(lp6989
F1.0
aF1.0
aa(lp6990
F0.6
aF0.6000000000000001
aa(lp6991
I0
aI0
aa(lp6992
I0
aI0
aa(lp6993
F1.0
aF1.0
aa(lp6994
F0.78
aF0.6780303030303031
aa(lp6995
I0
aI0
aa(lp6996
I0
aI0
aa(lp6997
I0
aI0
aa(lp6998
F1.0
aF1.0
aa(lp6999
I0
aI0
aa(lp7000
I0
aI0
aa(lp7001
F0.95
aF0.9375
aa(lp7002
F1.0
aF1.0
aa(lp7003
I0
aI0
aa(lp7004
I0
aI0
aa(lp7005
I0
aI0
aa(lp7006
I0
aI0
aa(lp7007
F0.25
aI0
aa(lp7008
I0
aI0
aa(lp7009
I0
aI0
aa(lp7010
F1.0
aF1.0
aa(lp7011
F1.0
aI0
aa(lp7012
I0
aI0
aa(lp7013
F0.0
aF0.0
aa(lp7014
F1.0
aF1.0
aa(lp7015
I0
aI0
aa(lp7016
F1.0
aF1.0
aa(lp7017
F0.9841269841269842
aF0.9722222222222222
aa(lp7018
I0
aI0
aa(lp7019
F1.0
aI0
aa(lp7020
I0
aI0
aa(lp7021
I0
aI0
aa(lp7022
I0
aI0
aa(lp7023
F1.0
aF1.0
aa(lp7024
I0
aI0
aa(lp7025
I0
aI0
aa(lp7026
F1.0
aF1.0
aa(lp7027
F1.0
aI0
aa(lp7028
I0
aI0
aa(lp7029
F1.0
aI0
aa(lp7030
F0.0
aF0.0
aa(lp7031
F1.0
aF1.0
aa(lp7032
I0
aI0
aa(lp7033
I0
aI0
aa(lp7034
I0
aI0
aa(lp7035
F1.0
aF1.0
aa(lp7036
I0
aI0
aa(lp7037
F1.0
aF1.0
aa(lp7038
F1.0
aF0.9166666666666666
aa(lp7039
F0.9058823529411764
aF0.8666666666666666
aa(lp7040
I0
aI0
aa(lp7041
I0
aI0
aa(lp7042
I0
aI0
aa(lp7043
F1.0
aI0
aa(lp7044
I0
aI0
aa(lp7045
F1.0
aI0
aa(lp7046
F1.0
aI0
aa(lp7047
I0
aI0
aa(lp7048
F1.0
aI0
aa(lp7049
I0
aI0
aa(lp7050
I0
aI0
aa(lp7051
I0
aI0
aa(lp7052
I0
aI0
aa(lp7053
I0
aI0
aa(lp7054
F1.0
aF1.0
aa(lp7055
I0
aI0
aa(lp7056
F1.0
aI0
aa(lp7057
I0
aI0
aa(lp7058
I0
aI0
aa(lp7059
F1.0
aF1.0
aa(lp7060
F1.0
aI0
aa(lp7061
I0
aI0
aa(lp7062
F1.0
aI0
aa(lp7063
I0
aI0
aa(lp7064
I0
aI0
aa(lp7065
I0
aI0
aa(lp7066
I0
aI0
aa(lp7067
I0
aI0
aa(lp7068
F1.0
aI0
aa(lp7069
I0
aI0
aa(lp7070
I0
aI0
aa(lp7071
I0
aI0
aa(lp7072
F1.0
aF0.5
aa(lp7073
F1.0
aI0
aa(lp7074
F0.0
aI0
aa(lp7075
I0
aI0
aa(lp7076
I0
aI0
aa(lp7077
I0
aI0
aa(lp7078
I0
aI0
aa(lp7079
I0
aI0
aa(lp7080
F0.85
aF0.4
aa(lp7081
I0
aI0
aa(lp7082
I0
aI0
aa(lp7083
I0
aI0
aa(lp7084
F1.0
aF1.0
aa(lp7085
I0
aI0
aa(lp7086
I0
aI0
aa(lp7087
I0
aI0
aa(lp7088
I0
aI0
aa(lp7089
I0
aI0
aa(lp7090
I0
aI0
aa(lp7091
I0
aI0
aa(lp7092
I0
aI0
aa(lp7093
F1.0
aI0
aa(lp7094
I0
aI0
aa(lp7095
F1.0
aF1.0
aa(lp7096
F1.0
aI0
aa(lp7097
I0
aI0
aa(lp7098
F1.0
aF1.0
aa(lp7099
I0
aI0
aa(lp7100
F1.0
aF1.0
aa(lp7101
F0.0
aI0
aa(lp7102
F1.0
aI0
aa(lp7103
F1.0
aF1.0
aa(lp7104
I0
aI0
aa(lp7105
I0
aI0
aa(lp7106
F1.0
aF1.0
aa(lp7107
I0
aI0
aa(lp7108
F1.0
aI0
aa(lp7109
I0
aI0
aa(lp7110
F1.0
aI0
aa(lp7111
I0
aI0
aa(lp7112
I0
aI0
aa(lp7113
I0
aI0
aa(lp7114
I0
aI0
aa(lp7115
I0
aI0
aa(lp7116
I0
aI0
aa(lp7117
I0
aI0
aa(lp7118
F1.0
aI0
aa(lp7119
I0
aI0
aa(lp7120
F1.0
aI0
aa(lp7121
I0
aI0
aa(lp7122
F1.0
aI0
aa(lp7123
F1.0
aI0
aa(lp7124
I0
aI0
aa(lp7125
I0
aI0
aa(lp7126
I0
aI0
aa(lp7127
I0
aI0
aa(lp7128
I0
aI0
aa(lp7129
I0
aI0
aa(lp7130
F1.0
aI0
aa(lp7131
F1.0
aI0
aa(lp7132
I0
aI0
aa(lp7133
I0
aI0
aa(lp7134
F1.0
aI0
aa(lp7135
F1.0
aI0
aa(lp7136
I0
aI0
aa(lp7137
I0
aI0
aa(lp7138
I0
aI0
aa(lp7139
I0
aI0
aa(lp7140
F1.0
aF1.0
aa(lp7141
F1.0
aI0
aa(lp7142
F1.0
aI0
aa(lp7143
I0
aI0
aa(lp7144
I0
aI0
aa(lp7145
I0
aI0
aa(lp7146
I0
aI0
aa(lp7147
I0
aI0
aa(lp7148
I0
aI0
aa(lp7149
I0
aI0
aa(lp7150
I0
aI0
aa(lp7151
I0
aI0
aa(lp7152
I0
aI0
aa(lp7153
F1.0
aF1.0
aa(lp7154
I0
aI0
aa(lp7155
I0
aI0
aa(lp7156
I0
aI0
aa(lp7157
I0
aI0
aa(lp7158
F1.0
aI0
aa(lp7159
F1.0
aF0.2
aa(lp7160
F1.0
aI0
aa(lp7161
I0
aI0
aa(lp7162
F1.0
aF0.7333333333333334
aa(lp7163
I0
aI0
aa(lp7164
F1.0
aF1.0
aa(lp7165
F1.0
aI0
aa(lp7166
F1.0
aI0
aa(lp7167
I0
aI0
aa(lp7168
I0
aI0
aa(lp7169
F1.0
aF1.0
aa(lp7170
F0.8
aF0.8
aa(lp7171
F1.0
aF1.0
aa(lp7172
F1.0
aI0
aa(lp7173
I0
aI0
aa(lp7174
I0
aI0
aa(lp7175
I0
aI0
aa(lp7176
I0
aI0
aa(lp7177
F1.0
aF1.0
aa(lp7178
F1.0
aF1.0
aa(lp7179
F1.0
aF1.0
aa(lp7180
F1.0
aI0
aa(lp7181
I0
aI0
aa(lp7182
I0
aI0
aa(lp7183
I0
aI0
aa(lp7184
I0
aI0
aa(lp7185
I0
aI0
aa(lp7186
I0
aI0
aa(lp7187
I0
aI0
aa(lp7188
F1.0
aI0
aa(lp7189
F0.0
aI0
aa(lp7190
I0
aI0
aa(lp7191
F1.0
aF1.0
aa(lp7192
F0.0
aI0
aa(lp7193
F1.0
aF0.9555555555555555
aa(lp7194
I0
aI0
aa(lp7195
F1.0
aI0
aa(lp7196
I0
aI0
aa(lp7197
I0
aI0
aa(lp7198
F1.0
aF1.0
aa(lp7199
F1.0
aI0
aa(lp7200
I0
aI0
aa(lp7201
F1.0
aI0
aa(lp7202
F1.0
aF1.0
aa(lp7203
I0
aI0
aa(lp7204
I0
aI0
aa(lp7205
F0.0
aI0
aa(lp7206
I0
aI0
aa(lp7207
I0
aI0
aa(lp7208
I0
aI0
aa(lp7209
I0
aI0
aa(lp7210
I0
aI0
aa(lp7211
I0
aI0
aa(lp7212
I0
aI0
aa(lp7213
F1.0
aI0
aa(lp7214
I0
aI0
aa(lp7215
I0
aI0
aa(lp7216
F1.0
aI0
aa(lp7217
F1.0
aF1.0
aa(lp7218
I0
aI0
aa(lp7219
F0.0
aI0
aa(lp7220
F1.0
aI0
aa(lp7221
I0
aI0
aa(lp7222
I0
aI0
aa(lp7223
I0
aI0
aa(lp7224
F1.0
aI0
aa(lp7225
I0
aI0
aa(lp7226
I0
aI0
aa(lp7227
I0
aI0
aa(lp7228
F1.0
aI0
aa(lp7229
I0
aI0
aa(lp7230
I0
aI0
aa(lp7231
I0
aI0
aa(lp7232
I0
aI0
aa(lp7233
I0
aI0
aa(lp7234
I0
aI0
aa(lp7235
I0
aI0
aa(lp7236
I0
aI0
aa(lp7237
I0
aI0
aa(lp7238
F1.0
aF1.0
aa(lp7239
I0
aI0
aa(lp7240
I0
aI0
aa(lp7241
I0
aI0
aa(lp7242
F1.0
aI0
aa(lp7243
F0.0
aI0
aa(lp7244
F1.0
aI0
aa(lp7245
I0
aI0
aa(lp7246
I0
aI0
aa(lp7247
F1.0
aF1.0
aa(lp7248
F1.0
aF1.0
aa(lp7249
I0
aI0
aa(lp7250
I0
aI0
aa(lp7251
I0
aI0
aa(lp7252
F1.0
aI0
aa(lp7253
I0
aI0
aa(lp7254
F1.0
aI0
aa(lp7255
I0
aI0
aa(lp7256
I0
aI0
aa(lp7257
F1.0
aI0
aa(lp7258
F1.0
aI0
aa(lp7259
F1.0
aF0.9259259259259259
aa(lp7260
I0
aI0
aa(lp7261
F1.0
aI0
aa(lp7262
I0
aI0
aa(lp7263
F0.9753086419753088
aF0.7777777777777778
aa(lp7264
F0.6923076923076923
aF0.6923076923076923
aa(lp7265
F1.0
aI0
aa(lp7266
F1.0
aF1.0
aa(lp7267
I0
aI0
aa(lp7268
F0.9398496240601505
aF0.8596491228070176
aa(lp7269
F1.0
aI0
aa(lp7270
F0.0
aI0
aa(lp7271
I0
aI0
aa(lp7272
I0
aI0
aa(lp7273
F1.0
aF1.0
aa(lp7274
I0
aI0
aa(lp7275
I0
aI0
aa(lp7276
I0
aI0
aa(lp7277
I0
aI0
aa(lp7278
I0
aI0
aa(lp7279
I0
aI0
aa(lp7280
I0
aI0
aa(lp7281
I0
aI0
aa(lp7282
I0
aI0
aa(lp7283
I0
aI0
aa(lp7284
F1.0
aI0
aa(lp7285
I0
aI0
aa(lp7286
F1.0
aF1.0
aa(lp7287
F1.0
aF1.0
aa(lp7288
F1.0
aI0
aa(lp7289
F0.0
aI0
aa(lp7290
I0
aI0
aa(lp7291
F1.0
aF1.0
aa(lp7292
I0
aI0
aa(lp7293
F1.0
aI0
aa(lp7294
I0
aI0
aa(lp7295
F0.9545454545454546
aF1.0
aa(lp7296
F0.0
aI0
aa(lp7297
I0
aI0
aa(lp7298
I0
aI0
aa(lp7299
I0
aI0
aa(lp7300
F1.0
aF1.0
aa(lp7301
I0
aI0
aa(lp7302
F1.0
aF1.0
aa(lp7303
I0
aI0
aa(lp7304
I0
aI0
aa(lp7305
I0
aI0
aa(lp7306
I0
aI0
aa(lp7307
I0
aI0
aa(lp7308
I0
aI0
aa(lp7309
I0
aI0
aa(lp7310
I0
aI0
aa(lp7311
I0
aI0
aa(lp7312
F0.6616541353383458
aF0.4699248120300752
aa(lp7313
F1.0
aF1.0
aa(lp7314
F1.0
aF1.0
aa(lp7315
I0
aI0
aa(lp7316
I0
aI0
aa(lp7317
I0
aI0
aa(lp7318
F1.0
aI0
aa(lp7319
I0
aI0
aa(lp7320
I0
aI0
aa(lp7321
F1.0
aI0
aa(lp7322
F1.0
aI0
aa(lp7323
I0
aI0
aa(lp7324
F1.0
aI0
aa(lp7325
I0
aI0
aa(lp7326
I0
aI0
aa(lp7327
I0
aI0
aa(lp7328
F1.0
aF1.0
aa(lp7329
I0
aI0
aa(lp7330
F1.0
aI0
aa(lp7331
I0
aI0
aa(lp7332
I0
aI0
aa(lp7333
F1.0
aF1.0
aa(lp7334
I0
aI0
aa(lp7335
F1.0
aF1.0
aa(lp7336
F1.0
aF1.0
aa(lp7337
F1.0
aF1.0
aa(lp7338
F1.0
aI0
aa(lp7339
F1.0
aF1.0
aa(lp7340
I0
aI0
aa(lp7341
F1.0
aI0
aa(lp7342
I0
aI0
aa(lp7343
I0
aI0
aa(lp7344
F1.0
aF1.0
aa(lp7345
I0
aI0
aa(lp7346
I0
aI0
aa(lp7347
I0
aI0
aa(lp7348
F1.0
aI0
aa(lp7349
I0
aI0
aa(lp7350
I0
aI0
aa(lp7351
I0
aI0
aa(lp7352
F1.0
aI0
aa(lp7353
I0
aI0
aa(lp7354
F1.0
aF1.0
aa(lp7355
I0
aI0
aa(lp7356
F1.0
aI0
aa(lp7357
F1.0
aF1.0
aa(lp7358
I0
aI0
aa(lp7359
I0
aI0
aa(lp7360
F1.0
aI0
aa(lp7361
F1.0
aI0
aa(lp7362
I0
aI0
aa(lp7363
I0
aI0
aa(lp7364
F1.0
aF1.0
aa(lp7365
I0
aI0
aa(lp7366
I0
aI0
aa(lp7367
I0
aI0
aa(lp7368
I0
aI0
aa(lp7369
I0
aI0
aa(lp7370
I0
aI0
aa(lp7371
I0
aI0
aa(lp7372
I0
aI0
aa(lp7373
I0
aI0
aa(lp7374
F1.0
aI0
aa(lp7375
I0
aI0
aa(lp7376
I0
aI0
aa(lp7377
I0
aI0
aa(lp7378
I0
aI0
aa(lp7379
F1.0
aF1.0
aa(lp7380
F1.0
aF1.0
aa(lp7381
I0
aI0
aa(lp7382
F1.0
aI0
aa(lp7383
F1.0
aI0
aa(lp7384
F1.0
aF1.0
aa(lp7385
I0
aI0
aa(lp7386
I0
aI0
aa(lp7387
I0
aI0
aa(lp7388
I0
aI0
aa(lp7389
I0
aI0
aa(lp7390
I0
aI0
aa(lp7391
I0
aI0
aa(lp7392
I0
aI0
aa(lp7393
F0.0
aF0.0
aa(lp7394
F1.0
aF1.0
aa(lp7395
I0
aI0
aa(lp7396
F1.0
aF1.0
aa(lp7397
F1.0
aI0
aa(lp7398
F1.0
aF1.0
aa(lp7399
I0
aI0
aa(lp7400
I0
aI0
aa(lp7401
F1.0
aF1.0
aa(lp7402
I0
aI0
aa(lp7403
I0
aI0
aa(lp7404
I0
aI0
aa(lp7405
F1.0
aF1.0
aa(lp7406
F1.0
aI0
aa(lp7407
I0
aI0
aa(lp7408
I0
aI0
aa(lp7409
I0
aI0
aa(lp7410
I0
aI0
aa(lp7411
I0
aI0
aa(lp7412
I0
aI0
aa(lp7413
I0
aI0
aa(lp7414
I0
aI0
aa(lp7415
F0.8518518518518517
aF0.8518518518518517
aa(lp7416
I0
aI0
aa(lp7417
I0
aI0
aa(lp7418
F1.0
aF1.0
aa(lp7419
I0
aI0
aa(lp7420
I0
aI0
aa(lp7421
I0
aI0
aa(lp7422
I0
aI0
aa(lp7423
I0
aI0
aa(lp7424
I0
aI0
aa(lp7425
I0
aI0
aa(lp7426
I0
aI0
aa(lp7427
I0
aI0
aa(lp7428
I0
aI0
aa(lp7429
I0
aI0
aa(lp7430
I0
aI0
aa(lp7431
I0
aI0
aa(lp7432
I0
aI0
aa(lp7433
I0
aI0
aa(lp7434
I0
aI0
aa(lp7435
I0
aI0
aa(lp7436
I0
aI0
aa(lp7437
I0
aI0
aa(lp7438
I0
aI0
aa(lp7439
I0
aI0
aa(lp7440
I0
aI0
aa(lp7441
F1.0
aI0
aa(lp7442
I0
aI0
aa(lp7443
I0
aI0
aa(lp7444
I0
aI0
aa(lp7445
I0
aI0
aa(lp7446
F0.0
aF0.0
aa(lp7447
I0
aI0
aa(lp7448
I0
aI0
aa(lp7449
F1.0
aF1.0
aa(lp7450
I0
aI0
aa(lp7451
F0.9480519480519481
aF0.9090909090909092
aa(lp7452
F1.0
aF1.0
aa(lp7453
I0
aI0
aa(lp7454
F1.0
aF1.0
aa(lp7455
I0
aI0
aa(lp7456
F1.0
aF1.0
aa(lp7457
I0
aI0
aa(lp7458
I0
aI0
aa(lp7459
I0
aI0
aa(lp7460
I0
aI0
aa(lp7461
I0
aI0
aa(lp7462
I0
aI0
aa(lp7463
I0
aI0
aa(lp7464
I0
aI0
aa(lp7465
I0
aI0
aa(lp7466
I0
aI0
aa(lp7467
I0
aI0
aa(lp7468
I0
aI0
aa(lp7469
F1.0
aF1.0
aa(lp7470
F1.0
aF1.0
aa(lp7471
F1.0
aI0
aa(lp7472
I0
aI0
aa(lp7473
I0
aI0
aa(lp7474
I0
aI0
aa(lp7475
I0
aI0
aa(lp7476
F0.8571428571428571
aF0.6666666666666666
aa(lp7477
I0
aI0
aa(lp7478
I0
aI0
aa(lp7479
F1.0
aF1.0
aa(lp7480
I0
aI0
aa(lp7481
I0
aI0
aa(lp7482
F0.0
aF0.0
aa(lp7483
F1.0
aI0
aa(lp7484
F0.0
aI0
aa(lp7485
F0.875
aI0
aa(lp7486
I0
aI0
aa(lp7487
F0.0
aF0.0
aa(lp7488
F1.0
aF1.0
aa(lp7489
F1.0
aI0
aa(lp7490
I0
aI0
aa(lp7491
I0
aI0
aa(lp7492
F1.0
aI0
aa(lp7493
F1.0
aI0
aa(lp7494
I0
aI0
aa(lp7495
I0
aI0
aa(lp7496
I0
aI0
aa(lp7497
F1.0
aI0
aa(lp7498
I0
aI0
aa(lp7499
F1.0
aI0
aa(lp7500
I0
aI0
aa(lp7501
I0
aI0
aa(lp7502
I0
aI0
aa(lp7503
I0
aI0
aa(lp7504
F1.0
aF1.0
aa(lp7505
F1.0
aI0
aa(lp7506
I0
aI0
aa(lp7507
I0
aI0
aa(lp7508
I0
aI0
aa(lp7509
F1.0
aF1.0
aa(lp7510
I0
aI0
aa(lp7511
I0
aI0
aa(lp7512
F0.5789473684210527
aF0.5789473684210527
aa(lp7513
I0
aI0
aa(lp7514
F1.0
aI0
aa(lp7515
I0
aI0
aa(lp7516
I0
aI0
aa(lp7517
F1.0
aF1.0
aa(lp7518
I0
aI0
aa(lp7519
F1.0
aI0
aa(lp7520
F1.0
aI0
aa(lp7521
I0
aI0
aa(lp7522
I0
aI0
aa(lp7523
I0
aI0
aa(lp7524
I0
aI0
aa(lp7525
I0
aI0
aa(lp7526
F1.0
aF1.0
aa(lp7527
I0
aI0
aa(lp7528
I0
aI0
aa(lp7529
F1.0
aF1.0
aa(lp7530
F1.0
aI0
aa(lp7531
I0
aI0
aa(lp7532
I0
aI0
aa(lp7533
I0
aI0
aa(lp7534
F1.0
aF1.0
aa(lp7535
I0
aI0
aa(lp7536
I0
aI0
aa(lp7537
F1.0
aF1.0
aa(lp7538
I0
aI0
aa(lp7539
F1.0
aF1.0
aa(lp7540
I0
aI0
aa(lp7541
F1.0
aF0.25
aa(lp7542
I0
aI0
aa(lp7543
F1.0
aI0
aa(lp7544
F0.9632183908045976
aF0.8357366771159874
aa(lp7545
I0
aI0
aa(lp7546
F1.0
aF1.0
aa(lp7547
I0
aI0
aa(lp7548
I0
aI0
aa(lp7549
F1.0
aI0
aa(lp7550
F1.0
aI0
aa(lp7551
I0
aI0
aa(lp7552
I0
aI0
aa(lp7553
I0
aI0
aa(lp7554
I0
aI0
aa(lp7555
I0
aI0
aa(lp7556
I0
aI0
aa(lp7557
I0
aI0
aa(lp7558
I0
aI0
aa(lp7559
F1.0
aF1.0
aa(lp7560
I0
aI0
aa(lp7561
I0
aI0
aa(lp7562
F1.0
aF1.0
aa(lp7563
F1.0
aF1.0
aa(lp7564
I0
aI0
aa(lp7565
F1.0
aI0
aa(lp7566
F0.0
aI0
aa(lp7567
I0
aI0
aa(lp7568
I0
aI0
aa(lp7569
F1.0
aI0
aa(lp7570
I0
aI0
aa(lp7571
I0
aI0
aa(lp7572
I0
aI0
aa(lp7573
F1.0
aI0
aa(lp7574
I0
aI0
aa(lp7575
I0
aI0
aa(lp7576
F1.0
aF1.0
aa(lp7577
F1.0
aI0
aa(lp7578
F1.0
aI0
aa(lp7579
F1.0
aI0
aa(lp7580
I0
aI0
aa(lp7581
F1.0
aF1.0
aa(lp7582
I0
aI0
aa(lp7583
I0
aI0
aa(lp7584
I0
aI0
aa(lp7585
F1.0
aI0
aa(lp7586
I0
aI0
aa(lp7587
F1.0
aF1.0
aa(lp7588
I0
aI0
aa(lp7589
I0
aI0
aa(lp7590
I0
aI0
aa(lp7591
I0
aI0
aa(lp7592
I0
aI0
aa(lp7593
I0
aI0
aa(lp7594
I0
aI0
aa(lp7595
I0
aI0
aa(lp7596
F0.8888888888888888
aF0.8888888888888888
aa(lp7597
I0
aI0
aa(lp7598
I0
aI0
aa(lp7599
F1.0
aI0
aa(lp7600
F1.0
aI0
aa(lp7601
I0
aI0
aa(lp7602
I0
aI0
aa(lp7603
I0
aI0
aa(lp7604
I0
aI0
aa(lp7605
I0
aI0
aa(lp7606
F1.0
aF1.0
aa(lp7607
I0
aI0
aa(lp7608
I0
aI0
aa(lp7609
I0
aI0
aa(lp7610
I0
aI0
aa(lp7611
I0
aI0
aa(lp7612
F1.0
aF1.0
aa(lp7613
I0
aI0
aa(lp7614
F0.75
aF0.6666666666666666
aa(lp7615
F1.0
aI0
aa(lp7616
I0
aI0
aa(lp7617
I0
aI0
aa(lp7618
I0
aI0
aa(lp7619
I0
aI0
aa(lp7620
I0
aI0
aa(lp7621
I0
aI0
aa(lp7622
F1.0
aI0
aa(lp7623
F0.0
aF0.0
aa(lp7624
F1.0
aI0
aa(lp7625
I0
aI0
aa(lp7626
I0
aI0
aa(lp7627
I0
aI0
aa(lp7628
I0
aI0
aa(lp7629
F1.0
aF1.0
aa(lp7630
F1.0
aF1.0
aa(lp7631
I0
aI0
aa(lp7632
I0
aI0
aa(lp7633
I0
aI0
aa(lp7634
F1.0
aI0
aa(lp7635
I0
aI0
aa(lp7636
F1.0
aF1.0
aa(lp7637
I0
aI0
aa(lp7638
I0
aI0
aa(lp7639
I0
aI0
aa(lp7640
I0
aI0
aa(lp7641
F1.0
aI0
aa(lp7642
I0
aI0
aa(lp7643
I0
aI0
aa(lp7644
F1.0
aI0
aa(lp7645
I0
aI0
aa(lp7646
I0
aI0
aa(lp7647
F1.0
aI0
aa(lp7648
I0
aI0
aa(lp7649
F0.0
aF0.0
aa(lp7650
I0
aI0
aa(lp7651
I0
aI0
aa(lp7652
I0
aI0
aa(lp7653
I0
aI0
aa(lp7654
F0.0
aI0
aa(lp7655
I0
aI0
aa(lp7656
I0
aI0
aa(lp7657
F1.0
aI0
aa(lp7658
F1.0
aF1.0
aa(lp7659
F1.0
aI0
aa(lp7660
F1.0
aI0
aa(lp7661
I0
aI0
aa(lp7662
I0
aI0
aa(lp7663
I0
aI0
aa(lp7664
F1.0
aI0
aa(lp7665
I0
aI0
aa(lp7666
I0
aI0
aa(lp7667
F1.0
aF1.0
aa(lp7668
I0
aI0
aa(lp7669
I0
aI0
aa(lp7670
F1.0
aI0
aa(lp7671
F1.0
aI0
aa(lp7672
I0
aI0
aa(lp7673
F1.0
aF1.0
aa(lp7674
I0
aI0
aa(lp7675
I0
aI0
aa(lp7676
I0
aI0
aa(lp7677
I0
aI0
aa(lp7678
F1.0
aI0
aa(lp7679
I0
aI0
aa(lp7680
I0
aI0
aa(lp7681
F1.0
aF1.0
aa(lp7682
F1.0
aF1.0
aa(lp7683
I0
aI0
aa(lp7684
I0
aI0
aa(lp7685
I0
aI0
aa(lp7686
I0
aI0
aa(lp7687
I0
aI0
aa(lp7688
I0
aI0
aa(lp7689
I0
aI0
aa(lp7690
F1.0
aI0
aa(lp7691
I0
aI0
aa(lp7692
I0
aI0
aa(lp7693
I0
aI0
aa(lp7694
I0
aI0
aa(lp7695
I0
aI0
aa(lp7696
I0
aI0
aa(lp7697
I0
aI0
aa(lp7698
I0
aI0
aa(lp7699
F1.0
aF1.0
aa(lp7700
I0
aI0
aa(lp7701
I0
aI0
aa(lp7702
I0
aI0
aa(lp7703
I0
aI0
aa(lp7704
I0
aI0
aa(lp7705
I0
aI0
aa(lp7706
F1.0
aI0
aa(lp7707
I0
aI0
aa(lp7708
I0
aI0
aa(lp7709
F1.0
aI0
aa(lp7710
F1.0
aI0
aa(lp7711
I0
aI0
aa(lp7712
F1.0
aI0
aa(lp7713
F1.0
aF1.0
aa(lp7714
F1.0
aI0
aa(lp7715
F1.0
aF1.0
aa(lp7716
F1.0
aI0
aa(lp7717
F1.0
aI0
aa(lp7718
I0
aI0
aa(lp7719
I0
aI0
aa(lp7720
F1.0
aI0
aa(lp7721
I0
aI0
aa(lp7722
I0
aI0
aa(lp7723
F1.0
aF1.0
aa(lp7724
I0
aI0
aa(lp7725
I0
aI0
aa(lp7726
I0
aI0
aa(lp7727
I0
aI0
aa(lp7728
I0
aI0
aa(lp7729
I0
aI0
aa(lp7730
F1.0
aI0
aa(lp7731
I0
aI0
aa(lp7732
I0
aI0
aa(lp7733
F1.0
aF1.0
aa(lp7734
I0
aI0
aa(lp7735
I0
aI0
aa(lp7736
I0
aI0
aa(lp7737
F1.0
aI0
aa(lp7738
I0
aI0
aa(lp7739
I0
aI0
aa(lp7740
I0
aI0
aa(lp7741
I0
aI0
aa(lp7742
F1.0
aI0
aa(lp7743
I0
aI0
aa(lp7744
I0
aI0
aa(lp7745
F1.0
aI0
aa(lp7746
I0
aI0
aa(lp7747
I0
aI0
aa(lp7748
I0
aI0
aa(lp7749
F1.0
aI0
aa(lp7750
I0
aI0
aa(lp7751
I0
aI0
aa(lp7752
I0
aI0
aa(lp7753
I0
aI0
aa(lp7754
I0
aI0
aa(lp7755
I0
aI0
aa(lp7756
F1.0
aI0
aa(lp7757
I0
aI0
aa(lp7758
F1.0
aF1.0
aa(lp7759
I0
aI0
aa(lp7760
I0
aI0
aa(lp7761
I0
aI0
aa(lp7762
I0
aI0
aa(lp7763
I0
aI0
aa(lp7764
I0
aI0
aa(lp7765
I0
aI0
aa(lp7766
F1.0
aI0
aa(lp7767
F1.0
aF1.0
aa(lp7768
I0
aI0
aa(lp7769
I0
aI0
aa(lp7770
F1.0
aI0
aa(lp7771
I0
aI0
aa(lp7772
I0
aI0
aa(lp7773
I0
aI0
aa(lp7774
F0.0
aI0
aa(lp7775
I0
aI0
aa(lp7776
F1.0
aI0
aa(lp7777
I0
aI0
aa(lp7778
I0
aI0
aa(lp7779
I0
aI0
aa(lp7780
I0
aI0
aa(lp7781
F1.0
aI0
aa(lp7782
I0
aI0
aa(lp7783
F1.0
aI0
aa(lp7784
F1.0
aF1.0
aa(lp7785
I0
aI0
aa(lp7786
F1.0
aI0
aa(lp7787
I0
aI0
aa(lp7788
F1.0
aF1.0
aa(lp7789
F1.0
aF1.0
aa(lp7790
I0
aI0
aa(lp7791
I0
aI0
aa(lp7792
F1.0
aI0
aa(lp7793
I0
aI0
aa(lp7794
I0
aI0
aa(lp7795
I0
aI0
aa(lp7796
I0
aI0
aa(lp7797
F0.0
aI0
aa(lp7798
I0
aI0
aa(lp7799
I0
aI0
aa(lp7800
F1.0
aI0
aa(lp7801
I0
aI0
aa(lp7802
I0
aI0
aa(lp7803
I0
aI0
aa(lp7804
I0
aI0
aa(lp7805
I0
aI0
aa(lp7806
I0
aI0
aa(lp7807
F1.0
aI0
aa(lp7808
F1.0
aI0
aa(lp7809
I0
aI0
aa(lp7810
I0
aI0
aa(lp7811
I0
aI0
aa(lp7812
I0
aI0
aa(lp7813
F1.0
aI0
aa(lp7814
I0
aI0
aa(lp7815
I0
aI0
aa(lp7816
I0
aI0
aa(lp7817
I0
aI0
aa(lp7818
I0
aI0
aa(lp7819
I0
aI0
aa(lp7820
I0
aI0
aa(lp7821
F1.0
aF1.0
aa(lp7822
I0
aI0
aa(lp7823
F0.9285250162443144
aF0.7256778309409888
aa(lp7824
I0
aI0
aa(lp7825
F1.0
aI0
aa(lp7826
I0
aI0
aa(lp7827
I0
aI0
aa(lp7828
F1.0
aF1.0
aa(lp7829
F0.9111111111111111
aF0.8888888888888888
aa(lp7830
I0
aI0
aa(lp7831
I0
aI0
aa(lp7832
I0
aI0
aa(lp7833
I0
aI0
aa(lp7834
F1.0
aF1.0
aa(lp7835
I0
aI0
aa(lp7836
I0
aI0
aa(lp7837
I0
aI0
aa(lp7838
I0
aI0
aa(lp7839
I0
aI0
aa(lp7840
I0
aI0
aa(lp7841
I0
aI0
aa(lp7842
I0
aI0
aa(lp7843
F1.0
aF1.0
aa(lp7844
F1.0
aF0.7777777777777778
aa(lp7845
F1.0
aI0
aa(lp7846
I0
aI0
aa(lp7847
I0
aI0
aa(lp7848
F1.0
aF1.0
aa(lp7849
F0.0
aF0.0
aa(lp7850
F0.2
aF0.2
aa(lp7851
I0
aI0
aa(lp7852
F0.9444444444444444
aF0.8888888888888888
aa(lp7853
F1.0
aF1.0
aa(lp7854
I0
aI0
aa(lp7855
F0.0
aF0.0
aa(lp7856
F1.0
aF1.0
aa(lp7857
F1.0
aF1.0
aa(lp7858
F0.2
aF0.2
aa(lp7859
F0.9933333333333334
aF1.0
aa(lp7860
F0.8461538461538461
aI0
aa(lp7861
I0
aI0
aa(lp7862
I0
aI0
aa(lp7863
F1.0
aF1.0
aa(lp7864
F0.8
aF0.8
aa(lp7865
F1.0
aF1.0
aa(lp7866
I0
aI0
aa(lp7867
F0.8
aF0.6
aa(lp7868
F1.0
aI0
aa(lp7869
I0
aI0
aa(lp7870
I0
aI0
aa(lp7871
F1.0
aI0
aa(lp7872
I0
aI0
aa(lp7873
I0
aI0
aa(lp7874
I0
aI0
aa(lp7875
I0
aI0
aa(lp7876
I0
aI0
aa(lp7877
I0
aI0
aa(lp7878
I0
aI0
aa(lp7879
F1.0
aF1.0
aa(lp7880
I0
aI0
aa(lp7881
I0
aI0
aa(lp7882
F0.0
aF0.0
aa(lp7883
F0.0
aI0
aa(lp7884
I0
aI0
aa(lp7885
I0
aI0
aa(lp7886
I0
aI0
aa(lp7887
I0
aI0
aa(lp7888
I0
aI0
aa(lp7889
F1.0
aI0
aa(lp7890
I0
aI0
aa(lp7891
F1.0
aF1.0
aa(lp7892
I0
aI0
aa(lp7893
I0
aI0
aa(lp7894
I0
aI0
aa(lp7895
F1.0
aI0
aa(lp7896
F0.9166666666666666
aF0.75
aa(lp7897
F1.0
aF1.0
aa(lp7898
F1.0
aF1.0
aa(lp7899
I0
aI0
aa(lp7900
F0.0
aF0.0
aa(lp7901
I0
aI0
aa(lp7902
F1.0
aI0
aa(lp7903
F1.0
aI0
aa(lp7904
I0
aI0
aa(lp7905
F1.0
aF1.0
aa(lp7906
I0
aI0
aa(lp7907
F1.0
aF1.0
aa(lp7908
I0
aI0
aa(lp7909
I0
aI0
aa(lp7910
I0
aI0
aa(lp7911
F1.0
aI0
aa(lp7912
I0
aI0
aa(lp7913
F1.0
aI0
aa(lp7914
F1.0
aI0
aa(lp7915
F1.0
aI0
aa(lp7916
I0
aI0
aa(lp7917
I0
aI0
aa(lp7918
I0
aI0
aa(lp7919
I0
aI0
aa(lp7920
I0
aI0
aa(lp7921
I0
aI0
aa(lp7922
I0
aI0
aa(lp7923
I0
aI0
aa(lp7924
I0
aI0
aa(lp7925
I0
aI0
aa(lp7926
I0
aI0
aa(lp7927
F1.0
aF1.0
aa(lp7928
I0
aI0
aa(lp7929
I0
aI0
aa(lp7930
F1.0
aI0
aa(lp7931
I0
aI0
aa(lp7932
I0
aI0
aa(lp7933
I0
aI0
aa(lp7934
F1.0
aI0
aa(lp7935
I0
aI0
aa(lp7936
F1.0
aI0
aa(lp7937
I0
aI0
aa(lp7938
I0
aI0
aa(lp7939
F1.0
aF1.0
aa(lp7940
I0
aI0
aa(lp7941
I0
aI0
aa(lp7942
F0.9487179487179488
aI0
aa(lp7943
I0
aI0
aa(lp7944
I0
aI0
aa(lp7945
I0
aI0
aa(lp7946
I0
aI0
aa(lp7947
I0
aI0
aa(lp7948
I0
aI0
aa(lp7949
I0
aI0
aa(lp7950
I0
aI0
aa(lp7951
I0
aI0
aa(lp7952
I0
aI0
aa(lp7953
I0
aI0
aa(lp7954
F1.0
aI0
aa(lp7955
I0
aI0
aa(lp7956
I0
aI0
aa(lp7957
F1.0
aF1.0
aa(lp7958
I0
aI0
aa(lp7959
F1.0
aF1.0
aa(lp7960
I0
aI0
aa(lp7961
I0
aI0
aa(lp7962
F1.0
aF1.0
aa(lp7963
F1.0
aI0
aa(lp7964
F1.0
aF1.0
aa(lp7965
I0
aI0
aa(lp7966
I0
aI0
aa(lp7967
I0
aI0
aa(lp7968
F1.0
aI0
aa(lp7969
F1.0
aF1.0
aa(lp7970
F0.0
aF0.0
aa(lp7971
F1.0
aF1.0
aa(lp7972
I0
aI0
aa(lp7973
I0
aI0
aa(lp7974
F1.0
aI0
aa(lp7975
F1.0
aF0.6666666666666666
aa(lp7976
I0
aI0
aa(lp7977
F0.0
aI0
aa(lp7978
I0
aI0
aa(lp7979
F1.0
aI0
aa(lp7980
I0
aI0
aa(lp7981
I0
aI0
aa(lp7982
I0
aI0
aa(lp7983
I0
aI0
aa(lp7984
I0
aI0
aa(lp7985
F1.0
aF1.0
aa(lp7986
I0
aI0
aa(lp7987
I0
aI0
aa(lp7988
I0
aI0
aa(lp7989
I0
aI0
aa(lp7990
I0
aI0
aa(lp7991
I0
aI0
aa(lp7992
I0
aI0
aa(lp7993
I0
aI0
aa(lp7994
I0
aI0
aa(lp7995
I0
aI0
aa(lp7996
I0
aI0
aa(lp7997
I0
aI0
aa(lp7998
I0
aI0
aa(lp7999
I0
aI0
aa(lp8000
I0
aI0
aa(lp8001
I0
aI0
aa(lp8002
I0
aI0
aa(lp8003
I0
aI0
aa(lp8004
F0.0
aF0.0
aa(lp8005
I0
aI0
aa(lp8006
I0
aI0
aa(lp8007
I0
aI0
aa(lp8008
F1.0
aF1.0
aa(lp8009
I0
aI0
aa(lp8010
I0
aI0
aa(lp8011
I0
aI0
aa(lp8012
I0
aI0
aa(lp8013
F1.0
aF1.0
aa(lp8014
I0
aI0
aa(lp8015
I0
aI0
aa(lp8016
F1.0
aI0
aa(lp8017
I0
aI0
aa(lp8018
I0
aI0
aa(lp8019
F1.0
aI0
aa(lp8020
I0
aI0
aa(lp8021
I0
aI0
aa(lp8022
I0
aI0
aa(lp8023
F1.0
aI0
aa(lp8024
I0
aI0
aa(lp8025
I0
aI0
aa(lp8026
I0
aI0
aa(lp8027
F1.0
aI0
aa(lp8028
I0
aI0
aa(lp8029
F1.0
aF1.0
aa(lp8030
F1.0
aF1.0
aa(lp8031
I0
aI0
aa(lp8032
F1.0
aI0
aa(lp8033
I0
aI0
aa(lp8034
I0
aI0
aa(lp8035
I0
aI0
aa(lp8036
F1.0
aF1.0
aa(lp8037
I0
aI0
aa(lp8038
F1.0
aI0
aa(lp8039
I0
aI0
aa(lp8040
F1.0
aI0
aa(lp8041
I0
aI0
aa(lp8042
F1.0
aF1.0
aa(lp8043
I0
aI0
aa(lp8044
F1.0
aF1.0
aa(lp8045
F1.0
aF0.9384615384615385
aa(lp8046
I0
aI0
aa(lp8047
F1.0
aI0
aa(lp8048
I0
aI0
aa(lp8049
F1.0
aI0
aa(lp8050
F1.0
aI0
aa(lp8051
F0.9876543209876544
aF0.9333333333333332
aa(lp8052
I0
aI0
aa(lp8053
F1.0
aI0
aa(lp8054
F1.0
aF1.0
aa(lp8055
F0.0
aF0.0
aa(lp8056
F0.9408369408369407
aF0.9400352733686067
aa(lp8057
I0
aI0
aa(lp8058
F1.0
aI0
aa(lp8059
I0
aI0
aa(lp8060
I0
aI0
aa(lp8061
I0
aI0
aa(lp8062
I0
aI0
aa(lp8063
F1.0
aI0
aa(lp8064
I0
aI0
aa(lp8065
I0
aI0
aa(lp8066
I0
aI0
aa(lp8067
I0
aI0
aa(lp8068
I0
aI0
aa(lp8069
I0
aI0
aa(lp8070
I0
aI0
aa(lp8071
F1.0
aF1.0
aa(lp8072
F0.7028873719575806
aF0.5701717637201508
aa(lp8073
F1.0
aF1.0
aa(lp8074
F1.0
aF1.0
aa(lp8075
F0.9833333333333334
aF0.9800000000000001
aa(lp8076
I0
aI0
aa(lp8077
I0
aI0
aa(lp8078
F1.0
aF1.0
aa(lp8079
I0
aI0
aa(lp8080
F1.0
aI0
aa(lp8081
I0
aI0
aa(lp8082
I0
aI0
aa(lp8083
I0
aI0
aa(lp8084
I0
aI0
aa(lp8085
F1.0
aI0
aa(lp8086
I0
aI0
aa(lp8087
I0
aI0
aa(lp8088
I0
aI0
aa(lp8089
I0
aI0
aa(lp8090
F1.0
aI0
aa(lp8091
I0
aI0
aa(lp8092
I0
aI0
aa(lp8093
I0
aI0
aa(lp8094
I0
aI0
aa(lp8095
I0
aI0
aa(lp8096
F1.0
aI0
aa(lp8097
I0
aI0
aa(lp8098
F0.9629629629629629
aF0.9444444444444444
aa(lp8099
I0
aI0
aa(lp8100
I0
aI0
aa(lp8101
F1.0
aI0
aa(lp8102
I0
aI0
aa(lp8103
I0
aI0
aa(lp8104
I0
aI0
aa(lp8105
F1.0
aI0
aa(lp8106
I0
aI0
aa(lp8107
I0
aI0
aa(lp8108
I0
aI0
aa(lp8109
I0
aI0
aa(lp8110
I0
aI0
aa(lp8111
F1.0
aF1.0
aa(lp8112
F1.0
aF1.0
aa(lp8113
F1.0
aF1.0
aa(lp8114
I0
aI0
aa(lp8115
F1.0
aI0
aa(lp8116
I0
aI0
aa(lp8117
F1.0
aF1.0
aa(lp8118
F1.0
aF1.0
aa(lp8119
I0
aI0
aa(lp8120
I0
aI0
aa(lp8121
I0
aI0
aa(lp8122
I0
aI0
aa(lp8123
I0
aI0
aa(lp8124
I0
aI0
aa(lp8125
I0
aI0
aa(lp8126
F1.0
aI0
aa(lp8127
I0
aI0
aa(lp8128
I0
aI0
aa(lp8129
I0
aI0
aa(lp8130
F1.0
aI0
aa(lp8131
I0
aI0
aa(lp8132
I0
aI0
aa(lp8133
F1.0
aF1.0
aa(lp8134
F1.0
aF0.2
aa(lp8135
I0
aI0
aa(lp8136
I0
aI0
aa(lp8137
F1.0
aI0
aa(lp8138
I0
aI0
aa(lp8139
F1.0
aF1.0
aa(lp8140
F1.0
aI0
aa(lp8141
I0
aI0
aa(lp8142
I0
aI0
aa(lp8143
I0
aI0
aa(lp8144
I0
aI0
aa(lp8145
F1.0
aF1.0
aa(lp8146
F1.0
aF1.0
aa(lp8147
F0.0
aI0
aa(lp8148
I0
aI0
aa(lp8149
I0
aI0
aa(lp8150
F1.0
aI0
aa(lp8151
I0
aI0
aa(lp8152
I0
aI0
aa(lp8153
F1.0
aI0
aa(lp8154
I0
aI0
aa(lp8155
F1.0
aI0
aa(lp8156
I0
aI0
aa(lp8157
I0
aI0
aa(lp8158
I0
aI0
aa(lp8159
F1.0
aI0
aa(lp8160
I0
aI0
aa(lp8161
I0
aI0
aa(lp8162
I0
aI0
aa(lp8163
I0
aI0
aa(lp8164
I0
aI0
aa(lp8165
F1.0
aI0
aa(lp8166
I0
aI0
aa(lp8167
I0
aI0
aa(lp8168
I0
aI0
aa(lp8169
F1.0
aF1.0
aa(lp8170
I0
aI0
aa(lp8171
F1.0
aI0
aa(lp8172
F1.0
aF1.0
aa(lp8173
I0
aI0
aa(lp8174
F1.0
aI0
aa(lp8175
F1.0
aF1.0
aa(lp8176
I0
aI0
aa(lp8177
I0
aI0
aa(lp8178
I0
aI0
aa(lp8179
I0
aI0
aa(lp8180
F1.0
aI0
aa(lp8181
F1.0
aI0
aa(lp8182
I0
aI0
aa(lp8183
I0
aI0
aa(lp8184
I0
aI0
aa(lp8185
I0
aI0
aa(lp8186
I0
aI0
aa(lp8187
F1.0
aI0
aa(lp8188
I0
aI0
aa(lp8189
I0
aI0
aa(lp8190
I0
aI0
aa(lp8191
I0
aI0
aa(lp8192
I0
aI0
aa(lp8193
I0
aI0
aa(lp8194
F1.0
aI0
aa(lp8195
F1.0
aI0
aa(lp8196
I0
aI0
aa(lp8197
I0
aI0
aa(lp8198
I0
aI0
aa(lp8199
I0
aI0
aa(lp8200
I0
aI0
aa(lp8201
F1.0
aF1.0
aa(lp8202
I0
aI0
aa(lp8203
I0
aI0
aa(lp8204
F1.0
aF1.0
aa(lp8205
I0
aI0
aa(lp8206
I0
aI0
aa(lp8207
F0.8461538461538461
aI0
aa(lp8208
I0
aI0
aa(lp8209
I0
aI0
aa(lp8210
I0
aI0
aa(lp8211
I0
aI0
aa(lp8212
I0
aI0
aa(lp8213
I0
aI0
aa(lp8214
I0
aI0
aa(lp8215
I0
aI0
aa(lp8216
I0
aI0
aa(lp8217
I0
aI0
aa(lp8218
I0
aI0
aa(lp8219
F1.0
aI0
aa(lp8220
F1.0
aF1.0
aa(lp8221
I0
aI0
aa(lp8222
I0
aI0
aa(lp8223
I0
aI0
aa(lp8224
I0
aI0
aa(lp8225
I0
aI0
aa(lp8226
I0
aI0
aa(lp8227
I0
aI0
aa(lp8228
I0
aI0
aa(lp8229
I0
aI0
aa(lp8230
I0
aI0
aa(lp8231
I0
aI0
aa(lp8232
F1.0
aF1.0
aa(lp8233
I0
aI0
aa(lp8234
I0
aI0
aa(lp8235
F1.0
aI0
aa(lp8236
I0
aI0
aa(lp8237
I0
aI0
aa(lp8238
I0
aI0
aa(lp8239
I0
aI0
aa(lp8240
I0
aI0
aa(lp8241
I0
aI0
aa(lp8242
I0
aI0
aa(lp8243
I0
aI0
aa(lp8244
I0
aI0
aa(lp8245
F1.0
aF1.0
aa(lp8246
I0
aI0
aa(lp8247
I0
aI0
aa(lp8248
I0
aI0
aa(lp8249
I0
aI0
aa(lp8250
I0
aI0
aa(lp8251
I0
aI0
aa(lp8252
I0
aI0
aa(lp8253
I0
aI0
aa(lp8254
I0
aI0
aa(lp8255
I0
aI0
aa(lp8256
I0
aI0
aa(lp8257
F1.0
aI0
aa(lp8258
I0
aI0
aa(lp8259
I0
aI0
aa(lp8260
I0
aI0
aa(lp8261
I0
aI0
aa(lp8262
I0
aI0
aa(lp8263
I0
aI0
aa(lp8264
I0
aI0
aa(lp8265
I0
aI0
aa(lp8266
I0
aI0
aa(lp8267
I0
aI0
aa(lp8268
I0
aI0
aa(lp8269
F1.0
aF1.0
aa(lp8270
I0
aI0
aa(lp8271
I0
aI0
aa(lp8272
I0
aI0
aa(lp8273
F1.0
aI0
aa(lp8274
I0
aI0
aa(lp8275
I0
aI0
aa(lp8276
I0
aI0
aa(lp8277
I0
aI0
aa(lp8278
I0
aI0
aa(lp8279
F1.0
aI0
aa(lp8280
I0
aI0
aa(lp8281
I0
aI0
aa(lp8282
I0
aI0
aa(lp8283
I0
aI0
aa(lp8284
I0
aI0
aa(lp8285
I0
aI0
aa(lp8286
I0
aI0
aa(lp8287
F1.0
aF1.0
aa(lp8288
I0
aI0
aa(lp8289
I0
aI0
aa(lp8290
F1.0
aF1.0
aa(lp8291
I0
aI0
aa(lp8292
I0
aI0
aa(lp8293
I0
aI0
aa(lp8294
I0
aI0
aa(lp8295
I0
aI0
aa(lp8296
I0
aI0
aa(lp8297
F0.8888888888888888
aI0
aa(lp8298
I0
aI0
aa(lp8299
I0
aI0
aa(lp8300
I0
aI0
aa(lp8301
I0
aI0
aa(lp8302
I0
aI0
aa(lp8303
I0
aI0
aa(lp8304
I0
aI0
aa(lp8305
I0
aI0
aa(lp8306
I0
aI0
aa(lp8307
I0
aI0
aa(lp8308
I0
aI0
aa(lp8309
I0
aI0
aa(lp8310
I0
aI0
aa(lp8311
I0
aI0
aa(lp8312
I0
aI0
aa(lp8313
I0
aI0
aa(lp8314
F1.0
aI0
aa(lp8315
I0
aI0
aa(lp8316
I0
aI0
aa(lp8317
I0
aI0
aa(lp8318
I0
aI0
aa(lp8319
I0
aI0
aa(lp8320
I0
aI0
aa(lp8321
I0
aI0
aa(lp8322
I0
aI0
aa(lp8323
I0
aI0
aa(lp8324
I0
aI0
aa(lp8325
I0
aI0
aa(lp8326
I0
aI0
aa(lp8327
I0
aI0
aa(lp8328
F1.0
aI0
aa(lp8329
I0
aI0
aa(lp8330
I0
aI0
aa(lp8331
I0
aI0
aa(lp8332
F1.0
aI0
aa(lp8333
I0
aI0
aa(lp8334
I0
aI0
aa(lp8335
I0
aI0
aa(lp8336
I0
aI0
aa(lp8337
I0
aI0
aa(lp8338
I0
aI0
aa(lp8339
I0
aI0
aa(lp8340
I0
aI0
aa(lp8341
I0
aI0
aa(lp8342
I0
aI0
aa(lp8343
I0
aI0
aa(lp8344
I0
aI0
aa(lp8345
I0
aI0
aa(lp8346
I0
aI0
aa(lp8347
I0
aI0
aa(lp8348
I0
aI0
aa(lp8349
I0
aI0
aa(lp8350
I0
aI0
aa(lp8351
I0
aI0
aa(lp8352
I0
aI0
aa(lp8353
I0
aI0
aa(lp8354
I0
aI0
aa(lp8355
I0
aI0
aa(lp8356
F0.6666666666666666
aF1.0
aa(lp8357
I0
aI0
aa(lp8358
I0
aI0
aa(lp8359
I0
aI0
aa(lp8360
I0
aI0
aa(lp8361
I0
aI0
aa(lp8362
I0
aI0
aa(lp8363
I0
aI0
aa(lp8364
I0
aI0
aa(lp8365
I0
aI0
aa(lp8366
I0
aI0
aa(lp8367
I0
aI0
aa(lp8368
I0
aI0
aa(lp8369
I0
aI0
aa(lp8370
I0
aI0
aa(lp8371
I0
aI0
aa(lp8372
I0
aI0
aa(lp8373
I0
aI0
aa(lp8374
I0
aI0
aa(lp8375
I0
aI0
aa(lp8376
I0
aI0
aa(lp8377
I0
aI0
aa(lp8378
I0
aI0
aa(lp8379
I0
aI0
aa(lp8380
F1.0
aF1.0
aa(lp8381
I0
aI0
aa(lp8382
I0
aI0
aa(lp8383
I0
aI0
aa(lp8384
I0
aI0
aa(lp8385
I0
aI0
aa(lp8386
I0
aI0
aa(lp8387
I0
aI0
aa(lp8388
I0
aI0
aa(lp8389
I0
aI0
aa(lp8390
I0
aI0
aa(lp8391
I0
aI0
aa(lp8392
I0
aI0
aa(lp8393
I0
aI0
aa(lp8394
F1.0
aI0
aa(lp8395
I0
aI0
aa(lp8396
I0
aI0
aa(lp8397
I0
aI0
aa(lp8398
I0
aI0
aa(lp8399
I0
aI0
aa(lp8400
I0
aI0
aa(lp8401
I0
aI0
aa(lp8402
I0
aI0
aa(lp8403
I0
aI0
aa(lp8404
F1.0
aI0
aa(lp8405
F1.0
aF1.0
aa(lp8406
F1.0
aI0
aa(lp8407
I0
aI0
aa(lp8408
F1.0
aI0
aa(lp8409
I0
aI0
aa(lp8410
F1.0
aF1.0
aa(lp8411
I0
aI0
aa(lp8412
F1.0
aI0
aa(lp8413
I0
aI0
aa(lp8414
I0
aI0
aa(lp8415
I0
aI0
aa(lp8416
I0
aI0
aa(lp8417
I0
aI0
aa(lp8418
I0
aI0
aa(lp8419
I0
aI0
aa(lp8420
F1.0
aF1.0
aa(lp8421
I0
aI0
aa(lp8422
I0
aI0
aa(lp8423
I0
aI0
aa(lp8424
F1.0
aI0
aa(lp8425
I0
aI0
aa(lp8426
I0
aI0
aa(lp8427
I0
aI0
aa(lp8428
F1.0
aF1.0
aa(lp8429
F1.0
aI0
aa(lp8430
F1.0
aI0
aa(lp8431
I0
aI0
aa(lp8432
I0
aI0
aa(lp8433
F1.0
aF1.0
aa(lp8434
F1.0
aF1.0
aa(lp8435
F1.0
aI0
aa(lp8436
I0
aI0
aa(lp8437
F1.0
aF1.0
aa(lp8438
F1.0
aF1.0
aa(lp8439
I0
aI0
aa(lp8440
I0
aI0
aa(lp8441
I0
aI0
aa(lp8442
I0
aI0
aa(lp8443
I0
aI0
aa(lp8444
I0
aI0
aa(lp8445
I0
aI0
aa(lp8446
I0
aI0
aa(lp8447
F1.0
aF1.0
aa(lp8448
F1.0
aF1.0
aa(lp8449
I0
aI0
aa(lp8450
F1.0
aF1.0
aa(lp8451
I0
aI0
aa(lp8452
I0
aI0
aa(lp8453
F1.0
aF1.0
aa(lp8454
I0
aI0
aa(lp8455
F1.0
aI0
aa(lp8456
I0
aI0
aa(lp8457
F1.0
aI0
aa(lp8458
F1.0
aF1.0
aa(lp8459
I0
aI0
aa(lp8460
I0
aI0
aa(lp8461
I0
aI0
aa(lp8462
I0
aI0
aa(lp8463
F1.0
aI0
aa(lp8464
F1.0
aI0
aa(lp8465
I0
aI0
aa(lp8466
F1.0
aF1.0
aa(lp8467
F1.0
aF1.0
aa(lp8468
I0
aI0
aa(lp8469
F1.0
aI0
aa(lp8470
F1.0
aF1.0
aa(lp8471
I0
aI0
aa(lp8472
I0
aI0
aa(lp8473
I0
aI0
aa(lp8474
I0
aI0
aa(lp8475
F1.0
aI0
aa(lp8476
I0
aI0
aa(lp8477
I0
aI0
aa(lp8478
F1.0
aI0
aa(lp8479
I0
aI0
aa(lp8480
I0
aI0
aa(lp8481
F1.0
aF1.0
aa(lp8482
F1.0
aI0
aa(lp8483
I0
aI0
aa(lp8484
F1.0
aI0
aa(lp8485
F1.0
aI0
aa(lp8486
F1.0
aI0
aa(lp8487
F1.0
aF1.0
aa(lp8488
I0
aI0
aa(lp8489
I0
aI0
aa(lp8490
I0
aI0
aa(lp8491
F1.0
aI0
aa(lp8492
I0
aI0
aa(lp8493
F1.0
aI0
aa(lp8494
F1.0
aF1.0
aa(lp8495
F1.0
aI0
aa(lp8496
F1.0
aF1.0
aa(lp8497
I0
aI0
aa(lp8498
I0
aI0
aa(lp8499
I0
aI0
aa(lp8500
I0
aI0
aa(lp8501
F1.0
aI0
aa(lp8502
I0
aI0
aa(lp8503
I0
aI0
aa(lp8504
I0
aI0
aa(lp8505
F1.0
aI0
aa(lp8506
F1.0
aI0
aa(lp8507
I0
aI0
aa(lp8508
I0
aI0
aa(lp8509
I0
aI0
aa(lp8510
I0
aI0
aa(lp8511
I0
aI0
aa(lp8512
I0
aI0
aa(lp8513
I0
aI0
aa(lp8514
I0
aI0
aa(lp8515
I0
aI0
aa(lp8516
F1.0
aI0
aa(lp8517
I0
aI0
aa(lp8518
I0
aI0
aa(lp8519
I0
aI0
aa(lp8520
I0
aI0
aa(lp8521
I0
aI0
aa(lp8522
I0
aI0
aa(lp8523
F1.0
aI0
aa(lp8524
I0
aI0
aa(lp8525
F0.0
aI0
aa(lp8526
F1.0
aI0
aa(lp8527
F1.0
aI0
aa(lp8528
I0
aI0
aa(lp8529
F1.0
aI0
aa(lp8530
F0.9923076923076923
aF1.0
aa(lp8531
I0
aI0
aa(lp8532
F1.0
aI0
aa(lp8533
I0
aI0
aa(lp8534
F1.0
aF1.0
aa(lp8535
F1.0
aI0
aa(lp8536
I0
aI0
aa(lp8537
I0
aI0
aa(lp8538
I0
aI0
aa(lp8539
F1.0
aI0
aa(lp8540
I0
aI0
aa(lp8541
I0
aI0
aa(lp8542
I0
aI0
aa(lp8543
F1.0
aI0
aa(lp8544
I0
aI0
aa(lp8545
I0
aI0
aa(lp8546
F1.0
aI0
aa(lp8547
I0
aI0
aa(lp8548
F1.0
aI0
aa(lp8549
F1.0
aI0
aa(lp8550
I0
aI0
aa(lp8551
I0
aI0
aa(lp8552
I0
aI0
aa(lp8553
I0
aI0
aa(lp8554
I0
aI0
aa(lp8555
I0
aI0
aa(lp8556
F1.0
aF1.0
aa(lp8557
I0
aI0
aa(lp8558
I0
aI0
aa(lp8559
F1.0
aI0
aa(lp8560
F1.0
aF1.0
aa(lp8561
I0
aI0
aa(lp8562
F1.0
aF1.0
aa(lp8563
I0
aI0
aa(lp8564
I0
aI0
aa(lp8565
F1.0
aI0
aa(lp8566
F1.0
aI0
aa(lp8567
I0
aI0
aa(lp8568
F1.0
aI0
aa(lp8569
I0
aI0
aa(lp8570
I0
aI0
aa(lp8571
F1.0
aI0
aa(lp8572
I0
aI0
aa(lp8573
I0
aI0
aa(lp8574
I0
aI0
aa(lp8575
F1.0
aF1.0
aa(lp8576
I0
aI0
aa(lp8577
I0
aI0
aa(lp8578
F1.0
aI0
aa(lp8579
I0
aI0
aa(lp8580
F1.0
aI0
aa(lp8581
I0
aI0
aa(lp8582
I0
aI0
aa(lp8583
I0
aI0
aa(lp8584
I0
aI0
aa(lp8585
F1.0
aI0
aa(lp8586
I0
aI0
aa(lp8587
F1.0
aI0
aa(lp8588
I0
aI0
aa(lp8589
I0
aI0
aa(lp8590
I0
aI0
aa(lp8591
F1.0
aI0
aa(lp8592
I0
aI0
aa(lp8593
F1.0
aI0
aa(lp8594
I0
aI0
aa(lp8595
F0.0
aI0
aa(lp8596
F1.0
aI0
aa(lp8597
I0
aI0
aa(lp8598
I0
aI0
aa(lp8599
I0
aI0
aa(lp8600
I0
aI0
aa(lp8601
F1.0
aF1.0
aa(lp8602
I0
aI0
aa(lp8603
I0
aI0
aa(lp8604
F1.0
aF1.0
aa(lp8605
I0
aI0
aa(lp8606
F1.0
aI0
aa(lp8607
F1.0
aI0
aa(lp8608
F1.0
aF1.0
aa(lp8609
I0
aI0
aa(lp8610
I0
aI0
aa(lp8611
I0
aI0
aa(lp8612
F1.0
aI0
aa(lp8613
F1.0
aF1.0
aa(lp8614
I0
aI0
aa(lp8615
F1.0
aI0
aa(lp8616
F1.0
aI0
aa(lp8617
I0
aI0
aa(lp8618
F1.0
aF1.0
aa(lp8619
I0
aI0
aa(lp8620
F0.625
aF0.25
aa(lp8621
I0
aI0
aa(lp8622
F1.0
aI0
aa(lp8623
I0
aI0
aa(lp8624
I0
aI0
aa(lp8625
F1.0
aF1.0
aa(lp8626
F1.0
aF1.0
aa(lp8627
I0
aI0
aa(lp8628
I0
aI0
aa(lp8629
I0
aI0
aa(lp8630
I0
aI0
aa(lp8631
F1.0
aI0
aa(lp8632
I0
aI0
aa(lp8633
I0
aI0
aa(lp8634
I0
aI0
aa(lp8635
F1.0
aI0
aa(lp8636
F0.0
aF0.0
aa(lp8637
I0
aI0
aa(lp8638
I0
aI0
aa(lp8639
F1.0
aI0
aa(lp8640
I0
aI0
aa(lp8641
I0
aI0
aa(lp8642
F1.0
aI0
aa(lp8643
I0
aI0
aa(lp8644
I0
aI0
aa(lp8645
I0
aI0
aa(lp8646
I0
aI0
aa(lp8647
I0
aI0
aa(lp8648
I0
aI0
aa(lp8649
I0
aI0
aa(lp8650
F1.0
aF1.0
aa(lp8651
I0
aI0
aa(lp8652
I0
aI0
aa(lp8653
I0
aI0
aa(lp8654
I0
aI0
aa(lp8655
I0
aI0
aa(lp8656
I0
aI0
aa(lp8657
I0
aI0
aa(lp8658
I0
aI0
aa(lp8659
I0
aI0
aa(lp8660
I0
aI0
aa(lp8661
I0
aI0
aa(lp8662
I0
aI0
aa(lp8663
F1.0
aI0
aa(lp8664
I0
aI0
aa(lp8665
I0
aI0
aa(lp8666
I0
aI0
aa(lp8667
I0
aI0
aa(lp8668
I0
aI0
aa(lp8669
I0
aI0
aa(lp8670
I0
aI0
aa(lp8671
F1.0
aI0
aa(lp8672
I0
aI0
aa(lp8673
I0
aI0
aa(lp8674
I0
aI0
aa(lp8675
I0
aI0
aa(lp8676
I0
aI0
aa(lp8677
F1.0
aF1.0
aa(lp8678
F0.0
aF0.0
aa(lp8679
I0
aI0
aa(lp8680
I0
aI0
aa(lp8681
F1.0
aF1.0
aa(lp8682
I0
aI0
aa(lp8683
F1.0
aI0
aa(lp8684
I0
aI0
aa(lp8685
F1.0
aI0
aa(lp8686
I0
aI0
aa(lp8687
I0
aI0
aa(lp8688
I0
aI0
aa(lp8689
I0
aI0
aa(lp8690
I0
aI0
aa(lp8691
F1.0
aI0
aa(lp8692
I0
aI0
aa(lp8693
I0
aI0
aa(lp8694
F1.0
aI0
aa(lp8695
I0
aI0
aa(lp8696
F1.0
aI0
aa(lp8697
I0
aI0
aa(lp8698
I0
aI0
aa(lp8699
I0
aI0
aa(lp8700
F0.0
aI0
aa(lp8701
I0
aI0
aa(lp8702
I0
aI0
aa(lp8703
F1.0
aF1.0
aa(lp8704
I0
aI0
aa(lp8705
I0
aI0
aa(lp8706
I0
aI0
aa(lp8707
I0
aI0
aa(lp8708
I0
aI0
aa(lp8709
F1.0
aI0
aa(lp8710
F1.0
aI0
aa(lp8711
I0
aI0
aa(lp8712
I0
aI0
aa(lp8713
I0
aI0
aa(lp8714
F1.0
aF1.0
aa(lp8715
I0
aI0
aa(lp8716
F1.0
aI0
aa(lp8717
I0
aI0
aa(lp8718
F1.0
aF1.0
aa(lp8719
I0
aI0
aa(lp8720
I0
aI0
aa(lp8721
I0
aI0
aa(lp8722
I0
aI0
aa(lp8723
I0
aI0
aa(lp8724
I0
aI0
aa(lp8725
I0
aI0
aa(lp8726
I0
aI0
aa(lp8727
I0
aI0
aa(lp8728
I0
aI0
aa(lp8729
I0
aI0
aa(lp8730
F1.0
aI0
aa(lp8731
I0
aI0
aa(lp8732
I0
aI0
aa(lp8733
F0.875
aF0.875
aa(lp8734
I0
aI0
aa(lp8735
I0
aI0
aa(lp8736
I0
aI0
aa(lp8737
I0
aI0
aa(lp8738
F1.0
aF1.0
aa(lp8739
F1.0
aI0
aa(lp8740
I0
aI0
aa(lp8741
F1.0
aF1.0
aa(lp8742
F1.0
aI0
aa(lp8743
I0
aI0
aa(lp8744
I0
aI0
aa(lp8745
F1.0
aF1.0
aa(lp8746
I0
aI0
aa(lp8747
F1.0
aI0
aa(lp8748
F1.0
aI0
aa(lp8749
I0
aI0
aa(lp8750
I0
aI0
aa(lp8751
I0
aI0
aa(lp8752
I0
aI0
aa(lp8753
I0
aI0
aa(lp8754
I0
aI0
aa(lp8755
I0
aI0
aa(lp8756
I0
aI0
aa(lp8757
I0
aI0
aa(lp8758
F1.0
aI0
aa(lp8759
I0
aI0
aa(lp8760
F1.0
aI0
aa(lp8761
I0
aI0
aa(lp8762
I0
aI0
aa(lp8763
I0
aI0
aa(lp8764
F1.0
aI0
aa(lp8765
I0
aI0
aa(lp8766
F1.0
aF1.0
aa(lp8767
I0
aI0
aa(lp8768
I0
aI0
aa(lp8769
F1.0
aF1.0
aa(lp8770
I0
aI0
aa(lp8771
I0
aI0
aa(lp8772
F1.0
aF1.0
aa(lp8773
I0
aI0
aa(lp8774
I0
aI0
aa(lp8775
I0
aI0
aa(lp8776
I0
aI0
aa(lp8777
F0.8461538461538461
aF0.6923076923076923
aa(lp8778
F1.0
aI0
aa(lp8779
I0
aI0
aa(lp8780
I0
aI0
aa(lp8781
I0
aI0
aa(lp8782
I0
aI0
aa(lp8783
I0
aI0
aa(lp8784
F1.0
aI0
aa(lp8785
I0
aI0
aa(lp8786
I0
aI0
aa(lp8787
I0
aI0
aa(lp8788
I0
aI0
aa(lp8789
F1.0
aF1.0
aa(lp8790
I0
aI0
aa(lp8791
F1.0
aF1.0
aa(lp8792
F1.0
aI0
aa(lp8793
I0
aI0
aa(lp8794
I0
aI0
aa(lp8795
I0
aI0
aa(lp8796
I0
aI0
aa(lp8797
F1.0
aI0
aa(lp8798
F1.0
aF1.0
aa(lp8799
F1.0
aI0
aa(lp8800
I0
aI0
aa(lp8801
F1.0
aI0
aa(lp8802
I0
aI0
aa(lp8803
I0
aI0
aa(lp8804
I0
aI0
aa(lp8805
I0
aI0
aa(lp8806
I0
aI0
aa(lp8807
I0
aI0
aa(lp8808
F1.0
aF1.0
aa(lp8809
I0
aI0
aa(lp8810
I0
aI0
aa(lp8811
I0
aI0
aa(lp8812
I0
aI0
aa(lp8813
I0
aI0
aa(lp8814
I0
aI0
aa(lp8815
I0
aI0
aa(lp8816
I0
aI0
aa(lp8817
I0
aI0
aa(lp8818
I0
aI0
aa(lp8819
I0
aI0
aa(lp8820
I0
aI0
aa(lp8821
F0.9444444444444444
aI0
aa(lp8822
I0
aI0
aa(lp8823
I0
aI0
aa(lp8824
I0
aI0
aa(lp8825
I0
aI0
aa(lp8826
F1.0
aI0
aa(lp8827
I0
aI0
aa(lp8828
I0
aI0
aa(lp8829
I0
aI0
aa(lp8830
I0
aI0
aa(lp8831
I0
aI0
aa(lp8832
I0
aI0
aa(lp8833
F0.9259259259259259
aF0.8888888888888888
aa(lp8834
F1.0
aI0
aa(lp8835
I0
aI0
aa(lp8836
I0
aI0
aa(lp8837
I0
aI0
aa(lp8838
I0
aI0
aa(lp8839
F1.0
aI0
aa(lp8840
I0
aI0
aa(lp8841
I0
aI0
aa(lp8842
I0
aI0
aa(lp8843
I0
aI0
aa(lp8844
I0
aI0
aa(lp8845
F1.0
aI0
aa(lp8846
I0
aI0
aa(lp8847
I0
aI0
aa(lp8848
I0
aI0
aa(lp8849
I0
aI0
aa(lp8850
F1.0
aI0
aa(lp8851
I0
aI0
aa(lp8852
F1.0
aI0
aa(lp8853
I0
aI0
aa(lp8854
I0
aI0
aa(lp8855
I0
aI0
aa(lp8856
I0
aI0
aa(lp8857
I0
aI0
aa(lp8858
F1.0
aI0
aa(lp8859
I0
aI0
aa(lp8860
F1.0
aI0
aa(lp8861
F1.0
aI0
aa(lp8862
F1.0
aF1.0
aa(lp8863
F1.0
aI0
aa(lp8864
F0.0
aI0
aa(lp8865
F1.0
aF1.0
aa(lp8866
F1.0
aI0
aa(lp8867
I0
aI0
aa(lp8868
I0
aI0
aa(lp8869
I0
aI0
aa(lp8870
I0
aI0
aa(lp8871
F1.0
aI0
aa(lp8872
F1.0
aF1.0
aa(lp8873
I0
aI0
aa(lp8874
I0
aI0
aa(lp8875
I0
aI0
aa(lp8876
I0
aI0
aa(lp8877
I0
aI0
aa(lp8878
I0
aI0
aa(lp8879
I0
aI0
aa(lp8880
F1.0
aF1.0
aa(lp8881
I0
aI0
aa(lp8882
I0
aI0
aa(lp8883
F1.0
aF1.0
aa(lp8884
F1.0
aI0
aa(lp8885
F1.0
aI0
aa(lp8886
I0
aI0
aa(lp8887
I0
aI0
aa(lp8888
F1.0
aI0
aa(lp8889
I0
aI0
aa(lp8890
I0
aI0
aa(lp8891
F0.0
aI0
aa(lp8892
F1.0
aI0
aa(lp8893
I0
aI0
aa(lp8894
F1.0
aI0
aa(lp8895
I0
aI0
aa(lp8896
I0
aI0
aa(lp8897
F1.0
aI0
aa(lp8898
I0
aI0
aa(lp8899
I0
aI0
aa(lp8900
I0
aI0
aa(lp8901
F1.0
aI0
aa(lp8902
F1.0
aF1.0
aa(lp8903
I0
aI0
aa(lp8904
F1.0
aI0
aa(lp8905
I0
aI0
aa(lp8906
F1.0
aI0
aa(lp8907
I0
aI0
aa(lp8908
I0
aI0
aa(lp8909
F0.0
aI0
aa(lp8910
F1.0
aI0
aa(lp8911
I0
aI0
aa(lp8912
I0
aI0
aa(lp8913
I0
aI0
aa(lp8914
I0
aI0
aa(lp8915
I0
aI0
aa(lp8916
I0
aI0
aa(lp8917
I0
aI0
aa(lp8918
F1.0
aI0
aa(lp8919
I0
aI0
aa(lp8920
I0
aI0
aa(lp8921
I0
aI0
aa(lp8922
I0
aI0
aa(lp8923
F0.0
aF0.0
aa(lp8924
F1.0
aI0
aa(lp8925
I0
aI0
aa(lp8926
F1.0
aI0
aa(lp8927
I0
aI0
aa(lp8928
I0
aI0
aa(lp8929
F1.0
aF1.0
aa(lp8930
I0
aI0
aa(lp8931
I0
aI0
aa(lp8932
I0
aI0
aa(lp8933
I0
aI0
aa(lp8934
F1.0
aI0
aa(lp8935
I0
aI0
aa(lp8936
I0
aI0
aa(lp8937
I0
aI0
aa(lp8938
I0
aI0
aa(lp8939
I0
aI0
aa(lp8940
F1.0
aF1.0
aa(lp8941
I0
aI0
aa(lp8942
F1.0
aF1.0
aa(lp8943
I0
aI0
aa(lp8944
I0
aI0
aa(lp8945
I0
aI0
aa(lp8946
I0
aI0
aa(lp8947
F1.0
aI0
aa(lp8948
F1.0
aI0
aa(lp8949
I0
aI0
aa(lp8950
F1.0
aF1.0
aa(lp8951
I0
aI0
aa(lp8952
I0
aI0
aa(lp8953
F1.0
aI0
aa(lp8954
I0
aI0
aa(lp8955
I0
aI0
aa(lp8956
I0
aI0
aa(lp8957
I0
aI0
aa(lp8958
F1.0
aF1.0
aa(lp8959
I0
aI0
aa(lp8960
F1.0
aI0
aa(lp8961
I0
aI0
aa(lp8962
F1.0
aF1.0
aa(lp8963
I0
aI0
aa(lp8964
I0
aI0
aa(lp8965
F1.0
aI0
aa(lp8966
I0
aI0
aa(lp8967
I0
aI0
aa(lp8968
I0
aI0
aa(lp8969
I0
aI0
aa(lp8970
F1.0
aF1.0
aa(lp8971
I0
aI0
aa(lp8972
I0
aI0
aa(lp8973
F1.0
aI0
aa(lp8974
I0
aI0
aa(lp8975
I0
aI0
aa(lp8976
I0
aI0
aa(lp8977
F1.0
aF1.0
aa(lp8978
I0
aI0
aa(lp8979
F1.0
aI0
aa(lp8980
I0
aI0
aa(lp8981
F1.0
aI0
aa(lp8982
F1.0
aF1.0
aa(lp8983
F1.0
aI0
aa(lp8984
F1.0
aI0
aa(lp8985
F1.0
aI0
aa(lp8986
I0
aI0
aa(lp8987
F1.0
aI0
aa(lp8988
F1.0
aI0
aa(lp8989
F1.0
aI0
aa(lp8990
I0
aI0
aa(lp8991
F1.0
aF1.0
aa(lp8992
I0
aI0
aa(lp8993
I0
aI0
aa(lp8994
I0
aI0
aa(lp8995
I0
aI0
aa(lp8996
F1.0
aI0
aa(lp8997
I0
aI0
aa(lp8998
F1.0
aI0
aa(lp8999
I0
aI0
aa(lp9000
I0
aI0
aa(lp9001
I0
aI0
aa(lp9002
I0
aI0
aa(lp9003
F1.0
aI0
aa(lp9004
F1.0
aI0
aa(lp9005
I0
aI0
aa(lp9006
I0
aI0
aa(lp9007
I0
aI0
aa(lp9008
I0
aI0
aa(lp9009
I0
aI0
aa(lp9010
I0
aI0
aa(lp9011
I0
aI0
aa(lp9012
I0
aI0
aa(lp9013
F1.0
aI0
aa(lp9014
F1.0
aI0
aa(lp9015
F1.0
aI0
aa(lp9016
I0
aI0
aa(lp9017
F0.8916666666666666
aF0.7833333333333333
aa(lp9018
I0
aI0
aa(lp9019
I0
aI0
aa(lp9020
I0
aI0
aa(lp9021
I0
aI0
aa(lp9022
I0
aI0
aa(lp9023
F1.0
aI0
aa(lp9024
I0
aI0
aa(lp9025
I0
aI0
aa(lp9026
I0
aI0
aa(lp9027
F1.0
aF1.0
aa(lp9028
I0
aI0
aa(lp9029
I0
aI0
aa(lp9030
I0
aI0
aa(lp9031
F1.0
aI0
aa(lp9032
I0
aI0
aa(lp9033
I0
aI0
aa(lp9034
I0
aI0
aa(lp9035
F1.0
aI0
aa(lp9036
I0
aI0
aa(lp9037
I0
aI0
aa(lp9038
F0.9291666666666666
aF0.7702020202020201
aa(lp9039
I0
aI0
aa(lp9040
F1.0
aF1.0
aa(lp9041
F0.6363636363636364
aF0.6363636363636364
aa(lp9042
I0
aI0
aa(lp9043
F1.0
aI0
aa(lp9044
I0
aI0
aa(lp9045
I0
aI0
aa(lp9046
F1.0
aI0
aa(lp9047
I0
aI0
aa(lp9048
I0
aI0
aa(lp9049
I0
aI0
aa(lp9050
I0
aI0
aa(lp9051
F1.0
aF1.0
aa(lp9052
F0.7469135802469136
aF0.24074074074074073
aa(lp9053
F1.0
aF1.0
aa(lp9054
F1.0
aF1.0
aa(lp9055
I0
aI0
aa(lp9056
F1.0
aI0
aa(lp9057
F1.0
aI0
aa(lp9058
I0
aI0
aa(lp9059
F1.0
aI0
aa(lp9060
I0
aI0
aa(lp9061
I0
aI0
aa(lp9062
I0
aI0
aa(lp9063
I0
aI0
aa(lp9064
I0
aI0
aa(lp9065
I0
aI0
aa(lp9066
F1.0
aI0
aa(lp9067
I0
aI0
aa(lp9068
I0
aI0
aa(lp9069
F1.0
aF1.0
aa(lp9070
I0
aI0
aa(lp9071
F1.0
aI0
aa(lp9072
F1.0
aI0
aa(lp9073
I0
aI0
aa(lp9074
I0
aI0
aa(lp9075
F1.0
aI0
aa(lp9076
F1.0
aF1.0
aa(lp9077
I0
aI0
aa(lp9078
F1.0
aF1.0
aa(lp9079
I0
aI0
aa(lp9080
I0
aI0
aa(lp9081
I0
aI0
aa(lp9082
I0
aI0
aa(lp9083
I0
aI0
aa(lp9084
I0
aI0
aa(lp9085
I0
aI0
aa(lp9086
F1.0
aI0
aa(lp9087
I0
aI0
aa(lp9088
F1.0
aI0
aa(lp9089
I0
aI0
aa(lp9090
I0
aI0
aa(lp9091
I0
aI0
aa(lp9092
I0
aI0
aa(lp9093
I0
aI0
aa(lp9094
I0
aI0
aa(lp9095
F1.0
aI0
aa(lp9096
I0
aI0
aa(lp9097
I0
aI0
aa(lp9098
F1.0
aF1.0
aa(lp9099
F0.8666666666666667
aF0.8
aa(lp9100
I0
aI0
aa(lp9101
F0.9090909090909092
aF1.0
aa(lp9102
F1.0
aF1.0
aa(lp9103
I0
aI0
aa(lp9104
F0.8880534670008354
aF0.8392952077162604
aa(lp9105
I0
aI0
aa(lp9106
F1.0
aF1.0
aa(lp9107
I0
aI0
aa(lp9108
I0
aI0
aa(lp9109
I0
aI0
aa(lp9110
I0
aI0
aa(lp9111
I0
aI0
aa(lp9112
I0
aI0
aa(lp9113
I0
aI0
aa(lp9114
I0
aI0
aa(lp9115
I0
aI0
aa(lp9116
I0
aI0
aa(lp9117
I0
aI0
aa(lp9118
F1.0
aI0
aa(lp9119
I0
aI0
aa(lp9120
F1.0
aF1.0
aa(lp9121
I0
aI0
aa(lp9122
F0.8476190476190475
aF0.4657952069716775
aa(lp9123
F1.0
aI0
aa(lp9124
I0
aI0
aa(lp9125
F1.0
aF1.0
aa(lp9126
F0.8461538461538461
aI0
aa(lp9127
F0.5733333333333334
aF-0.27761194029850744
aa(lp9128
F0.8347107438016529
aF-0.2631578947368421
aa(lp9129
F1.0
aF0.7894736842105263
aa(lp9130
F1.0
aI0
aa(lp9131
I0
aI0
aa(lp9132
I0
aI0
aa(lp9133
F1.0
aF1.0
aa(lp9134
I0
aI0
aa(lp9135
F1.0
aI0
aa(lp9136
I0
aI0
aa(lp9137
F0.8241758241758242
aF0.6923076923076923
aa(lp9138
F1.0
aI0
aa(lp9139
I0
aI0
aa(lp9140
I0
aI0
aa(lp9141
I0
aI0
aa(lp9142
F1.0
aI0
aa(lp9143
F1.0
aF1.0
aa(lp9144
I0
aI0
aa(lp9145
I0
aI0
aa(lp9146
I0
aI0
aa(lp9147
I0
aI0
aa(lp9148
I0
aI0
aa(lp9149
I0
aI0
aa(lp9150
F1.0
aF1.0
aa(lp9151
I0
aI0
aa(lp9152
F1.0
aI0
aa(lp9153
I0
aI0
aa(lp9154
F1.0
aI0
aa(lp9155
F1.0
aI0
aa(lp9156
I0
aI0
aa(lp9157
F1.0
aI0
aa(lp9158
I0
aI0
aa(lp9159
I0
aI0
aa(lp9160
F1.0
aF1.0
aa(lp9161
I0
aI0
aa(lp9162
I0
aI0
aa(lp9163
I0
aI0
aa(lp9164
I0
aI0
aa(lp9165
I0
aI0
aa(lp9166
I0
aI0
aa(lp9167
F1.0
aF1.0
aa(lp9168
I0
aI0
aa(lp9169
I0
aI0
aa(lp9170
I0
aI0
aa(lp9171
I0
aI0
aa(lp9172
I0
aI0
aa(lp9173
I0
aI0
aa(lp9174
F1.0
aI0
aa(lp9175
I0
aI0
aa(lp9176
I0
aI0
aa(lp9177
I0
aI0
aa(lp9178
I0
aI0
aa(lp9179
I0
aI0
aa(lp9180
F0.0
aI0
aa(lp9181
I0
aI0
aa(lp9182
F1.0
aI0
aa(lp9183
I0
aI0
aa(lp9184
I0
aI0
aa(lp9185
F1.0
aI0
aa(lp9186
F1.0
aF1.0
aa(lp9187
F1.0
aF1.0
aa(lp9188
I0
aI0
aa(lp9189
I0
aI0
aa(lp9190
I0
aI0
aa(lp9191
I0
aI0
aa(lp9192
I0
aI0
aa(lp9193
F1.0
aI0
aa(lp9194
F1.0
aF1.0
aa(lp9195
F1.0
aI0
aa(lp9196
F1.0
aI0
aa(lp9197
I0
aI0
aa(lp9198
F1.0
aF1.0
aa(lp9199
I0
aI0
aa(lp9200
I0
aI0
aa(lp9201
F0.0
aI0
aa(lp9202
F0.0
aF0.0
aa(lp9203
F1.0
aF1.0
aa(lp9204
I0
aI0
aa(lp9205
I0
aI0
aa(lp9206
F1.0
aI0
aa(lp9207
F1.0
aF1.0
aa(lp9208
I0
aI0
aa(lp9209
F1.0
aI0
aa(lp9210
I0
aI0
aa(lp9211
I0
aI0
aa(lp9212
F1.0
aI0
aa(lp9213
F1.0
aF1.0
aa(lp9214
I0
aI0
aa(lp9215
F1.0
aI0
aa(lp9216
I0
aI0
aa(lp9217
I0
aI0
aa(lp9218
I0
aI0
aa(lp9219
I0
aI0
aa(lp9220
F1.0
aI0
aa(lp9221
I0
aI0
aa(lp9222
F0.8747780382129415
aF0.7067372573445448
aa(lp9223
I0
aI0
aa(lp9224
I0
aI0
aa(lp9225
I0
aI0
aa(lp9226
I0
aI0
aa(lp9227
F1.0
aI0
aa(lp9228
I0
aI0
aa(lp9229
I0
aI0
aa(lp9230
I0
aI0
aa(lp9231
I0
aI0
aa(lp9232
I0
aI0
aa(lp9233
I0
aI0
aa(lp9234
I0
aI0
aa(lp9235
I0
aI0
aa(lp9236
F0.0
aI0
aa(lp9237
I0
aI0
aa(lp9238
I0
aI0
aa(lp9239
I0
aI0
aa(lp9240
I0
aI0
aa(lp9241
I0
aI0
aa(lp9242
I0
aI0
aa(lp9243
I0
aI0
aa(lp9244
I0
aI0
aa(lp9245
I0
aI0
aa(lp9246
F1.0
aI0
aa(lp9247
F0.8888888888888888
aF0.8888888888888888
aa(lp9248
I0
aI0
aa(lp9249
I0
aI0
aa(lp9250
I0
aI0
aa(lp9251
I0
aI0
aa(lp9252
I0
aI0
aa(lp9253
I0
aI0
aa(lp9254
F1.0
aI0
aa(lp9255
F0.0
aI0
aa(lp9256
I0
aI0
aa(lp9257
I0
aI0
aa(lp9258
I0
aI0
aa(lp9259
I0
aI0
aa(lp9260
I0
aI0
aa(lp9261
I0
aI0
aa(lp9262
I0
aI0
aa(lp9263
I0
aI0
aa(lp9264
I0
aI0
aa(lp9265
I0
aI0
aa(lp9266
I0
aI0
aa(lp9267
I0
aI0
aa(lp9268
I0
aI0
aa(lp9269
F1.0
aF1.0
aa(lp9270
F1.0
aF1.0
aa(lp9271
I0
aI0
aa(lp9272
I0
aI0
aa(lp9273
I0
aI0
aa(lp9274
I0
aI0
aa(lp9275
I0
aI0
aa(lp9276
F1.0
aF1.0
aa(lp9277
F1.0
aI0
aa(lp9278
I0
aI0
aa(lp9279
I0
aI0
aa(lp9280
F0.8333333333333334
aF0.75
aa(lp9281
F1.0
aF1.0
aa(lp9282
F1.0
aF1.0
aa(lp9283
I0
aI0
aa(lp9284
F1.0
aF1.0
aa(lp9285
I0
aI0
aa(lp9286
F1.0
aI0
aa(lp9287
I0
aI0
aa(lp9288
I0
aI0
aa(lp9289
I0
aI0
aa(lp9290
I0
aI0
aa(lp9291
I0
aI0
aa(lp9292
I0
aI0
aa(lp9293
I0
aI0
aa(lp9294
I0
aI0
aa(lp9295
F1.0
aF1.0
aa(lp9296
I0
aI0
aa(lp9297
F0.0
aI0
aa(lp9298
F1.0
aF1.0
aa(lp9299
I0
aI0
aa(lp9300
F1.0
aF1.0
aa(lp9301
F0.0
aF0.0
aa(lp9302
I0
aI0
aa(lp9303
F0.46438746438746437
aF0.19658119658119658
aa(lp9304
F0.0
aI0
aa(lp9305
F0.9111111111111111
aF0.9259259259259259
aa(lp9306
I0
aI0
aa(lp9307
F1.0
aF1.0
aa(lp9308
F1.0
aI0
aa(lp9309
I0
aI0
aa(lp9310
I0
aI0
aa(lp9311
I0
aI0
aa(lp9312
I0
aI0
aa(lp9313
I0
aI0
aa(lp9314
F1.0
aF1.0
aa(lp9315
I0
aI0
aa(lp9316
I0
aI0
aa(lp9317
I0
aI0
aa(lp9318
F1.0
aI0
aa(lp9319
I0
aI0
aa(lp9320
I0
aI0
aa(lp9321
I0
aI0
aa(lp9322
F1.0
aI0
aa(lp9323
I0
aI0
aa(lp9324
I0
aI0
aa(lp9325
F1.0
aI0
aa(lp9326
I0
aI0
aa(lp9327
F1.0
aF1.0
aa(lp9328
I0
aI0
aa(lp9329
F1.0
aF1.0
aa(lp9330
I0
aI0
aa(lp9331
I0
aI0
aa(lp9332
F1.0
aF1.0
aa(lp9333
F1.0
aI0
aa(lp9334
F1.0
aI0
aa(lp9335
I0
aI0
aa(lp9336
I0
aI0
aa(lp9337
I0
aI0
aa(lp9338
I0
aI0
aa(lp9339
I0
aI0
aa(lp9340
I0
aI0
aa(lp9341
I0
aI0
aa(lp9342
I0
aI0
aa(lp9343
I0
aI0
aa(lp9344
F1.0
aF1.0
aa(lp9345
F1.0
aI0
aa(lp9346
I0
aI0
aa(lp9347
I0
aI0
aa(lp9348
I0
aI0
aa(lp9349
I0
aI0
aa(lp9350
I0
aI0
aa(lp9351
I0
aI0
aa(lp9352
I0
aI0
aa(lp9353
F1.0
aI0
aa(lp9354
I0
aI0
aa(lp9355
I0
aI0
aa(lp9356
I0
aI0
aa(lp9357
I0
aI0
aa(lp9358
F1.0
aI0
aa(lp9359
I0
aI0
aa(lp9360
F1.0
aI0
aa(lp9361
F1.0
aI0
aa(lp9362
I0
aI0
aa(lp9363
I0
aI0
aa(lp9364
I0
aI0
aa(lp9365
I0
aI0
aa(lp9366
I0
aI0
aa(lp9367
I0
aI0
aa(lp9368
F0.0
aI0
aa(lp9369
F1.0
aI0
aa(lp9370
I0
aI0
aa(lp9371
I0
aI0
aa(lp9372
I0
aI0
aa(lp9373
F1.0
aF1.0
aa(lp9374
F1.0
aF1.0
aa(lp9375
F1.0
aF1.0
aa(lp9376
I0
aI0
aa(lp9377
I0
aI0
aa(lp9378
F1.0
aI0
aa(lp9379
F1.0
aF1.0
aa(lp9380
F1.0
aF1.0
aa(lp9381
F1.0
aF1.0
aa(lp9382
I0
aI0
aa(lp9383
I0
aI0
aa(lp9384
I0
aI0
aa(lp9385
F1.0
aF1.0
aa(lp9386
F1.0
aF1.0
aa(lp9387
F1.0
aF1.0
aa(lp9388
F0.8793650793650793
aF0.6076923076923076
aa(lp9389
F1.0
aI0
aa(lp9390
F1.0
aF1.0
aa(lp9391
F1.0
aF1.0
aa(lp9392
I0
aI0
aa(lp9393
F0.8916042780748663
aF0.8705319448353503
aa(lp9394
F0.9533799533799534
aF0.8727627148679781
aa(lp9395
F0.8666666666666667
aF0.68
aa(lp9396
F0.0
aF0.0
aa(lp9397
I0
aI0
aa(lp9398
I0
aI0
aa(lp9399
I0
aI0
aa(lp9400
I0
aI0
aa(lp9401
F0.0
aI0
aa(lp9402
I0
aI0
aa(lp9403
I0
aI0
aa(lp9404
I0
aI0
aa(lp9405
I0
aI0
aa(lp9406
I0
aI0
aa(lp9407
I0
aI0
aa(lp9408
I0
aI0
aa(lp9409
I0
aI0
aa(lp9410
F0.9777777777777779
aF0.9629629629629629
aa(lp9411
I0
aI0
aa(lp9412
F1.0
aI0
aa(lp9413
F1.0
aF1.0
aa(lp9414
I0
aI0
aa(lp9415
F1.0
aF1.0
aa(lp9416
F1.0
aI0
aa(lp9417
F1.0
aF1.0
aa(lp9418
I0
aI0
aa(lp9419
I0
aI0
aa(lp9420
I0
aI0
aa(lp9421
I0
aI0
aa(lp9422
I0
aI0
aa(lp9423
I0
aI0
aa(lp9424
I0
aI0
aa(lp9425
I0
aI0
aa(lp9426
I0
aI0
aa(lp9427
I0
aI0
aa(lp9428
F1.0
aF1.0
aa(lp9429
F1.0
aI0
aa(lp9430
I0
aI0
aa(lp9431
I0
aI0
aa(lp9432
I0
aI0
aa(lp9433
F1.0
aF1.0
aa(lp9434
F1.0
aI0
aa(lp9435
I0
aI0
aa(lp9436
F1.0
aF1.0
aa(lp9437
F1.0
aI0
aa(lp9438
F1.0
aI0
aa(lp9439
F1.0
aI0
aa(lp9440
F1.0
aI0
aa(lp9441
I0
aI0
aa(lp9442
I0
aI0
aa(lp9443
I0
aI0
aa(lp9444
I0
aI0
aa(lp9445
I0
aI0
aa(lp9446
I0
aI0
aa(lp9447
F1.0
aF1.0
aa(lp9448
F1.0
aF1.0
aa(lp9449
I0
aI0
aa(lp9450
I0
aI0
aa(lp9451
I0
aI0
aa(lp9452
F1.0
aF1.0
aa(lp9453
I0
aI0
aa(lp9454
I0
aI0
aa(lp9455
I0
aI0
aa(lp9456
I0
aI0
aa(lp9457
I0
aI0
aa(lp9458
I0
aI0
aa(lp9459
I0
aI0
aa(lp9460
I0
aI0
aa(lp9461
F0.9682539682539683
aF0.8888888888888888
aa(lp9462
I0
aI0
aa(lp9463
I0
aI0
aa(lp9464
I0
aI0
aa(lp9465
I0
aI0
aa(lp9466
I0
aI0
aa(lp9467
F1.0
aI0
aa(lp9468
I0
aI0
aa(lp9469
I0
aI0
aa(lp9470
F1.0
aI0
aa(lp9471
I0
aI0
aa(lp9472
I0
aI0
aa(lp9473
I0
aI0
aa(lp9474
I0
aI0
aa(lp9475
F1.0
aF1.0
aa(lp9476
I0
aI0
aa(lp9477
F1.0
aI0
aa(lp9478
I0
aI0
aa(lp9479
F1.0
aF1.0
aa(lp9480
I0
aI0
aa(lp9481
F1.0
aF1.0
aa(lp9482
I0
aI0
aa(lp9483
I0
aI0
aa(lp9484
I0
aI0
aa(lp9485
F1.0
aI0
aa(lp9486
I0
aI0
aa(lp9487
F1.0
aI0
aa(lp9488
I0
aI0
aa(lp9489
I0
aI0
aa(lp9490
I0
aI0
aa(lp9491
I0
aI0
aa(lp9492
I0
aI0
aa(lp9493
I0
aI0
aa(lp9494
F1.0
aF1.0
aa(lp9495
F1.0
aF1.0
aa(lp9496
I0
aI0
aa(lp9497
I0
aI0
aa(lp9498
I0
aI0
aa(lp9499
F1.0
aF0.5747126436781609
aa(lp9500
I0
aI0
aa(lp9501
I0
aI0
aa(lp9502
I0
aI0
aa(lp9503
I0
aI0
aa(lp9504
F1.0
aF1.0
aa(lp9505
F1.0
aF1.0
aa(lp9506
F1.0
aI0
aa(lp9507
I0
aI0
aa(lp9508
F1.0
aI0
aa(lp9509
I0
aI0
aa(lp9510
I0
aI0
aa(lp9511
I0
aI0
aa(lp9512
I0
aI0
aa(lp9513
I0
aI0
aa(lp9514
F1.0
aI0
aa(lp9515
F1.0
aF1.0
aa(lp9516
I0
aI0
aa(lp9517
I0
aI0
aa(lp9518
F1.0
aF1.0
aa(lp9519
I0
aI0
aa(lp9520
F0.7142857142857143
aF0.625
aa(lp9521
F1.0
aF1.0
aa(lp9522
F0.9428571428571428
aF0.9199999999999999
aa(lp9523
F1.0
aF1.0
aa(lp9524
F1.0
aF1.0
aa(lp9525
F0.8811188811188811
aF0.7642357642357641
aa(lp9526
F1.0
aI0
aa(lp9527
F0.8648844506856677
aF0.5894658553076402
aa(lp9528
F0.7535885167464115
aF0.3616181116181116
aa(lp9529
F0.7384126984126983
aF0.26666666666666666
aa(lp9530
F0.8123456790123457
aF0.24952380952380956
aa(lp9531
F0.8679647150235386
aF0.6710087298322592
aa(lp9532
F0.9646464646464646
aF0.9278996865203761
aa(lp9533
F1.0
aI0
aa(lp9534
I0
aI0
aa(lp9535
I0
aI0
aa(lp9536
I0
aI0
aa(lp9537
F1.0
aF1.0
aa(lp9538
I0
aI0
aa(lp9539
I0
aI0
aa(lp9540
I0
aI0
aa(lp9541
I0
aI0
aa(lp9542
F1.0
aI0
aa(lp9543
I0
aI0
aa(lp9544
I0
aI0
aa(lp9545
I0
aI0
aa(lp9546
I0
aI0
aa(lp9547
F1.0
aI0
aa(lp9548
I0
aI0
aa(lp9549
I0
aI0
aa(lp9550
I0
aI0
aa(lp9551
I0
aI0
aa(lp9552
F1.0
aF1.0
aa(lp9553
I0
aI0
aa(lp9554
I0
aI0
aa(lp9555
F1.0
aI0
aa(lp9556
F1.0
aI0
aa(lp9557
I0
aI0
aa(lp9558
F1.0
aI0
aa(lp9559
F1.0
aF1.0
aa(lp9560
F1.0
aF1.0
aa(lp9561
I0
aI0
aa(lp9562
I0
aI0
aa(lp9563
I0
aI0
aa(lp9564
F1.0
aI0
aa(lp9565
F1.0
aF1.0
aa(lp9566
F0.7777777777777777
aF0.4
aa(lp9567
I0
aI0
aa(lp9568
F1.0
aI0
aa(lp9569
I0
aI0
aa(lp9570
I0
aI0
aa(lp9571
I0
aI0
aa(lp9572
I0
aI0
aa(lp9573
I0
aI0
aa(lp9574
I0
aI0
aa(lp9575
I0
aI0
aa(lp9576
I0
aI0
aa(lp9577
I0
aI0
aa(lp9578
F1.0
aF1.0
aa(lp9579
F1.0
aI0
aa(lp9580
F1.0
aI0
aa(lp9581
I0
aI0
aa(lp9582
I0
aI0
aa(lp9583
F1.0
aI0
aa(lp9584
I0
aI0
aa(lp9585
F1.0
aI0
aa(lp9586
F1.0
aI0
aa(lp9587
F1.0
aF1.0
aa(lp9588
I0
aI0
aa(lp9589
F1.0
aF1.0
aa(lp9590
F1.0
aF1.0
aa(lp9591
I0
aI0
aa(lp9592
I0
aI0
aa(lp9593
F1.0
aI0
aa(lp9594
F1.0
aI0
aa(lp9595
I0
aI0
aa(lp9596
I0
aI0
aa(lp9597
I0
aI0
aa(lp9598
I0
aI0
aa(lp9599
F0.3333333333333333
aF0.5
aa(lp9600
F1.0
aF1.0
aa(lp9601
F0.7954353338968724
aF0.5769230769230769
aa(lp9602
I0
aI0
aa(lp9603
F1.0
aI0
aa(lp9604
I0
aI0
aa(lp9605
I0
aI0
aa(lp9606
I0
aI0
aa(lp9607
I0
aI0
aa(lp9608
I0
aI0
aa(lp9609
I0
aI0
aa(lp9610
I0
aI0
aa(lp9611
F1.0
aF1.0
aa(lp9612
I0
aI0
aa(lp9613
F0.9914529914529915
aF0.6521739130434783
aa(lp9614
F0.42857142857142855
aF0.2
aa(lp9615
I0
aI0
aa(lp9616
I0
aI0
aa(lp9617
F1.0
aF1.0
aa(lp9618
F0.6036106750392465
aF0.15384615384615385
aa(lp9619
I0
aI0
aa(lp9620
F1.0
aI0
aa(lp9621
F0.0
aI0
aa(lp9622
F1.0
aI0
aa(lp9623
I0
aI0
aa(lp9624
I0
aI0
aa(lp9625
F1.0
aF0.06072874493927127
aa(lp9626
F1.0
aF0.6666666666666667
aa(lp9627
F1.0
aF1.0
aa(lp9628
F0.893491124260355
aF0.032247105121599055
aa(lp9629
I0
aI0
aa(lp9630
F1.0
aF1.0
aa(lp9631
I0
aI0
aa(lp9632
I0
aI0
aa(lp9633
F0.8333333333333334
aF0.3333333333333333
aa(lp9634
I0
aI0
aa(lp9635
I0
aI0
aa(lp9636
I0
aI0
aa(lp9637
I0
aI0
aa(lp9638
I0
aI0
aa(lp9639
I0
aI0
aa(lp9640
I0
aI0
aa(lp9641
I0
aI0
aa(lp9642
I0
aI0
aa(lp9643
I0
aI0
aa(lp9644
F1.0
aF1.0
aa(lp9645
I0
aI0
aa(lp9646
I0
aI0
aa(lp9647
I0
aI0
aa(lp9648
I0
aI0
aa(lp9649
I0
aI0
aa(lp9650
I0
aI0
aa(lp9651
I0
aI0
aa(lp9652
I0
aI0
aa(lp9653
F1.0
aI0
aa(lp9654
I0
aI0
aa(lp9655
I0
aI0
aa(lp9656
F1.0
aF1.0
aa(lp9657
I0
aI0
aa(lp9658
F1.0
aF1.0
aa(lp9659
F1.0
aI0
aa(lp9660
I0
aI0
aa(lp9661
F1.0
aI0
aa(lp9662
I0
aI0
aa(lp9663
I0
aI0
aa(lp9664
I0
aI0
aa(lp9665
F1.0
aF1.0
aa(lp9666
I0
aI0
aa(lp9667
F1.0
aF1.0
aa(lp9668
F0.8888888888888888
aF0.8888888888888888
aa(lp9669
I0
aI0
aa(lp9670
I0
aI0
aa(lp9671
I0
aI0
aa(lp9672
F1.0
aF1.0
aa(lp9673
F1.0
aF1.0
aa(lp9674
F0.0
aI0
aa(lp9675
F1.0
aI0
aa(lp9676
I0
aI0
aa(lp9677
I0
aI0
aa(lp9678
F1.0
aI0
aa(lp9679
I0
aI0
aa(lp9680
F1.0
aI0
aa(lp9681
I0
aI0
aa(lp9682
I0
aI0
aa(lp9683
F1.0
aI0
aa(lp9684
F0.9777777777777779
aF0.9555555555555556
aa(lp9685
F1.0
aF1.0
aa(lp9686
I0
aI0
aa(lp9687
F1.0
aI0
aa(lp9688
I0
aI0
aa(lp9689
I0
aI0
aa(lp9690
I0
aI0
aa(lp9691
F1.0
aI0
aa(lp9692
I0
aI0
aa(lp9693
I0
aI0
aa(lp9694
I0
aI0
aa(lp9695
I0
aI0
aa(lp9696
I0
aI0
aa(lp9697
I0
aI0
aa(lp9698
I0
aI0
aa(lp9699
I0
aI0
aa(lp9700
F1.0
aI0
aa(lp9701
F1.0
aF1.0
aa(lp9702
I0
aI0
aa(lp9703
F1.0
aI0
aa(lp9704
I0
aI0
aa(lp9705
I0
aI0
aa(lp9706
I0
aI0
aa(lp9707
F1.0
aF1.0
aa(lp9708
F1.0
aF1.0
aa(lp9709
F1.0
aF1.0
aa(lp9710
I0
aI0
aa(lp9711
I0
aI0
aa(lp9712
F0.0
aF0.0
aa(lp9713
I0
aI0
aa(lp9714
I0
aI0
aa(lp9715
I0
aI0
aa(lp9716
F1.0
aF1.0
aa(lp9717
I0
aI0
aa(lp9718
I0
aI0
aa(lp9719
I0
aI0
aa(lp9720
F1.0
aI0
aa(lp9721
F1.0
aF1.0
aa(lp9722
F1.0
aF1.0
aa(lp9723
F0.9846153846153847
aF1.0
aa(lp9724
I0
aI0
aa(lp9725
I0
aI0
aa(lp9726
I0
aI0
aa(lp9727
I0
aI0
aa(lp9728
I0
aI0
aa(lp9729
F1.0
aI0
aa(lp9730
I0
aI0
aa(lp9731
I0
aI0
aa(lp9732
F0.0
aI0
aa(lp9733
F1.0
aI0
aa(lp9734
I0
aI0
aa(lp9735
F1.0
aI0
aa(lp9736
I0
aI0
aa(lp9737
F1.0
aI0
aa(lp9738
I0
aI0
aa(lp9739
I0
aI0
aa(lp9740
I0
aI0
aa(lp9741
F1.0
aI0
aa(lp9742
I0
aI0
aa(lp9743
I0
aI0
aa(lp9744
I0
aI0
aa(lp9745
I0
aI0
aa(lp9746
F1.0
aI0
aa(lp9747
I0
aI0
aa(lp9748
F1.0
aI0
aa(lp9749
F1.0
aI0
aa(lp9750
I0
aI0
aa(lp9751
F1.0
aI0
aa(lp9752
F1.0
aI0
aa(lp9753
F1.0
aF1.0
aa(lp9754
I0
aI0
aa(lp9755
F1.0
aF0.7948717948717948
aa(lp9756
I0
aI0
aa(lp9757
F1.0
aI0
aa(lp9758
I0
aI0
aa(lp9759
I0
aI0
aa(lp9760
I0
aI0
aa(lp9761
I0
aI0
aa(lp9762
I0
aI0
aa(lp9763
F1.0
aF1.0
aa(lp9764
I0
aI0
aa(lp9765
I0
aI0
aa(lp9766
I0
aI0
aa(lp9767
I0
aI0
aa(lp9768
I0
aI0
aa(lp9769
F1.0
aF1.0
aa(lp9770
I0
aI0
aa(lp9771
I0
aI0
aa(lp9772
F1.0
aF1.0
aa(lp9773
F1.0
aF1.0
aa(lp9774
F1.0
aF1.0
aa(lp9775
F1.0
aI0
aa(lp9776
F1.0
aI0
aa(lp9777
I0
aI0
aa(lp9778
I0
aI0
aa(lp9779
F1.0
aI0
aa(lp9780
I0
aI0
aa(lp9781
I0
aI0
aa(lp9782
I0
aI0
aa(lp9783
F1.0
aI0
aa(lp9784
F0.8046398046398047
aF0.8021978021978023
aa(lp9785
I0
aI0
aa(lp9786
F1.0
aI0
aa(lp9787
I0
aI0
aa(lp9788
I0
aI0
aa(lp9789
I0
aI0
aa(lp9790
I0
aI0
aa(lp9791
I0
aI0
aa(lp9792
I0
aI0
aa(lp9793
I0
aI0
aa(lp9794
F1.0
aI0
aa(lp9795
I0
aI0
aa(lp9796
F1.0
aF1.0
aa(lp9797
I0
aI0
aa(lp9798
I0
aI0
aa(lp9799
F1.0
aI0
aa(lp9800
F0.9642857142857143
aF0.5833333333333334
aa(lp9801
I0
aI0
aa(lp9802
I0
aI0
aa(lp9803
F1.0
aF1.0
aa(lp9804
I0
aI0
aa(lp9805
F1.0
aF1.0
aa(lp9806
F1.0
aI0
aa(lp9807
I0
aI0
aa(lp9808
I0
aI0
aa(lp9809
I0
aI0
aa(lp9810
I0
aI0
aa(lp9811
I0
aI0
aa(lp9812
I0
aI0
aa(lp9813
I0
aI0
aa(lp9814
F1.0
aF1.0
aa(lp9815
F1.0
aI0
aa(lp9816
F1.0
aI0
aa(lp9817
F1.0
aI0
aa(lp9818
I0
aI0
aa(lp9819
I0
aI0
aa(lp9820
I0
aI0
aa(lp9821
I0
aI0
aa(lp9822
I0
aI0
aa(lp9823
F1.0
aI0
aa(lp9824
I0
aI0
aa(lp9825
I0
aI0
aa(lp9826
I0
aI0
aa(lp9827
F1.0
aF1.0
aa(lp9828
F0.0
aF0.0
aa(lp9829
F1.0
aF1.0
aa(lp9830
F1.0
aI0
aa(lp9831
F0.0
aF0.0
aa(lp9832
F1.0
aI0
aa(lp9833
I0
aI0
aa(lp9834
I0
aI0
aa(lp9835
I0
aI0
aa(lp9836
I0
aI0
aa(lp9837
I0
aI0
aa(lp9838
I0
aI0
aa(lp9839
I0
aI0
aa(lp9840
I0
aI0
aa(lp9841
I0
aI0
aa(lp9842
F1.0
aF1.0
aa(lp9843
F1.0
aF1.0
aa(lp9844
I0
aI0
aa(lp9845
F1.0
aI0
aa(lp9846
F1.0
aF1.0
aa(lp9847
I0
aI0
aa(lp9848
I0
aI0
aa(lp9849
I0
aI0
aa(lp9850
F1.0
aF1.0
aa(lp9851
F1.0
aF1.0
aa(lp9852
I0
aI0
aa(lp9853
I0
aI0
aa(lp9854
I0
aI0
aa(lp9855
I0
aI0
aa(lp9856
I0
aI0
aa(lp9857
I0
aI0
aa(lp9858
I0
aI0
aa(lp9859
F1.0
aI0
aa(lp9860
I0
aI0
aa(lp9861
I0
aI0
aa(lp9862
I0
aI0
aa(lp9863
F1.0
aI0
aa(lp9864
I0
aI0
aa(lp9865
F0.0
aF0.0
aa(lp9866
F1.0
aF1.0
aa(lp9867
I0
aI0
aa(lp9868
I0
aI0
aa(lp9869
F1.0
aF1.0
aa(lp9870
F1.0
aF1.0
aa(lp9871
I0
aI0
aa(lp9872
F1.0
aF1.0
aa(lp9873
F1.0
aF1.0
aa(lp9874
I0
aI0
aa(lp9875
I0
aI0
aa(lp9876
I0
aI0
aa(lp9877
I0
aI0
aa(lp9878
F1.0
aF1.0
aa(lp9879
I0
aI0
aa(lp9880
I0
aI0
aa(lp9881
F0.0
aF0.0
aa(lp9882
I0
aI0
aa(lp9883
F1.0
aI0
aa(lp9884
F1.0
aI0
aa(lp9885
I0
aI0
aa(lp9886
F1.0
aI0
aa(lp9887
F1.0
aI0
aa(lp9888
I0
aI0
aa(lp9889
I0
aI0
aa(lp9890
F1.0
aF1.0
aa(lp9891
F1.0
aI0
aa(lp9892
F-1.0
aF-1.0
aa(lp9893
F1.0
aI0
aa(lp9894
F0.0
aI0
aa(lp9895
I0
aI0
aa(lp9896
F1.0
aF1.0
aa(lp9897
I0
aI0
aa(lp9898
I0
aI0
aa(lp9899
F0.8461538461538461
aF0.8461538461538461
aa(lp9900
F1.0
aF1.0
aa(lp9901
F1.0
aI0
aa(lp9902
F1.0
aI0
aa(lp9903
I0
aI0
aa(lp9904
F1.0
aF1.0
aa(lp9905
I0
aI0
aa(lp9906
I0
aI0
aa(lp9907
I0
aI0
aa(lp9908
F1.0
aF1.0
aa(lp9909
I0
aI0
aa(lp9910
I0
aI0
aa(lp9911
F1.0
aI0
aa(lp9912
F1.0
aI0
aa(lp9913
I0
aI0
aa(lp9914
I0
aI0
aa(lp9915
I0
aI0
aa(lp9916
F0.0
aF0.0
aa(lp9917
I0
aI0
aa(lp9918
F1.0
aF1.0
aa(lp9919
I0
aI0
aa(lp9920
I0
aI0
aa(lp9921
I0
aI0
aa(lp9922
I0
aI0
aa(lp9923
F1.0
aI0
aa(lp9924
F1.0
aI0
aa(lp9925
I0
aI0
aa(lp9926
F1.0
aF1.0
aa(lp9927
I0
aI0
aa(lp9928
I0
aI0
aa(lp9929
F1.0
aF1.0
aa(lp9930
I0
aI0
aa(lp9931
I0
aI0
aa(lp9932
I0
aI0
aa(lp9933
F1.0
aI0
aa(lp9934
I0
aI0
aa(lp9935
I0
aI0
aa(lp9936
F1.0
aI0
aa(lp9937
I0
aI0
aa(lp9938
I0
aI0
aa(lp9939
I0
aI0
aa(lp9940
F1.0
aF1.0
aa(lp9941
I0
aI0
aa(lp9942
I0
aI0
aa(lp9943
F1.0
aF1.0
aa(lp9944
I0
aI0
aa(lp9945
F1.0
aF1.0
aa(lp9946
F1.0
aI0
aa(lp9947
I0
aI0
aa(lp9948
I0
aI0
aa(lp9949
I0
aI0
aa(lp9950
I0
aI0
aa(lp9951
I0
aI0
aa(lp9952
I0
aI0
aa(lp9953
I0
aI0
aa(lp9954
I0
aI0
aa(lp9955
I0
aI0
aa(lp9956
I0
aI0
aa(lp9957
I0
aI0
aa(lp9958
F0.9259259259259259
aF0.7777777777777778
aa(lp9959
I0
aI0
aa(lp9960
I0
aI0
aa(lp9961
I0
aI0
aa(lp9962
I0
aI0
aa(lp9963
F1.0
aF1.0
aa(lp9964
F0.8461538461538461
aF0.6666666666666666
aa(lp9965
F0.7538461538461539
aF0.5538461538461538
aa(lp9966
I0
aI0
aa(lp9967
F1.0
aF1.0
aa(lp9968
I0
aI0
aa(lp9969
I0
aI0
aa(lp9970
I0
aI0
aa(lp9971
I0
aI0
aa(lp9972
I0
aI0
aa(lp9973
I0
aI0
aa(lp9974
I0
aI0
aa(lp9975
I0
aI0
aa(lp9976
I0
aI0
aa(lp9977
I0
aI0
aa(lp9978
F1.0
aF1.0
aa(lp9979
F1.0
aF1.0
aa(lp9980
I0
aI0
aa(lp9981
F1.0
aF1.0
aa(lp9982
I0
aI0
aa(lp9983
I0
aI0
aa(lp9984
F1.0
aF1.0
aa(lp9985
F1.0
aF1.0
aa(lp9986
I0
aI0
aa(lp9987
I0
aI0
aa(lp9988
I0
aI0
aa(lp9989
I0
aI0
aa(lp9990
F1.0
aF1.0
aa(lp9991
F1.0
aF1.0
aa(lp9992
I0
aI0
aa(lp9993
I0
aI0
aa(lp9994
F1.0
aF1.0
aa(lp9995
I0
aI0
aa(lp9996
F1.0
aI0
aa(lp9997
I0
aI0
aa(lp9998
I0
aI0
aa(lp9999
I0
aI0
aa(lp10000
I0
aI0
aa(lp10001
I0
aI0
aa(lp10002
I0
aI0
aa(lp10003
F1.0
aI0
aa(lp10004
I0
aI0
aa(lp10005
I0
aI0
aa(lp10006
I0
aI0
aa(lp10007
I0
aI0
aa(lp10008
F1.0
aI0
aa(lp10009
F1.0
aF1.0
aa(lp10010
I0
aI0
aa(lp10011
I0
aI0
aa(lp10012
I0
aI0
aa(lp10013
F1.0
aF1.0
aa(lp10014
I0
aI0
aa(lp10015
I0
aI0
aa(lp10016
I0
aI0
aa(lp10017
I0
aI0
aa(lp10018
I0
aI0
aa(lp10019
I0
aI0
aa(lp10020
F0.0
aI0
aa(lp10021
I0
aI0
aa(lp10022
I0
aI0
aa(lp10023
F0.9444444444444444
aI0
aa(lp10024
F1.0
aI0
aa(lp10025
I0
aI0
aa(lp10026
F1.0
aI0
aa(lp10027
I0
aI0
aa(lp10028
F0.0
aI0
aa(lp10029
F1.0
aI0
aa(lp10030
I0
aI0
aa(lp10031
I0
aI0
aa(lp10032
I0
aI0
aa(lp10033
I0
aI0
aa(lp10034
I0
aI0
aa(lp10035
I0
aI0
aa(lp10036
F1.0
aI0
aa(lp10037
F1.0
aI0
aa(lp10038
I0
aI0
aa(lp10039
F1.0
aI0
aa(lp10040
I0
aI0
aa(lp10041
I0
aI0
aa(lp10042
F1.0
aI0
aa(lp10043
I0
aI0
aa(lp10044
F1.0
aI0
aa(lp10045
F1.0
aI0
aa(lp10046
F1.0
aI0
aa(lp10047
I0
aI0
aa(lp10048
F1.0
aI0
aa(lp10049
I0
aI0
aa(lp10050
F1.0
aI0
aa(lp10051
I0
aI0
aa(lp10052
I0
aI0
aa(lp10053
I0
aI0
aa(lp10054
I0
aI0
aa(lp10055
I0
aI0
aa(lp10056
I0
aI0
aa.